
cube.elf:     file format elf32-avr

Sections:
Idx Name          Size      VMA       LMA       File off  Algn
  0 .data         0000006e  00800100  0000a9d0  0000aa84  2**0
                  CONTENTS, ALLOC, LOAD, DATA
  1 .text         0000a9d0  00000000  00000000  000000b4  2**1
                  CONTENTS, ALLOC, LOAD, READONLY, CODE
  2 .bss          00000082  0080016e  0080016e  0000aaf2  2**0
                  ALLOC
  3 .eeprom       000001f7  00810000  00810000  0000aaf2  2**0
                  CONTENTS, ALLOC, LOAD, DATA
  4 .stab         000029ac  00000000  00000000  0000acec  2**2
                  CONTENTS, READONLY, DEBUGGING
  5 .stabstr      000009bb  00000000  00000000  0000d698  2**0
                  CONTENTS, READONLY, DEBUGGING
  6 .debug_aranges 000002c0  00000000  00000000  0000e058  2**3
                  CONTENTS, READONLY, DEBUGGING
  7 .debug_info   0000510e  00000000  00000000  0000e318  2**0
                  CONTENTS, READONLY, DEBUGGING
  8 .debug_abbrev 000010c8  00000000  00000000  00013426  2**0
                  CONTENTS, READONLY, DEBUGGING
  9 .debug_line   00003305  00000000  00000000  000144ee  2**0
                  CONTENTS, READONLY, DEBUGGING
 10 .debug_frame  00001b10  00000000  00000000  000177f4  2**2
                  CONTENTS, READONLY, DEBUGGING
 11 .debug_str    00000c3d  00000000  00000000  00019304  2**0
                  CONTENTS, READONLY, DEBUGGING
 12 .debug_loc    00008bca  00000000  00000000  00019f41  2**0
                  CONTENTS, READONLY, DEBUGGING
 13 .debug_ranges 00000678  00000000  00000000  00022b0b  2**0
                  CONTENTS, READONLY, DEBUGGING

Disassembly of section .text:

00000000 <__vectors>:
       0:	0c 94 ee 00 	jmp	0x1dc	; 0x1dc <__ctors_end>
       4:	0c 94 0d 01 	jmp	0x21a	; 0x21a <__bad_interrupt>
       8:	0c 94 0d 01 	jmp	0x21a	; 0x21a <__bad_interrupt>
       c:	0c 94 0d 01 	jmp	0x21a	; 0x21a <__bad_interrupt>
      10:	0c 94 0d 01 	jmp	0x21a	; 0x21a <__bad_interrupt>
      14:	0c 94 0d 01 	jmp	0x21a	; 0x21a <__bad_interrupt>
      18:	0c 94 0d 01 	jmp	0x21a	; 0x21a <__bad_interrupt>
      1c:	0c 94 0d 01 	jmp	0x21a	; 0x21a <__bad_interrupt>
      20:	0c 94 0d 01 	jmp	0x21a	; 0x21a <__bad_interrupt>
      24:	0c 94 0d 01 	jmp	0x21a	; 0x21a <__bad_interrupt>
      28:	0c 94 0d 01 	jmp	0x21a	; 0x21a <__bad_interrupt>
      2c:	0c 94 0d 01 	jmp	0x21a	; 0x21a <__bad_interrupt>
      30:	0c 94 0d 01 	jmp	0x21a	; 0x21a <__bad_interrupt>
      34:	0c 94 0d 01 	jmp	0x21a	; 0x21a <__bad_interrupt>
      38:	0c 94 0d 01 	jmp	0x21a	; 0x21a <__bad_interrupt>
      3c:	0c 94 0d 01 	jmp	0x21a	; 0x21a <__bad_interrupt>
      40:	0c 94 0d 01 	jmp	0x21a	; 0x21a <__bad_interrupt>
      44:	0c 94 0d 01 	jmp	0x21a	; 0x21a <__bad_interrupt>
      48:	0c 94 3a 3d 	jmp	0x7a74	; 0x7a74 <__vector_18>
      4c:	0c 94 0d 01 	jmp	0x21a	; 0x21a <__bad_interrupt>
      50:	0c 94 0d 01 	jmp	0x21a	; 0x21a <__bad_interrupt>
      54:	0c 94 0d 01 	jmp	0x21a	; 0x21a <__bad_interrupt>
      58:	0c 94 0d 01 	jmp	0x21a	; 0x21a <__bad_interrupt>
      5c:	0c 94 0d 01 	jmp	0x21a	; 0x21a <__bad_interrupt>
      60:	0c 94 0d 01 	jmp	0x21a	; 0x21a <__bad_interrupt>
      64:	0c 94 0d 01 	jmp	0x21a	; 0x21a <__bad_interrupt>
      68:	0c 94 0d 01 	jmp	0x21a	; 0x21a <__bad_interrupt>
      6c:	0c 94 0d 01 	jmp	0x21a	; 0x21a <__bad_interrupt>
      70:	0c 94 0d 01 	jmp	0x21a	; 0x21a <__bad_interrupt>
      74:	0c 94 0d 01 	jmp	0x21a	; 0x21a <__bad_interrupt>
      78:	0c 94 0d 01 	jmp	0x21a	; 0x21a <__bad_interrupt>
      7c:	0c 94 0d 01 	jmp	0x21a	; 0x21a <__bad_interrupt>
      80:	0c 94 0d 01 	jmp	0x21a	; 0x21a <__bad_interrupt>
      84:	0c 94 0d 01 	jmp	0x21a	; 0x21a <__bad_interrupt>
      88:	0c 94 0d 01 	jmp	0x21a	; 0x21a <__bad_interrupt>
      8c:	3a 03       	fmul	r19, r18
      8e:	fd 08       	sbc	r15, r13
      90:	fd 08       	sbc	r15, r13
      92:	fd 08       	sbc	r15, r13
      94:	fd 08       	sbc	r15, r13
      96:	9d 03       	fmulsu	r17, r21
      98:	fd 08       	sbc	r15, r13
      9a:	fd 08       	sbc	r15, r13
      9c:	fd 08       	sbc	r15, r13
      9e:	fd 08       	sbc	r15, r13
      a0:	fd 08       	sbc	r15, r13
      a2:	fd 08       	sbc	r15, r13
      a4:	fd 08       	sbc	r15, r13
      a6:	82 03       	fmuls	r16, r18
      a8:	fd 08       	sbc	r15, r13
      aa:	1e 01       	movw	r2, r28
      ac:	60 01       	movw	r12, r0
      ae:	8e 01       	movw	r16, r28
      b0:	c6 01       	movw	r24, r12
      b2:	ef 01       	movw	r28, r30
      b4:	31 02       	muls	r19, r17
      b6:	82 02       	muls	r24, r18
      b8:	c4 02       	muls	r28, r20
      ba:	e3 02       	muls	r30, r19
      bc:	16 03       	mulsu	r17, r22
      be:	59 03       	fmul	r21, r17
      c0:	fd 08       	sbc	r15, r13
      c2:	fd 08       	sbc	r15, r13
      c4:	fd 08       	sbc	r15, r13
      c6:	fd 08       	sbc	r15, r13
      c8:	97 03       	fmuls	r17, r23
      ca:	fd 08       	sbc	r15, r13
      cc:	fd 08       	sbc	r15, r13
      ce:	fd 08       	sbc	r15, r13
      d0:	fd 08       	sbc	r15, r13
      d2:	fd 08       	sbc	r15, r13
      d4:	fd 08       	sbc	r15, r13
      d6:	fd 08       	sbc	r15, r13
      d8:	fd 08       	sbc	r15, r13
      da:	fd 08       	sbc	r15, r13
      dc:	fd 08       	sbc	r15, r13
      de:	fd 08       	sbc	r15, r13
      e0:	fd 08       	sbc	r15, r13
      e2:	fd 08       	sbc	r15, r13
      e4:	fd 08       	sbc	r15, r13
      e6:	fd 08       	sbc	r15, r13
      e8:	fd 08       	sbc	r15, r13
      ea:	fd 08       	sbc	r15, r13
      ec:	fd 08       	sbc	r15, r13
      ee:	fd 08       	sbc	r15, r13
      f0:	fd 08       	sbc	r15, r13
      f2:	fd 08       	sbc	r15, r13
      f4:	fd 08       	sbc	r15, r13
      f6:	fd 08       	sbc	r15, r13
      f8:	fd 08       	sbc	r15, r13
      fa:	fd 08       	sbc	r15, r13
      fc:	fd 08       	sbc	r15, r13
      fe:	fd 08       	sbc	r15, r13
     100:	fd 08       	sbc	r15, r13
     102:	fd 08       	sbc	r15, r13
     104:	fd 08       	sbc	r15, r13
     106:	fd 08       	sbc	r15, r13
     108:	fd 08       	sbc	r15, r13
     10a:	fd 08       	sbc	r15, r13
     10c:	df 03       	fmulsu	r21, r23
     10e:	08 04       	cpc	r0, r8
     110:	31 04       	cpc	r3, r1
     112:	69 04       	cpc	r6, r9
     114:	ba 04       	cpc	r11, r10
     116:	d4 04       	cpc	r13, r4
     118:	fd 04       	cpc	r15, r13
     11a:	3f 05       	cpc	r19, r15
     11c:	72 05       	cpc	r23, r2
     11e:	9b 05       	cpc	r25, r11
     120:	c4 05       	cpc	r28, r4
     122:	01 06       	cpc	r0, r17
     124:	39 06       	cpc	r3, r25
     126:	85 06       	cpc	r8, r21
     128:	c2 06       	cpc	r12, r18
     12a:	e1 06       	cpc	r14, r17
     12c:	f1 06       	cpc	r15, r17
     12e:	29 07       	cpc	r18, r25
     130:	84 07       	cpc	r24, r20
     132:	bc 07       	cpc	r27, r28
     134:	db 07       	cpc	r29, r27
     136:	09 08       	sbc	r0, r9
     138:	19 08       	sbc	r1, r9
     13a:	4c 08       	sbc	r4, r12
     13c:	7a 08       	sbc	r7, r10
     13e:	b2 08       	sbc	r11, r2
     140:	1c 3b       	cpi	r17, 0xBC	; 188
     142:	21 3b       	cpi	r18, 0xB1	; 177
     144:	2a 3b       	cpi	r18, 0xBA	; 186
     146:	43 3b       	cpi	r20, 0xB3	; 179
     148:	4a 3b       	cpi	r20, 0xBA	; 186
     14a:	4d 3b       	cpi	r20, 0xBD	; 189
     14c:	50 3b       	cpi	r21, 0xB0	; 176
     14e:	7b 3b       	cpi	r23, 0xBB	; 187
     150:	a3 3b       	cpi	r26, 0xB3	; 179
     152:	c7 3b       	cpi	r28, 0xB7	; 183
     154:	10 3c       	cpi	r17, 0xC0	; 192
     156:	15 3c       	cpi	r17, 0xC5	; 197
     158:	22 3c       	cpi	r18, 0xC2	; 194
     15a:	25 3c       	cpi	r18, 0xC5	; 197
     15c:	51 3c       	cpi	r21, 0xC1	; 193
     15e:	a0 3c       	cpi	r26, 0xC0	; 192
     160:	a7 3c       	cpi	r26, 0xC7	; 199
     162:	ad 3c       	cpi	r26, 0xCD	; 205
     164:	b4 3c       	cpi	r27, 0xC4	; 196
     166:	bc 3c       	cpi	r27, 0xCC	; 204
     168:	c4 3c       	cpi	r28, 0xC4	; 196
     16a:	cb 3c       	cpi	r28, 0xCB	; 203
     16c:	d2 3c       	cpi	r29, 0xC2	; 194
     16e:	d9 3c       	cpi	r29, 0xC9	; 201
     170:	df 3c       	cpi	r29, 0xCF	; 207
     172:	e2 3c       	cpi	r30, 0xC2	; 194
     174:	eb 3c       	cpi	r30, 0xCB	; 203
     176:	f0 3c       	cpi	r31, 0xC0	; 192
     178:	f5 3c       	cpi	r31, 0xC5	; 197
     17a:	f8 3c       	cpi	r31, 0xC8	; 200
     17c:	fd 3c       	cpi	r31, 0xCD	; 205
     17e:	02 3d       	cpi	r16, 0xD2	; 210
     180:	05 3d       	cpi	r16, 0xD5	; 213
     182:	08 3d       	cpi	r16, 0xD8	; 216
     184:	0b 3d       	cpi	r16, 0xDB	; 219
     186:	0e 3d       	cpi	r16, 0xDE	; 222
     188:	13 3d       	cpi	r17, 0xD3	; 211
     18a:	16 3d       	cpi	r17, 0xD6	; 214
     18c:	19 3d       	cpi	r17, 0xD9	; 217
     18e:	1c 3d       	cpi	r17, 0xDC	; 220
     190:	21 3d       	cpi	r18, 0xD1	; 209
     192:	05 a8       	sts	0x85, r16
     194:	4c cd       	rjmp	.-1384   	; 0xfffffc2e <__eeprom_end+0xff7efa37>
     196:	b2 d4       	rcall	.+2404   	; 0xafc <cube_char+0x8de>
     198:	4e b9       	out	0x0e, r20	; 14
     19a:	38 36       	cpi	r19, 0x68	; 104
     19c:	a9 02       	muls	r26, r25
     19e:	0c 50       	subi	r16, 0x0C	; 12
     1a0:	b9 91       	ld	r27, Y+
     1a2:	86 88       	ldd	r8, Z+22	; 0x16
     1a4:	08 3c       	cpi	r16, 0xC8	; 200
     1a6:	a6 aa       	sts	0x96, r26
     1a8:	aa 2a       	or	r10, r26
     1aa:	be 00       	.word	0x00be	; ????
     1ac:	00 00       	nop
     1ae:	80 3f       	cpi	r24, 0xF0	; 240

000001b0 <paths>:
     1b0:	07 06 05 04 03 02 01 00 10 20 30 40 50 60 70 71     ......... 0@P`pq
     1c0:	72 73 74 75 76 77 67 57 47 37 27 17 04 03 12 21     rstuvwgWG7'....!
     1d0:	30 40 51 62 73 74 65 56 47 37 26 15                 0@QbsteVG7&.

000001dc <__ctors_end>:
     1dc:	11 24       	eor	r1, r1
     1de:	1f be       	out	0x3f, r1	; 63
     1e0:	cf ef       	ldi	r28, 0xFF	; 255
     1e2:	d0 e4       	ldi	r29, 0x40	; 64
     1e4:	de bf       	out	0x3e, r29	; 62
     1e6:	cd bf       	out	0x3d, r28	; 61

000001e8 <__do_copy_data>:
     1e8:	11 e0       	ldi	r17, 0x01	; 1
     1ea:	a0 e0       	ldi	r26, 0x00	; 0
     1ec:	b1 e0       	ldi	r27, 0x01	; 1
     1ee:	e0 ed       	ldi	r30, 0xD0	; 208
     1f0:	f9 ea       	ldi	r31, 0xA9	; 169
     1f2:	00 e0       	ldi	r16, 0x00	; 0
     1f4:	0b bf       	out	0x3b, r16	; 59
     1f6:	02 c0       	rjmp	.+4      	; 0x1fc <__do_copy_data+0x14>
     1f8:	07 90       	elpm	r0, Z+
     1fa:	0d 92       	st	X+, r0
     1fc:	ae 36       	cpi	r26, 0x6E	; 110
     1fe:	b1 07       	cpc	r27, r17
     200:	d9 f7       	brne	.-10     	; 0x1f8 <__do_copy_data+0x10>

00000202 <__do_clear_bss>:
     202:	11 e0       	ldi	r17, 0x01	; 1
     204:	ae e6       	ldi	r26, 0x6E	; 110
     206:	b1 e0       	ldi	r27, 0x01	; 1
     208:	01 c0       	rjmp	.+2      	; 0x20c <.do_clear_bss_start>

0000020a <.do_clear_bss_loop>:
     20a:	1d 92       	st	X+, r1

0000020c <.do_clear_bss_start>:
     20c:	a0 3f       	cpi	r26, 0xF0	; 240
     20e:	b1 07       	cpc	r27, r17
     210:	e1 f7       	brne	.-8      	; 0x20a <.do_clear_bss_loop>
     212:	0e 94 59 51 	call	0xa2b2	; 0xa2b2 <main>
     216:	0c 94 e6 54 	jmp	0xa9cc	; 0xa9cc <_exit>

0000021a <__bad_interrupt>:
     21a:	0c 94 00 00 	jmp	0	; 0x0 <__vectors>

0000021e <cube_char>:
     21e:	90 e0       	ldi	r25, 0x00	; 0
     220:	81 97       	sbiw	r24, 0x21	; 33
     222:	8a 35       	cpi	r24, 0x5A	; 90
     224:	91 05       	cpc	r25, r1
     226:	08 f0       	brcs	.+2      	; 0x22a <cube_char+0xc>
     228:	e8 c7       	rjmp	.+4048   	; 0x11fa <cube_char+0xfdc>
     22a:	8a 5b       	subi	r24, 0xBA	; 186
     22c:	9f 4f       	sbci	r25, 0xFF	; 255
     22e:	fc 01       	movw	r30, r24
     230:	ee 0f       	add	r30, r30
     232:	ff 1f       	adc	r31, r31
     234:	05 90       	lpm	r0, Z+
     236:	f4 91       	lpm	r31, Z
     238:	e0 2d       	mov	r30, r0
     23a:	09 94       	ijmp
     23c:	80 91 b2 01 	lds	r24, 0x01B2
     240:	86 2b       	or	r24, r22
     242:	80 93 b2 01 	sts	0x01B2, r24
     246:	80 91 b3 01 	lds	r24, 0x01B3
     24a:	86 2b       	or	r24, r22
     24c:	80 93 b3 01 	sts	0x01B3, r24
     250:	80 91 b4 01 	lds	r24, 0x01B4
     254:	86 2b       	or	r24, r22
     256:	80 93 b4 01 	sts	0x01B4, r24
     25a:	80 91 b9 01 	lds	r24, 0x01B9
     25e:	86 2b       	or	r24, r22
     260:	80 93 b9 01 	sts	0x01B9, r24
     264:	80 91 bd 01 	lds	r24, 0x01BD
     268:	86 2b       	or	r24, r22
     26a:	80 93 bd 01 	sts	0x01BD, r24
     26e:	80 91 c1 01 	lds	r24, 0x01C1
     272:	86 2b       	or	r24, r22
     274:	80 93 c1 01 	sts	0x01C1, r24
     278:	80 91 c2 01 	lds	r24, 0x01C2
     27c:	86 2b       	or	r24, r22
     27e:	80 93 c2 01 	sts	0x01C2, r24
     282:	80 91 c5 01 	lds	r24, 0x01C5
     286:	86 2b       	or	r24, r22
     288:	80 93 c5 01 	sts	0x01C5, r24
     28c:	80 91 c9 01 	lds	r24, 0x01C9
     290:	86 2b       	or	r24, r22
     292:	80 93 c9 01 	sts	0x01C9, r24
     296:	80 91 cb 01 	lds	r24, 0x01CB
     29a:	86 2b       	or	r24, r22
     29c:	80 93 cb 01 	sts	0x01CB, r24
     2a0:	80 91 cd 01 	lds	r24, 0x01CD
     2a4:	86 2b       	or	r24, r22
     2a6:	80 93 cd 01 	sts	0x01CD, r24
     2aa:	80 91 d1 01 	lds	r24, 0x01D1
     2ae:	86 2b       	or	r24, r22
     2b0:	80 93 d1 01 	sts	0x01D1, r24
     2b4:	80 91 d4 01 	lds	r24, 0x01D4
     2b8:	86 2b       	or	r24, r22
     2ba:	80 93 d4 01 	sts	0x01D4, r24
     2be:	56 c0       	rjmp	.+172    	; 0x36c <cube_char+0x14e>
     2c0:	80 91 b2 01 	lds	r24, 0x01B2
     2c4:	86 2b       	or	r24, r22
     2c6:	80 93 b2 01 	sts	0x01B2, r24
     2ca:	80 91 b3 01 	lds	r24, 0x01B3
     2ce:	86 2b       	or	r24, r22
     2d0:	80 93 b3 01 	sts	0x01B3, r24
     2d4:	80 91 b4 01 	lds	r24, 0x01B4
     2d8:	86 2b       	or	r24, r22
     2da:	80 93 b4 01 	sts	0x01B4, r24
     2de:	80 91 bb 01 	lds	r24, 0x01BB
     2e2:	86 2b       	or	r24, r22
     2e4:	80 93 bb 01 	sts	0x01BB, r24
     2e8:	80 91 c3 01 	lds	r24, 0x01C3
     2ec:	86 2b       	or	r24, r22
     2ee:	80 93 c3 01 	sts	0x01C3, r24
     2f2:	80 91 cb 01 	lds	r24, 0x01CB
     2f6:	86 2b       	or	r24, r22
     2f8:	80 93 cb 01 	sts	0x01CB, r24
     2fc:	80 91 d3 01 	lds	r24, 0x01D3
     300:	86 2b       	or	r24, r22
     302:	80 93 d3 01 	sts	0x01D3, r24
     306:	80 91 da 01 	lds	r24, 0x01DA
     30a:	86 2b       	or	r24, r22
     30c:	80 93 da 01 	sts	0x01DA, r24
     310:	80 91 db 01 	lds	r24, 0x01DB
     314:	86 2b       	or	r24, r22
     316:	80 93 db 01 	sts	0x01DB, r24
     31a:	26 c3       	rjmp	.+1612   	; 0x968 <cube_char+0x74a>
     31c:	80 91 b1 01 	lds	r24, 0x01B1
     320:	86 2b       	or	r24, r22
     322:	80 93 b1 01 	sts	0x01B1, r24
     326:	80 91 b2 01 	lds	r24, 0x01B2
     32a:	86 2b       	or	r24, r22
     32c:	80 93 b2 01 	sts	0x01B2, r24
     330:	80 91 b3 01 	lds	r24, 0x01B3
     334:	86 2b       	or	r24, r22
     336:	80 93 b3 01 	sts	0x01B3, r24
     33a:	80 91 b4 01 	lds	r24, 0x01B4
     33e:	86 2b       	or	r24, r22
     340:	80 93 b4 01 	sts	0x01B4, r24
     344:	80 91 b5 01 	lds	r24, 0x01B5
     348:	86 2b       	or	r24, r22
     34a:	80 93 b5 01 	sts	0x01B5, r24
     34e:	80 91 ba 01 	lds	r24, 0x01BA
     352:	86 2b       	or	r24, r22
     354:	80 93 ba 01 	sts	0x01BA, r24
     358:	80 91 c3 01 	lds	r24, 0x01C3
     35c:	86 2b       	or	r24, r22
     35e:	80 93 c3 01 	sts	0x01C3, r24
     362:	80 91 cc 01 	lds	r24, 0x01CC
     366:	86 2b       	or	r24, r22
     368:	80 93 cc 01 	sts	0x01CC, r24
     36c:	80 91 d5 01 	lds	r24, 0x01D5
     370:	86 2b       	or	r24, r22
     372:	80 93 d5 01 	sts	0x01D5, r24
     376:	80 91 d9 01 	lds	r24, 0x01D9
     37a:	86 2b       	or	r24, r22
     37c:	80 93 d9 01 	sts	0x01D9, r24
     380:	80 91 dd 01 	lds	r24, 0x01DD
     384:	86 2b       	or	r24, r22
     386:	80 93 dd 01 	sts	0x01DD, r24
     38a:	ae c5       	rjmp	.+2908   	; 0xee8 <cube_char+0xcca>
     38c:	80 91 b2 01 	lds	r24, 0x01B2
     390:	86 2b       	or	r24, r22
     392:	80 93 b2 01 	sts	0x01B2, r24
     396:	80 91 b3 01 	lds	r24, 0x01B3
     39a:	86 2b       	or	r24, r22
     39c:	80 93 b3 01 	sts	0x01B3, r24
     3a0:	80 91 b4 01 	lds	r24, 0x01B4
     3a4:	86 2b       	or	r24, r22
     3a6:	80 93 b4 01 	sts	0x01B4, r24
     3aa:	80 91 b9 01 	lds	r24, 0x01B9
     3ae:	86 2b       	or	r24, r22
     3b0:	80 93 b9 01 	sts	0x01B9, r24
     3b4:	80 91 bd 01 	lds	r24, 0x01BD
     3b8:	86 2b       	or	r24, r22
     3ba:	80 93 bd 01 	sts	0x01BD, r24
     3be:	80 91 c5 01 	lds	r24, 0x01C5
     3c2:	86 2b       	or	r24, r22
     3c4:	80 93 c5 01 	sts	0x01C5, r24
     3c8:	80 91 cc 01 	lds	r24, 0x01CC
     3cc:	86 2b       	or	r24, r22
     3ce:	80 93 cc 01 	sts	0x01CC, r24
     3d2:	80 91 d3 01 	lds	r24, 0x01D3
     3d6:	86 2b       	or	r24, r22
     3d8:	80 93 d3 01 	sts	0x01D3, r24
     3dc:	64 c1       	rjmp	.+712    	; 0x6a6 <cube_char+0x488>
     3de:	80 91 b4 01 	lds	r24, 0x01B4
     3e2:	86 2b       	or	r24, r22
     3e4:	80 93 b4 01 	sts	0x01B4, r24
     3e8:	80 91 bc 01 	lds	r24, 0x01BC
     3ec:	86 2b       	or	r24, r22
     3ee:	80 93 bc 01 	sts	0x01BC, r24
     3f2:	80 91 c1 01 	lds	r24, 0x01C1
     3f6:	86 2b       	or	r24, r22
     3f8:	80 93 c1 01 	sts	0x01C1, r24
     3fc:	80 91 c2 01 	lds	r24, 0x01C2
     400:	86 2b       	or	r24, r22
     402:	80 93 c2 01 	sts	0x01C2, r24
     406:	80 91 c3 01 	lds	r24, 0x01C3
     40a:	86 2b       	or	r24, r22
     40c:	80 93 c3 01 	sts	0x01C3, r24
     410:	80 91 c4 01 	lds	r24, 0x01C4
     414:	86 2b       	or	r24, r22
     416:	80 93 c4 01 	sts	0x01C4, r24
     41a:	80 91 c5 01 	lds	r24, 0x01C5
     41e:	86 2b       	or	r24, r22
     420:	80 93 c5 01 	sts	0x01C5, r24
     424:	80 91 c9 01 	lds	r24, 0x01C9
     428:	86 2b       	or	r24, r22
     42a:	80 93 c9 01 	sts	0x01C9, r24
     42e:	80 91 cc 01 	lds	r24, 0x01CC
     432:	86 2b       	or	r24, r22
     434:	80 93 cc 01 	sts	0x01CC, r24
     438:	80 91 d2 01 	lds	r24, 0x01D2
     43c:	86 2b       	or	r24, r22
     43e:	80 93 d2 01 	sts	0x01D2, r24
     442:	80 91 d4 01 	lds	r24, 0x01D4
     446:	86 2b       	or	r24, r22
     448:	80 93 d4 01 	sts	0x01D4, r24
     44c:	80 91 db 01 	lds	r24, 0x01DB
     450:	86 2b       	or	r24, r22
     452:	80 93 db 01 	sts	0x01DB, r24
     456:	80 91 dc 01 	lds	r24, 0x01DC
     45a:	86 2b       	or	r24, r22
     45c:	80 93 dc 01 	sts	0x01DC, r24
     460:	4d c5       	rjmp	.+2714   	; 0xefc <cube_char+0xcde>
     462:	80 91 b2 01 	lds	r24, 0x01B2
     466:	86 2b       	or	r24, r22
     468:	80 93 b2 01 	sts	0x01B2, r24
     46c:	80 91 b3 01 	lds	r24, 0x01B3
     470:	86 2b       	or	r24, r22
     472:	80 93 b3 01 	sts	0x01B3, r24
     476:	80 91 b4 01 	lds	r24, 0x01B4
     47a:	86 2b       	or	r24, r22
     47c:	80 93 b4 01 	sts	0x01B4, r24
     480:	80 91 b9 01 	lds	r24, 0x01B9
     484:	86 2b       	or	r24, r22
     486:	80 93 b9 01 	sts	0x01B9, r24
     48a:	80 91 bd 01 	lds	r24, 0x01BD
     48e:	86 2b       	or	r24, r22
     490:	80 93 bd 01 	sts	0x01BD, r24
     494:	80 91 c5 01 	lds	r24, 0x01C5
     498:	86 2b       	or	r24, r22
     49a:	80 93 c5 01 	sts	0x01C5, r24
     49e:	80 91 cd 01 	lds	r24, 0x01CD
     4a2:	86 2b       	or	r24, r22
     4a4:	80 93 cd 01 	sts	0x01CD, r24
     4a8:	80 91 d1 01 	lds	r24, 0x01D1
     4ac:	86 2b       	or	r24, r22
     4ae:	80 93 d1 01 	sts	0x01D1, r24
     4b2:	80 91 d2 01 	lds	r24, 0x01D2
     4b6:	86 2b       	or	r24, r22
     4b8:	80 93 d2 01 	sts	0x01D2, r24
     4bc:	80 91 d3 01 	lds	r24, 0x01D3
     4c0:	86 2b       	or	r24, r22
     4c2:	80 93 d3 01 	sts	0x01D3, r24
     4c6:	80 91 d4 01 	lds	r24, 0x01D4
     4ca:	86 2b       	or	r24, r22
     4cc:	80 93 d4 01 	sts	0x01D4, r24
     4d0:	80 91 d9 01 	lds	r24, 0x01D9
     4d4:	86 2b       	or	r24, r22
     4d6:	80 93 d9 01 	sts	0x01D9, r24
     4da:	80 91 e1 01 	lds	r24, 0x01E1
     4de:	86 2b       	or	r24, r22
     4e0:	80 93 e1 01 	sts	0x01E1, r24
     4e4:	80 91 e2 01 	lds	r24, 0x01E2
     4e8:	86 2b       	or	r24, r22
     4ea:	80 93 e2 01 	sts	0x01E2, r24
     4ee:	80 91 e3 01 	lds	r24, 0x01E3
     4f2:	86 2b       	or	r24, r22
     4f4:	80 93 e3 01 	sts	0x01E3, r24
     4f8:	80 91 e4 01 	lds	r24, 0x01E4
     4fc:	86 2b       	or	r24, r22
     4fe:	80 93 e4 01 	sts	0x01E4, r24
     502:	2a c6       	rjmp	.+3156   	; 0x1158 <cube_char+0xf3a>
     504:	80 91 b2 01 	lds	r24, 0x01B2
     508:	86 2b       	or	r24, r22
     50a:	80 93 b2 01 	sts	0x01B2, r24
     50e:	80 91 b3 01 	lds	r24, 0x01B3
     512:	86 2b       	or	r24, r22
     514:	80 93 b3 01 	sts	0x01B3, r24
     518:	80 91 b4 01 	lds	r24, 0x01B4
     51c:	86 2b       	or	r24, r22
     51e:	80 93 b4 01 	sts	0x01B4, r24
     522:	80 91 b9 01 	lds	r24, 0x01B9
     526:	86 2b       	or	r24, r22
     528:	80 93 b9 01 	sts	0x01B9, r24
     52c:	80 91 bd 01 	lds	r24, 0x01BD
     530:	86 2b       	or	r24, r22
     532:	80 93 bd 01 	sts	0x01BD, r24
     536:	80 91 c1 01 	lds	r24, 0x01C1
     53a:	86 2b       	or	r24, r22
     53c:	80 93 c1 01 	sts	0x01C1, r24
     540:	80 91 c5 01 	lds	r24, 0x01C5
     544:	86 2b       	or	r24, r22
     546:	80 93 c5 01 	sts	0x01C5, r24
     54a:	80 91 c9 01 	lds	r24, 0x01C9
     54e:	86 2b       	or	r24, r22
     550:	80 93 c9 01 	sts	0x01C9, r24
     554:	80 91 ca 01 	lds	r24, 0x01CA
     558:	86 2b       	or	r24, r22
     55a:	80 93 ca 01 	sts	0x01CA, r24
     55e:	80 91 cb 01 	lds	r24, 0x01CB
     562:	86 2b       	or	r24, r22
     564:	80 93 cb 01 	sts	0x01CB, r24
     568:	80 91 cc 01 	lds	r24, 0x01CC
     56c:	86 2b       	or	r24, r22
     56e:	80 93 cc 01 	sts	0x01CC, r24
     572:	80 91 d1 01 	lds	r24, 0x01D1
     576:	86 2b       	or	r24, r22
     578:	80 93 d1 01 	sts	0x01D1, r24
     57c:	80 91 da 01 	lds	r24, 0x01DA
     580:	86 2b       	or	r24, r22
     582:	80 93 da 01 	sts	0x01DA, r24
     586:	b5 c4       	rjmp	.+2410   	; 0xef2 <cube_char+0xcd4>
     588:	80 91 b2 01 	lds	r24, 0x01B2
     58c:	86 2b       	or	r24, r22
     58e:	80 93 b2 01 	sts	0x01B2, r24
     592:	80 91 ba 01 	lds	r24, 0x01BA
     596:	86 2b       	or	r24, r22
     598:	80 93 ba 01 	sts	0x01BA, r24
     59c:	80 91 c2 01 	lds	r24, 0x01C2
     5a0:	86 2b       	or	r24, r22
     5a2:	80 93 c2 01 	sts	0x01C2, r24
     5a6:	80 91 cb 01 	lds	r24, 0x01CB
     5aa:	86 2b       	or	r24, r22
     5ac:	80 93 cb 01 	sts	0x01CB, r24
     5b0:	80 91 d4 01 	lds	r24, 0x01D4
     5b4:	86 2b       	or	r24, r22
     5b6:	80 93 d4 01 	sts	0x01D4, r24
     5ba:	80 91 dd 01 	lds	r24, 0x01DD
     5be:	86 2b       	or	r24, r22
     5c0:	80 93 dd 01 	sts	0x01DD, r24
     5c4:	8a cf       	rjmp	.-236    	; 0x4da <cube_char+0x2bc>
     5c6:	80 91 b2 01 	lds	r24, 0x01B2
     5ca:	86 2b       	or	r24, r22
     5cc:	80 93 b2 01 	sts	0x01B2, r24
     5d0:	80 91 b3 01 	lds	r24, 0x01B3
     5d4:	86 2b       	or	r24, r22
     5d6:	80 93 b3 01 	sts	0x01B3, r24
     5da:	80 91 b4 01 	lds	r24, 0x01B4
     5de:	86 2b       	or	r24, r22
     5e0:	80 93 b4 01 	sts	0x01B4, r24
     5e4:	80 91 b9 01 	lds	r24, 0x01B9
     5e8:	86 2b       	or	r24, r22
     5ea:	80 93 b9 01 	sts	0x01B9, r24
     5ee:	80 91 bd 01 	lds	r24, 0x01BD
     5f2:	86 2b       	or	r24, r22
     5f4:	80 93 bd 01 	sts	0x01BD, r24
     5f8:	80 91 c1 01 	lds	r24, 0x01C1
     5fc:	86 2b       	or	r24, r22
     5fe:	80 93 c1 01 	sts	0x01C1, r24
     602:	80 91 c5 01 	lds	r24, 0x01C5
     606:	86 2b       	or	r24, r22
     608:	80 93 c5 01 	sts	0x01C5, r24
     60c:	80 91 ca 01 	lds	r24, 0x01CA
     610:	86 2b       	or	r24, r22
     612:	80 93 ca 01 	sts	0x01CA, r24
     616:	80 91 cb 01 	lds	r24, 0x01CB
     61a:	86 2b       	or	r24, r22
     61c:	80 93 cb 01 	sts	0x01CB, r24
     620:	80 91 cc 01 	lds	r24, 0x01CC
     624:	86 2b       	or	r24, r22
     626:	80 93 cc 01 	sts	0x01CC, r24
     62a:	0d c4       	rjmp	.+2074   	; 0xe46 <cube_char+0xc28>
     62c:	80 91 b2 01 	lds	r24, 0x01B2
     630:	86 2b       	or	r24, r22
     632:	80 93 b2 01 	sts	0x01B2, r24
     636:	80 91 b3 01 	lds	r24, 0x01B3
     63a:	86 2b       	or	r24, r22
     63c:	80 93 b3 01 	sts	0x01B3, r24
     640:	80 91 bc 01 	lds	r24, 0x01BC
     644:	86 2b       	or	r24, r22
     646:	80 93 bc 01 	sts	0x01BC, r24
     64a:	80 91 c5 01 	lds	r24, 0x01C5
     64e:	86 2b       	or	r24, r22
     650:	80 93 c5 01 	sts	0x01C5, r24
     654:	80 91 ca 01 	lds	r24, 0x01CA
     658:	86 2b       	or	r24, r22
     65a:	80 93 ca 01 	sts	0x01CA, r24
     65e:	80 91 cb 01 	lds	r24, 0x01CB
     662:	86 2b       	or	r24, r22
     664:	80 93 cb 01 	sts	0x01CB, r24
     668:	80 91 cc 01 	lds	r24, 0x01CC
     66c:	86 2b       	or	r24, r22
     66e:	80 93 cc 01 	sts	0x01CC, r24
     672:	e4 c3       	rjmp	.+1992   	; 0xe3c <cube_char+0xc1e>
     674:	80 91 b3 01 	lds	r24, 0x01B3
     678:	86 2b       	or	r24, r22
     67a:	80 93 b3 01 	sts	0x01B3, r24
     67e:	80 91 cb 01 	lds	r24, 0x01CB
     682:	86 2b       	or	r24, r22
     684:	80 93 cb 01 	sts	0x01CB, r24
     688:	80 91 d3 01 	lds	r24, 0x01D3
     68c:	86 2b       	or	r24, r22
     68e:	80 93 d3 01 	sts	0x01D3, r24
     692:	80 91 da 01 	lds	r24, 0x01DA
     696:	86 2b       	or	r24, r22
     698:	80 93 da 01 	sts	0x01DA, r24
     69c:	80 91 db 01 	lds	r24, 0x01DB
     6a0:	86 2b       	or	r24, r22
     6a2:	80 93 db 01 	sts	0x01DB, r24
     6a6:	80 91 dc 01 	lds	r24, 0x01DC
     6aa:	86 2b       	or	r24, r22
     6ac:	80 93 dc 01 	sts	0x01DC, r24
     6b0:	14 cf       	rjmp	.-472    	; 0x4da <cube_char+0x2bc>
     6b2:	80 91 ba 01 	lds	r24, 0x01BA
     6b6:	86 2b       	or	r24, r22
     6b8:	80 93 ba 01 	sts	0x01BA, r24
     6bc:	80 91 bb 01 	lds	r24, 0x01BB
     6c0:	86 2b       	or	r24, r22
     6c2:	80 93 bb 01 	sts	0x01BB, r24
     6c6:	80 91 c2 01 	lds	r24, 0x01C2
     6ca:	86 2b       	or	r24, r22
     6cc:	80 93 c2 01 	sts	0x01C2, r24
     6d0:	80 91 c3 01 	lds	r24, 0x01C3
     6d4:	86 2b       	or	r24, r22
     6d6:	80 93 c3 01 	sts	0x01C3, r24
     6da:	80 91 d2 01 	lds	r24, 0x01D2
     6de:	86 2b       	or	r24, r22
     6e0:	80 93 d2 01 	sts	0x01D2, r24
     6e4:	80 91 d3 01 	lds	r24, 0x01D3
     6e8:	86 2b       	or	r24, r22
     6ea:	80 93 d3 01 	sts	0x01D3, r24
     6ee:	80 91 da 01 	lds	r24, 0x01DA
     6f2:	86 2b       	or	r24, r22
     6f4:	80 93 da 01 	sts	0x01DA, r24
     6f8:	80 91 db 01 	lds	r24, 0x01DB
     6fc:	86 2b       	or	r24, r22
     6fe:	80 93 db 01 	sts	0x01DB, r24
     702:	08 95       	ret
     704:	80 91 ba 01 	lds	r24, 0x01BA
     708:	86 2b       	or	r24, r22
     70a:	80 93 ba 01 	sts	0x01BA, r24
     70e:	80 91 bb 01 	lds	r24, 0x01BB
     712:	86 2b       	or	r24, r22
     714:	80 93 bb 01 	sts	0x01BB, r24
     718:	80 91 c2 01 	lds	r24, 0x01C2
     71c:	86 2b       	or	r24, r22
     71e:	80 93 c2 01 	sts	0x01C2, r24
     722:	80 91 c3 01 	lds	r24, 0x01C3
     726:	86 2b       	or	r24, r22
     728:	80 93 c3 01 	sts	0x01C3, r24
     72c:	08 95       	ret
     72e:	80 91 b3 01 	lds	r24, 0x01B3
     732:	86 2b       	or	r24, r22
     734:	80 93 b3 01 	sts	0x01B3, r24
     738:	0f ce       	rjmp	.-994    	; 0x358 <cube_char+0x13a>
     73a:	80 91 b2 01 	lds	r24, 0x01B2
     73e:	86 2b       	or	r24, r22
     740:	80 93 b2 01 	sts	0x01B2, r24
     744:	80 91 b3 01 	lds	r24, 0x01B3
     748:	86 2b       	or	r24, r22
     74a:	80 93 b3 01 	sts	0x01B3, r24
     74e:	80 91 b5 01 	lds	r24, 0x01B5
     752:	86 2b       	or	r24, r22
     754:	80 93 b5 01 	sts	0x01B5, r24
     758:	80 91 b9 01 	lds	r24, 0x01B9
     75c:	86 2b       	or	r24, r22
     75e:	80 93 b9 01 	sts	0x01B9, r24
     762:	80 91 bc 01 	lds	r24, 0x01BC
     766:	86 2b       	or	r24, r22
     768:	80 93 bc 01 	sts	0x01BC, r24
     76c:	80 91 c1 01 	lds	r24, 0x01C1
     770:	86 2b       	or	r24, r22
     772:	80 93 c1 01 	sts	0x01C1, r24
     776:	80 91 c3 01 	lds	r24, 0x01C3
     77a:	86 2b       	or	r24, r22
     77c:	80 93 c3 01 	sts	0x01C3, r24
     780:	80 91 c5 01 	lds	r24, 0x01C5
     784:	86 2b       	or	r24, r22
     786:	80 93 c5 01 	sts	0x01C5, r24
     78a:	80 91 ca 01 	lds	r24, 0x01CA
     78e:	86 2b       	or	r24, r22
     790:	80 93 ca 01 	sts	0x01CA, r24
     794:	80 91 d1 01 	lds	r24, 0x01D1
     798:	86 2b       	or	r24, r22
     79a:	80 93 d1 01 	sts	0x01D1, r24
     79e:	80 91 d3 01 	lds	r24, 0x01D3
     7a2:	86 2b       	or	r24, r22
     7a4:	80 93 d3 01 	sts	0x01D3, r24
     7a8:	80 91 d9 01 	lds	r24, 0x01D9
     7ac:	86 2b       	or	r24, r22
     7ae:	80 93 d9 01 	sts	0x01D9, r24
     7b2:	80 91 dc 01 	lds	r24, 0x01DC
     7b6:	86 2b       	or	r24, r22
     7b8:	80 93 dc 01 	sts	0x01DC, r24
     7bc:	d0 c0       	rjmp	.+416    	; 0x95e <cube_char+0x740>
     7be:	80 91 b1 01 	lds	r24, 0x01B1
     7c2:	86 2b       	or	r24, r22
     7c4:	80 93 b1 01 	sts	0x01B1, r24
     7c8:	80 91 b5 01 	lds	r24, 0x01B5
     7cc:	86 2b       	or	r24, r22
     7ce:	80 93 b5 01 	sts	0x01B5, r24
     7d2:	80 91 b9 01 	lds	r24, 0x01B9
     7d6:	86 2b       	or	r24, r22
     7d8:	80 93 b9 01 	sts	0x01B9, r24
     7dc:	80 91 bd 01 	lds	r24, 0x01BD
     7e0:	86 2b       	or	r24, r22
     7e2:	80 93 bd 01 	sts	0x01BD, r24
     7e6:	80 91 c1 01 	lds	r24, 0x01C1
     7ea:	86 2b       	or	r24, r22
     7ec:	80 93 c1 01 	sts	0x01C1, r24
     7f0:	80 91 c2 01 	lds	r24, 0x01C2
     7f4:	86 2b       	or	r24, r22
     7f6:	80 93 c2 01 	sts	0x01C2, r24
     7fa:	80 91 c3 01 	lds	r24, 0x01C3
     7fe:	86 2b       	or	r24, r22
     800:	80 93 c3 01 	sts	0x01C3, r24
     804:	80 91 c4 01 	lds	r24, 0x01C4
     808:	86 2b       	or	r24, r22
     80a:	80 93 c4 01 	sts	0x01C4, r24
     80e:	0c c3       	rjmp	.+1560   	; 0xe28 <cube_char+0xc0a>
     810:	80 91 b1 01 	lds	r24, 0x01B1
     814:	86 2b       	or	r24, r22
     816:	80 93 b1 01 	sts	0x01B1, r24
     81a:	80 91 b2 01 	lds	r24, 0x01B2
     81e:	86 2b       	or	r24, r22
     820:	80 93 b2 01 	sts	0x01B2, r24
     824:	80 91 b3 01 	lds	r24, 0x01B3
     828:	86 2b       	or	r24, r22
     82a:	80 93 b3 01 	sts	0x01B3, r24
     82e:	80 91 b4 01 	lds	r24, 0x01B4
     832:	86 2b       	or	r24, r22
     834:	80 93 b4 01 	sts	0x01B4, r24
     838:	80 91 b9 01 	lds	r24, 0x01B9
     83c:	86 2b       	or	r24, r22
     83e:	80 93 b9 01 	sts	0x01B9, r24
     842:	80 91 bd 01 	lds	r24, 0x01BD
     846:	86 2b       	or	r24, r22
     848:	80 93 bd 01 	sts	0x01BD, r24
     84c:	80 91 c1 01 	lds	r24, 0x01C1
     850:	86 2b       	or	r24, r22
     852:	80 93 c1 01 	sts	0x01C1, r24
     856:	80 91 c5 01 	lds	r24, 0x01C5
     85a:	86 2b       	or	r24, r22
     85c:	80 93 c5 01 	sts	0x01C5, r24
     860:	16 c3       	rjmp	.+1580   	; 0xe8e <cube_char+0xc70>
     862:	80 91 b2 01 	lds	r24, 0x01B2
     866:	86 2b       	or	r24, r22
     868:	80 93 b2 01 	sts	0x01B2, r24
     86c:	80 91 b3 01 	lds	r24, 0x01B3
     870:	86 2b       	or	r24, r22
     872:	80 93 b3 01 	sts	0x01B3, r24
     876:	80 91 b4 01 	lds	r24, 0x01B4
     87a:	86 2b       	or	r24, r22
     87c:	80 93 b4 01 	sts	0x01B4, r24
     880:	80 91 bd 01 	lds	r24, 0x01BD
     884:	86 2b       	or	r24, r22
     886:	80 93 bd 01 	sts	0x01BD, r24
     88a:	80 91 b9 01 	lds	r24, 0x01B9
     88e:	86 2b       	or	r24, r22
     890:	80 93 b9 01 	sts	0x01B9, r24
     894:	80 91 c1 01 	lds	r24, 0x01C1
     898:	86 2b       	or	r24, r22
     89a:	80 93 c1 01 	sts	0x01C1, r24
     89e:	80 91 c9 01 	lds	r24, 0x01C9
     8a2:	86 2b       	or	r24, r22
     8a4:	80 93 c9 01 	sts	0x01C9, r24
     8a8:	80 91 d1 01 	lds	r24, 0x01D1
     8ac:	86 2b       	or	r24, r22
     8ae:	80 93 d1 01 	sts	0x01D1, r24
     8b2:	80 91 d9 01 	lds	r24, 0x01D9
     8b6:	86 2b       	or	r24, r22
     8b8:	80 93 d9 01 	sts	0x01D9, r24
     8bc:	80 91 dd 01 	lds	r24, 0x01DD
     8c0:	86 2b       	or	r24, r22
     8c2:	80 93 dd 01 	sts	0x01DD, r24
     8c6:	80 91 d9 01 	lds	r24, 0x01D9
     8ca:	86 2b       	or	r24, r22
     8cc:	80 93 d9 01 	sts	0x01D9, r24
     8d0:	0b c3       	rjmp	.+1558   	; 0xee8 <cube_char+0xcca>
     8d2:	80 91 b1 01 	lds	r24, 0x01B1
     8d6:	86 2b       	or	r24, r22
     8d8:	80 93 b1 01 	sts	0x01B1, r24
     8dc:	80 91 b2 01 	lds	r24, 0x01B2
     8e0:	86 2b       	or	r24, r22
     8e2:	80 93 b2 01 	sts	0x01B2, r24
     8e6:	80 91 b3 01 	lds	r24, 0x01B3
     8ea:	86 2b       	or	r24, r22
     8ec:	80 93 b3 01 	sts	0x01B3, r24
     8f0:	80 91 b9 01 	lds	r24, 0x01B9
     8f4:	86 2b       	or	r24, r22
     8f6:	80 93 b9 01 	sts	0x01B9, r24
     8fa:	80 91 bc 01 	lds	r24, 0x01BC
     8fe:	86 2b       	or	r24, r22
     900:	80 93 bc 01 	sts	0x01BC, r24
     904:	80 91 c1 01 	lds	r24, 0x01C1
     908:	86 2b       	or	r24, r22
     90a:	80 93 c1 01 	sts	0x01C1, r24
     90e:	80 91 c5 01 	lds	r24, 0x01C5
     912:	86 2b       	or	r24, r22
     914:	80 93 c5 01 	sts	0x01C5, r24
     918:	80 91 c9 01 	lds	r24, 0x01C9
     91c:	86 2b       	or	r24, r22
     91e:	80 93 c9 01 	sts	0x01C9, r24
     922:	80 91 cd 01 	lds	r24, 0x01CD
     926:	86 2b       	or	r24, r22
     928:	80 93 cd 01 	sts	0x01CD, r24
     92c:	80 91 d1 01 	lds	r24, 0x01D1
     930:	86 2b       	or	r24, r22
     932:	80 93 d1 01 	sts	0x01D1, r24
     936:	80 91 d5 01 	lds	r24, 0x01D5
     93a:	86 2b       	or	r24, r22
     93c:	80 93 d5 01 	sts	0x01D5, r24
     940:	80 91 d9 01 	lds	r24, 0x01D9
     944:	86 2b       	or	r24, r22
     946:	80 93 d9 01 	sts	0x01D9, r24
     94a:	80 91 dc 01 	lds	r24, 0x01DC
     94e:	86 2b       	or	r24, r22
     950:	80 93 dc 01 	sts	0x01DC, r24
     954:	80 91 e1 01 	lds	r24, 0x01E1
     958:	86 2b       	or	r24, r22
     95a:	80 93 e1 01 	sts	0x01E1, r24
     95e:	80 91 e2 01 	lds	r24, 0x01E2
     962:	86 2b       	or	r24, r22
     964:	80 93 e2 01 	sts	0x01E2, r24
     968:	80 91 e3 01 	lds	r24, 0x01E3
     96c:	86 2b       	or	r24, r22
     96e:	80 93 e3 01 	sts	0x01E3, r24
     972:	08 95       	ret
     974:	80 91 b1 01 	lds	r24, 0x01B1
     978:	86 2b       	or	r24, r22
     97a:	80 93 b1 01 	sts	0x01B1, r24
     97e:	80 91 b2 01 	lds	r24, 0x01B2
     982:	86 2b       	or	r24, r22
     984:	80 93 b2 01 	sts	0x01B2, r24
     988:	80 91 b3 01 	lds	r24, 0x01B3
     98c:	86 2b       	or	r24, r22
     98e:	80 93 b3 01 	sts	0x01B3, r24
     992:	80 91 b4 01 	lds	r24, 0x01B4
     996:	86 2b       	or	r24, r22
     998:	80 93 b4 01 	sts	0x01B4, r24
     99c:	80 91 b5 01 	lds	r24, 0x01B5
     9a0:	86 2b       	or	r24, r22
     9a2:	80 93 b5 01 	sts	0x01B5, r24
     9a6:	05 c0       	rjmp	.+10     	; 0x9b2 <cube_char+0x794>
     9a8:	80 91 b1 01 	lds	r24, 0x01B1
     9ac:	86 2b       	or	r24, r22
     9ae:	80 93 b1 01 	sts	0x01B1, r24
     9b2:	80 91 b9 01 	lds	r24, 0x01B9
     9b6:	86 2b       	or	r24, r22
     9b8:	80 93 b9 01 	sts	0x01B9, r24
     9bc:	80 91 c1 01 	lds	r24, 0x01C1
     9c0:	86 2b       	or	r24, r22
     9c2:	80 93 c1 01 	sts	0x01C1, r24
     9c6:	80 91 c9 01 	lds	r24, 0x01C9
     9ca:	86 2b       	or	r24, r22
     9cc:	80 93 c9 01 	sts	0x01C9, r24
     9d0:	80 91 ca 01 	lds	r24, 0x01CA
     9d4:	86 2b       	or	r24, r22
     9d6:	80 93 ca 01 	sts	0x01CA, r24
     9da:	80 91 cb 01 	lds	r24, 0x01CB
     9de:	86 2b       	or	r24, r22
     9e0:	80 93 cb 01 	sts	0x01CB, r24
     9e4:	80 91 cc 01 	lds	r24, 0x01CC
     9e8:	86 2b       	or	r24, r22
     9ea:	80 93 cc 01 	sts	0x01CC, r24
     9ee:	80 91 d1 01 	lds	r24, 0x01D1
     9f2:	86 2b       	or	r24, r22
     9f4:	80 93 d1 01 	sts	0x01D1, r24
     9f8:	6b cd       	rjmp	.-1322   	; 0x4d0 <cube_char+0x2b2>
     9fa:	80 91 b2 01 	lds	r24, 0x01B2
     9fe:	86 2b       	or	r24, r22
     a00:	80 93 b2 01 	sts	0x01B2, r24
     a04:	80 91 b3 01 	lds	r24, 0x01B3
     a08:	86 2b       	or	r24, r22
     a0a:	80 93 b3 01 	sts	0x01B3, r24
     a0e:	80 91 b4 01 	lds	r24, 0x01B4
     a12:	86 2b       	or	r24, r22
     a14:	80 93 b4 01 	sts	0x01B4, r24
     a18:	80 91 b5 01 	lds	r24, 0x01B5
     a1c:	86 2b       	or	r24, r22
     a1e:	80 93 b5 01 	sts	0x01B5, r24
     a22:	80 91 b9 01 	lds	r24, 0x01B9
     a26:	86 2b       	or	r24, r22
     a28:	80 93 b9 01 	sts	0x01B9, r24
     a2c:	80 91 bd 01 	lds	r24, 0x01BD
     a30:	86 2b       	or	r24, r22
     a32:	80 93 bd 01 	sts	0x01BD, r24
     a36:	80 91 c1 01 	lds	r24, 0x01C1
     a3a:	86 2b       	or	r24, r22
     a3c:	80 93 c1 01 	sts	0x01C1, r24
     a40:	80 91 c5 01 	lds	r24, 0x01C5
     a44:	86 2b       	or	r24, r22
     a46:	80 93 c5 01 	sts	0x01C5, r24
     a4a:	80 91 c9 01 	lds	r24, 0x01C9
     a4e:	86 2b       	or	r24, r22
     a50:	80 93 c9 01 	sts	0x01C9, r24
     a54:	80 91 cb 01 	lds	r24, 0x01CB
     a58:	86 2b       	or	r24, r22
     a5a:	80 93 cb 01 	sts	0x01CB, r24
     a5e:	80 91 cc 01 	lds	r24, 0x01CC
     a62:	86 2b       	or	r24, r22
     a64:	80 93 cc 01 	sts	0x01CC, r24
     a68:	80 91 cd 01 	lds	r24, 0x01CD
     a6c:	86 2b       	or	r24, r22
     a6e:	80 93 cd 01 	sts	0x01CD, r24
     a72:	80 91 d1 01 	lds	r24, 0x01D1
     a76:	86 2b       	or	r24, r22
     a78:	80 93 d1 01 	sts	0x01D1, r24
     a7c:	7c cc       	rjmp	.-1800   	; 0x376 <cube_char+0x158>
     a7e:	80 91 b1 01 	lds	r24, 0x01B1
     a82:	86 2b       	or	r24, r22
     a84:	80 93 b1 01 	sts	0x01B1, r24
     a88:	80 91 b5 01 	lds	r24, 0x01B5
     a8c:	86 2b       	or	r24, r22
     a8e:	80 93 b5 01 	sts	0x01B5, r24
     a92:	80 91 b9 01 	lds	r24, 0x01B9
     a96:	86 2b       	or	r24, r22
     a98:	80 93 b9 01 	sts	0x01B9, r24
     a9c:	80 91 bd 01 	lds	r24, 0x01BD
     aa0:	86 2b       	or	r24, r22
     aa2:	80 93 bd 01 	sts	0x01BD, r24
     aa6:	80 91 c1 01 	lds	r24, 0x01C1
     aaa:	86 2b       	or	r24, r22
     aac:	80 93 c1 01 	sts	0x01C1, r24
     ab0:	80 91 c5 01 	lds	r24, 0x01C5
     ab4:	86 2b       	or	r24, r22
     ab6:	80 93 c5 01 	sts	0x01C5, r24
     aba:	80 91 c9 01 	lds	r24, 0x01C9
     abe:	86 2b       	or	r24, r22
     ac0:	80 93 c9 01 	sts	0x01C9, r24
     ac4:	80 91 ca 01 	lds	r24, 0x01CA
     ac8:	86 2b       	or	r24, r22
     aca:	80 93 ca 01 	sts	0x01CA, r24
     ace:	80 91 cb 01 	lds	r24, 0x01CB
     ad2:	86 2b       	or	r24, r22
     ad4:	80 93 cb 01 	sts	0x01CB, r24
     ad8:	80 91 cc 01 	lds	r24, 0x01CC
     adc:	86 2b       	or	r24, r22
     ade:	80 93 cc 01 	sts	0x01CC, r24
     ae2:	91 c2       	rjmp	.+1314   	; 0x1006 <cube_char+0xde8>
     ae4:	80 91 b2 01 	lds	r24, 0x01B2
     ae8:	86 2b       	or	r24, r22
     aea:	80 93 b2 01 	sts	0x01B2, r24
     aee:	80 91 b3 01 	lds	r24, 0x01B3
     af2:	86 2b       	or	r24, r22
     af4:	80 93 b3 01 	sts	0x01B3, r24
     af8:	80 91 b4 01 	lds	r24, 0x01B4
     afc:	86 2b       	or	r24, r22
     afe:	80 93 b4 01 	sts	0x01B4, r24
     b02:	80 91 bb 01 	lds	r24, 0x01BB
     b06:	86 2b       	or	r24, r22
     b08:	80 93 bb 01 	sts	0x01BB, r24
     b0c:	80 91 c3 01 	lds	r24, 0x01C3
     b10:	86 2b       	or	r24, r22
     b12:	80 93 c3 01 	sts	0x01C3, r24
     b16:	80 91 cb 01 	lds	r24, 0x01CB
     b1a:	86 2b       	or	r24, r22
     b1c:	80 93 cb 01 	sts	0x01CB, r24
     b20:	80 91 d3 01 	lds	r24, 0x01D3
     b24:	86 2b       	or	r24, r22
     b26:	80 93 d3 01 	sts	0x01D3, r24
     b2a:	80 91 db 01 	lds	r24, 0x01DB
     b2e:	86 2b       	or	r24, r22
     b30:	80 93 db 01 	sts	0x01DB, r24
     b34:	d9 c1       	rjmp	.+946    	; 0xee8 <cube_char+0xcca>
     b36:	80 91 b2 01 	lds	r24, 0x01B2
     b3a:	86 2b       	or	r24, r22
     b3c:	80 93 b2 01 	sts	0x01B2, r24
     b40:	80 91 b3 01 	lds	r24, 0x01B3
     b44:	86 2b       	or	r24, r22
     b46:	80 93 b3 01 	sts	0x01B3, r24
     b4a:	80 91 b9 01 	lds	r24, 0x01B9
     b4e:	86 2b       	or	r24, r22
     b50:	80 93 b9 01 	sts	0x01B9, r24
     b54:	80 91 bc 01 	lds	r24, 0x01BC
     b58:	86 2b       	or	r24, r22
     b5a:	80 93 bc 01 	sts	0x01BC, r24
     b5e:	80 91 c4 01 	lds	r24, 0x01C4
     b62:	86 2b       	or	r24, r22
     b64:	80 93 c4 01 	sts	0x01C4, r24
     b68:	80 91 cc 01 	lds	r24, 0x01CC
     b6c:	86 2b       	or	r24, r22
     b6e:	80 93 cc 01 	sts	0x01CC, r24
     b72:	80 91 d4 01 	lds	r24, 0x01D4
     b76:	86 2b       	or	r24, r22
     b78:	80 93 d4 01 	sts	0x01D4, r24
     b7c:	80 91 dc 01 	lds	r24, 0x01DC
     b80:	86 2b       	or	r24, r22
     b82:	80 93 dc 01 	sts	0x01DC, r24
     b86:	b3 cc       	rjmp	.-1690   	; 0x4ee <cube_char+0x2d0>
     b88:	80 91 b1 01 	lds	r24, 0x01B1
     b8c:	86 2b       	or	r24, r22
     b8e:	80 93 b1 01 	sts	0x01B1, r24
     b92:	80 91 b5 01 	lds	r24, 0x01B5
     b96:	86 2b       	or	r24, r22
     b98:	80 93 b5 01 	sts	0x01B5, r24
     b9c:	80 91 b9 01 	lds	r24, 0x01B9
     ba0:	86 2b       	or	r24, r22
     ba2:	80 93 b9 01 	sts	0x01B9, r24
     ba6:	80 91 bc 01 	lds	r24, 0x01BC
     baa:	86 2b       	or	r24, r22
     bac:	80 93 bc 01 	sts	0x01BC, r24
     bb0:	80 91 c1 01 	lds	r24, 0x01C1
     bb4:	86 2b       	or	r24, r22
     bb6:	80 93 c1 01 	sts	0x01C1, r24
     bba:	80 91 c3 01 	lds	r24, 0x01C3
     bbe:	86 2b       	or	r24, r22
     bc0:	80 93 c3 01 	sts	0x01C3, r24
     bc4:	80 91 c9 01 	lds	r24, 0x01C9
     bc8:	86 2b       	or	r24, r22
     bca:	80 93 c9 01 	sts	0x01C9, r24
     bce:	80 91 ca 01 	lds	r24, 0x01CA
     bd2:	86 2b       	or	r24, r22
     bd4:	80 93 ca 01 	sts	0x01CA, r24
     bd8:	80 91 d1 01 	lds	r24, 0x01D1
     bdc:	86 2b       	or	r24, r22
     bde:	80 93 d1 01 	sts	0x01D1, r24
     be2:	80 91 d3 01 	lds	r24, 0x01D3
     be6:	86 2b       	or	r24, r22
     be8:	80 93 d3 01 	sts	0x01D3, r24
     bec:	80 91 d9 01 	lds	r24, 0x01D9
     bf0:	86 2b       	or	r24, r22
     bf2:	80 93 d9 01 	sts	0x01D9, r24
     bf6:	80 91 dc 01 	lds	r24, 0x01DC
     bfa:	86 2b       	or	r24, r22
     bfc:	80 93 dc 01 	sts	0x01DC, r24
     c00:	a6 c2       	rjmp	.+1356   	; 0x114e <cube_char+0xf30>
     c02:	80 91 b1 01 	lds	r24, 0x01B1
     c06:	86 2b       	or	r24, r22
     c08:	80 93 b1 01 	sts	0x01B1, r24
     c0c:	80 91 b2 01 	lds	r24, 0x01B2
     c10:	86 2b       	or	r24, r22
     c12:	80 93 b2 01 	sts	0x01B2, r24
     c16:	80 91 b3 01 	lds	r24, 0x01B3
     c1a:	86 2b       	or	r24, r22
     c1c:	80 93 b3 01 	sts	0x01B3, r24
     c20:	80 91 b4 01 	lds	r24, 0x01B4
     c24:	86 2b       	or	r24, r22
     c26:	80 93 b4 01 	sts	0x01B4, r24
     c2a:	80 91 b5 01 	lds	r24, 0x01B5
     c2e:	86 2b       	or	r24, r22
     c30:	80 93 b5 01 	sts	0x01B5, r24
     c34:	80 91 b9 01 	lds	r24, 0x01B9
     c38:	86 2b       	or	r24, r22
     c3a:	80 93 b9 01 	sts	0x01B9, r24
     c3e:	80 91 c1 01 	lds	r24, 0x01C1
     c42:	86 2b       	or	r24, r22
     c44:	80 93 c1 01 	sts	0x01C1, r24
     c48:	80 91 c9 01 	lds	r24, 0x01C9
     c4c:	86 2b       	or	r24, r22
     c4e:	80 93 c9 01 	sts	0x01C9, r24
     c52:	80 91 d1 01 	lds	r24, 0x01D1
     c56:	86 2b       	or	r24, r22
     c58:	80 93 d1 01 	sts	0x01D1, r24
     c5c:	80 91 d9 01 	lds	r24, 0x01D9
     c60:	86 2b       	or	r24, r22
     c62:	80 93 d9 01 	sts	0x01D9, r24
     c66:	80 91 e1 01 	lds	r24, 0x01E1
     c6a:	86 2b       	or	r24, r22
     c6c:	80 93 e1 01 	sts	0x01E1, r24
     c70:	08 95       	ret
     c72:	80 91 b1 01 	lds	r24, 0x01B1
     c76:	86 2b       	or	r24, r22
     c78:	80 93 b1 01 	sts	0x01B1, r24
     c7c:	80 91 b5 01 	lds	r24, 0x01B5
     c80:	86 2b       	or	r24, r22
     c82:	80 93 b5 01 	sts	0x01B5, r24
     c86:	80 91 b9 01 	lds	r24, 0x01B9
     c8a:	86 2b       	or	r24, r22
     c8c:	80 93 b9 01 	sts	0x01B9, r24
     c90:	80 91 bd 01 	lds	r24, 0x01BD
     c94:	86 2b       	or	r24, r22
     c96:	80 93 bd 01 	sts	0x01BD, r24
     c9a:	80 91 c1 01 	lds	r24, 0x01C1
     c9e:	86 2b       	or	r24, r22
     ca0:	80 93 c1 01 	sts	0x01C1, r24
     ca4:	80 91 c5 01 	lds	r24, 0x01C5
     ca8:	86 2b       	or	r24, r22
     caa:	80 93 c5 01 	sts	0x01C5, r24
     cae:	80 91 c9 01 	lds	r24, 0x01C9
     cb2:	86 2b       	or	r24, r22
     cb4:	80 93 c9 01 	sts	0x01C9, r24
     cb8:	80 91 cb 01 	lds	r24, 0x01CB
     cbc:	86 2b       	or	r24, r22
     cbe:	80 93 cb 01 	sts	0x01CB, r24
     cc2:	80 91 cd 01 	lds	r24, 0x01CD
     cc6:	86 2b       	or	r24, r22
     cc8:	80 93 cd 01 	sts	0x01CD, r24
     ccc:	80 91 d1 01 	lds	r24, 0x01D1
     cd0:	86 2b       	or	r24, r22
     cd2:	80 93 d1 01 	sts	0x01D1, r24
     cd6:	80 91 d3 01 	lds	r24, 0x01D3
     cda:	86 2b       	or	r24, r22
     cdc:	80 93 d3 01 	sts	0x01D3, r24
     ce0:	80 91 d5 01 	lds	r24, 0x01D5
     ce4:	86 2b       	or	r24, r22
     ce6:	80 93 d5 01 	sts	0x01D5, r24
     cea:	80 91 d9 01 	lds	r24, 0x01D9
     cee:	86 2b       	or	r24, r22
     cf0:	80 93 d9 01 	sts	0x01D9, r24
     cf4:	80 91 da 01 	lds	r24, 0x01DA
     cf8:	86 2b       	or	r24, r22
     cfa:	80 93 da 01 	sts	0x01DA, r24
     cfe:	80 91 dc 01 	lds	r24, 0x01DC
     d02:	86 2b       	or	r24, r22
     d04:	80 93 dc 01 	sts	0x01DC, r24
     d08:	1d c2       	rjmp	.+1082   	; 0x1144 <cube_char+0xf26>
     d0a:	80 91 b1 01 	lds	r24, 0x01B1
     d0e:	86 2b       	or	r24, r22
     d10:	80 93 b1 01 	sts	0x01B1, r24
     d14:	80 91 b5 01 	lds	r24, 0x01B5
     d18:	86 2b       	or	r24, r22
     d1a:	80 93 b5 01 	sts	0x01B5, r24
     d1e:	80 91 b9 01 	lds	r24, 0x01B9
     d22:	86 2b       	or	r24, r22
     d24:	80 93 b9 01 	sts	0x01B9, r24
     d28:	80 91 bd 01 	lds	r24, 0x01BD
     d2c:	86 2b       	or	r24, r22
     d2e:	80 93 bd 01 	sts	0x01BD, r24
     d32:	80 91 c1 01 	lds	r24, 0x01C1
     d36:	86 2b       	or	r24, r22
     d38:	80 93 c1 01 	sts	0x01C1, r24
     d3c:	80 91 c4 01 	lds	r24, 0x01C4
     d40:	86 2b       	or	r24, r22
     d42:	80 93 c4 01 	sts	0x01C4, r24
     d46:	80 91 c5 01 	lds	r24, 0x01C5
     d4a:	86 2b       	or	r24, r22
     d4c:	80 93 c5 01 	sts	0x01C5, r24
     d50:	80 91 c9 01 	lds	r24, 0x01C9
     d54:	86 2b       	or	r24, r22
     d56:	80 93 c9 01 	sts	0x01C9, r24
     d5a:	80 91 cb 01 	lds	r24, 0x01CB
     d5e:	86 2b       	or	r24, r22
     d60:	80 93 cb 01 	sts	0x01CB, r24
     d64:	80 91 cd 01 	lds	r24, 0x01CD
     d68:	86 2b       	or	r24, r22
     d6a:	80 93 cd 01 	sts	0x01CD, r24
     d6e:	80 91 d1 01 	lds	r24, 0x01D1
     d72:	86 2b       	or	r24, r22
     d74:	80 93 d1 01 	sts	0x01D1, r24
     d78:	80 91 d2 01 	lds	r24, 0x01D2
     d7c:	86 2b       	or	r24, r22
     d7e:	80 93 d2 01 	sts	0x01D2, r24
     d82:	d6 c1       	rjmp	.+940    	; 0x1130 <cube_char+0xf12>
     d84:	80 91 b2 01 	lds	r24, 0x01B2
     d88:	86 2b       	or	r24, r22
     d8a:	80 93 b2 01 	sts	0x01B2, r24
     d8e:	80 91 b3 01 	lds	r24, 0x01B3
     d92:	86 2b       	or	r24, r22
     d94:	80 93 b3 01 	sts	0x01B3, r24
     d98:	80 91 b4 01 	lds	r24, 0x01B4
     d9c:	86 2b       	or	r24, r22
     d9e:	80 93 b4 01 	sts	0x01B4, r24
     da2:	80 91 b9 01 	lds	r24, 0x01B9
     da6:	86 2b       	or	r24, r22
     da8:	80 93 b9 01 	sts	0x01B9, r24
     dac:	80 91 bd 01 	lds	r24, 0x01BD
     db0:	86 2b       	or	r24, r22
     db2:	80 93 bd 01 	sts	0x01BD, r24
     db6:	80 91 c1 01 	lds	r24, 0x01C1
     dba:	86 2b       	or	r24, r22
     dbc:	80 93 c1 01 	sts	0x01C1, r24
     dc0:	33 c0       	rjmp	.+102    	; 0xe28 <cube_char+0xc0a>
     dc2:	80 91 b1 01 	lds	r24, 0x01B1
     dc6:	86 2b       	or	r24, r22
     dc8:	80 93 b1 01 	sts	0x01B1, r24
     dcc:	80 91 b9 01 	lds	r24, 0x01B9
     dd0:	86 2b       	or	r24, r22
     dd2:	80 93 b9 01 	sts	0x01B9, r24
     dd6:	80 91 c1 01 	lds	r24, 0x01C1
     dda:	86 2b       	or	r24, r22
     ddc:	80 93 c1 01 	sts	0x01C1, r24
     de0:	56 c0       	rjmp	.+172    	; 0xe8e <cube_char+0xc70>
     de2:	80 91 b2 01 	lds	r24, 0x01B2
     de6:	86 2b       	or	r24, r22
     de8:	80 93 b2 01 	sts	0x01B2, r24
     dec:	80 91 b3 01 	lds	r24, 0x01B3
     df0:	86 2b       	or	r24, r22
     df2:	80 93 b3 01 	sts	0x01B3, r24
     df6:	80 91 b5 01 	lds	r24, 0x01B5
     dfa:	86 2b       	or	r24, r22
     dfc:	80 93 b5 01 	sts	0x01B5, r24
     e00:	80 91 b9 01 	lds	r24, 0x01B9
     e04:	86 2b       	or	r24, r22
     e06:	80 93 b9 01 	sts	0x01B9, r24
     e0a:	80 91 bc 01 	lds	r24, 0x01BC
     e0e:	86 2b       	or	r24, r22
     e10:	80 93 bc 01 	sts	0x01BC, r24
     e14:	80 91 c1 01 	lds	r24, 0x01C1
     e18:	86 2b       	or	r24, r22
     e1a:	80 93 c1 01 	sts	0x01C1, r24
     e1e:	80 91 c3 01 	lds	r24, 0x01C3
     e22:	86 2b       	or	r24, r22
     e24:	80 93 c3 01 	sts	0x01C3, r24
     e28:	80 91 c5 01 	lds	r24, 0x01C5
     e2c:	86 2b       	or	r24, r22
     e2e:	80 93 c5 01 	sts	0x01C5, r24
     e32:	80 91 c9 01 	lds	r24, 0x01C9
     e36:	86 2b       	or	r24, r22
     e38:	80 93 c9 01 	sts	0x01C9, r24
     e3c:	80 91 cd 01 	lds	r24, 0x01CD
     e40:	86 2b       	or	r24, r22
     e42:	80 93 cd 01 	sts	0x01CD, r24
     e46:	80 91 d1 01 	lds	r24, 0x01D1
     e4a:	86 2b       	or	r24, r22
     e4c:	80 93 d1 01 	sts	0x01D1, r24
     e50:	8d ca       	rjmp	.-2790   	; 0x36c <cube_char+0x14e>
     e52:	80 91 b1 01 	lds	r24, 0x01B1
     e56:	86 2b       	or	r24, r22
     e58:	80 93 b1 01 	sts	0x01B1, r24
     e5c:	80 91 b5 01 	lds	r24, 0x01B5
     e60:	86 2b       	or	r24, r22
     e62:	80 93 b5 01 	sts	0x01B5, r24
     e66:	80 91 b9 01 	lds	r24, 0x01B9
     e6a:	86 2b       	or	r24, r22
     e6c:	80 93 b9 01 	sts	0x01B9, r24
     e70:	80 91 bc 01 	lds	r24, 0x01BC
     e74:	86 2b       	or	r24, r22
     e76:	80 93 bc 01 	sts	0x01BC, r24
     e7a:	80 91 c1 01 	lds	r24, 0x01C1
     e7e:	86 2b       	or	r24, r22
     e80:	80 93 c1 01 	sts	0x01C1, r24
     e84:	80 91 c3 01 	lds	r24, 0x01C3
     e88:	86 2b       	or	r24, r22
     e8a:	80 93 c3 01 	sts	0x01C3, r24
     e8e:	80 91 c9 01 	lds	r24, 0x01C9
     e92:	86 2b       	or	r24, r22
     e94:	80 93 c9 01 	sts	0x01C9, r24
     e98:	80 91 ca 01 	lds	r24, 0x01CA
     e9c:	86 2b       	or	r24, r22
     e9e:	80 93 ca 01 	sts	0x01CA, r24
     ea2:	80 91 cb 01 	lds	r24, 0x01CB
     ea6:	86 2b       	or	r24, r22
     ea8:	80 93 cb 01 	sts	0x01CB, r24
     eac:	80 91 cc 01 	lds	r24, 0x01CC
     eb0:	86 2b       	or	r24, r22
     eb2:	80 93 cc 01 	sts	0x01CC, r24
     eb6:	80 91 d1 01 	lds	r24, 0x01D1
     eba:	86 2b       	or	r24, r22
     ebc:	80 93 d1 01 	sts	0x01D1, r24
     ec0:	80 91 d5 01 	lds	r24, 0x01D5
     ec4:	86 2b       	or	r24, r22
     ec6:	80 93 d5 01 	sts	0x01D5, r24
     eca:	80 91 d9 01 	lds	r24, 0x01D9
     ece:	86 2b       	or	r24, r22
     ed0:	80 93 d9 01 	sts	0x01D9, r24
     ed4:	80 91 dd 01 	lds	r24, 0x01DD
     ed8:	86 2b       	or	r24, r22
     eda:	80 93 dd 01 	sts	0x01DD, r24
     ede:	80 91 e1 01 	lds	r24, 0x01E1
     ee2:	86 2b       	or	r24, r22
     ee4:	80 93 e1 01 	sts	0x01E1, r24
     ee8:	80 91 e2 01 	lds	r24, 0x01E2
     eec:	86 2b       	or	r24, r22
     eee:	80 93 e2 01 	sts	0x01E2, r24
     ef2:	80 91 e3 01 	lds	r24, 0x01E3
     ef6:	86 2b       	or	r24, r22
     ef8:	80 93 e3 01 	sts	0x01E3, r24
     efc:	80 91 e4 01 	lds	r24, 0x01E4
     f00:	86 2b       	or	r24, r22
     f02:	80 93 e4 01 	sts	0x01E4, r24
     f06:	08 95       	ret
     f08:	80 91 b1 01 	lds	r24, 0x01B1
     f0c:	86 2b       	or	r24, r22
     f0e:	80 93 b1 01 	sts	0x01B1, r24
     f12:	80 91 b2 01 	lds	r24, 0x01B2
     f16:	86 2b       	or	r24, r22
     f18:	80 93 b2 01 	sts	0x01B2, r24
     f1c:	80 91 b3 01 	lds	r24, 0x01B3
     f20:	86 2b       	or	r24, r22
     f22:	80 93 b3 01 	sts	0x01B3, r24
     f26:	80 91 b4 01 	lds	r24, 0x01B4
     f2a:	86 2b       	or	r24, r22
     f2c:	80 93 b4 01 	sts	0x01B4, r24
     f30:	80 91 bd 01 	lds	r24, 0x01BD
     f34:	86 2b       	or	r24, r22
     f36:	80 93 bd 01 	sts	0x01BD, r24
     f3a:	80 91 c5 01 	lds	r24, 0x01C5
     f3e:	86 2b       	or	r24, r22
     f40:	80 93 c5 01 	sts	0x01C5, r24
     f44:	80 91 ca 01 	lds	r24, 0x01CA
     f48:	86 2b       	or	r24, r22
     f4a:	80 93 ca 01 	sts	0x01CA, r24
     f4e:	80 91 cb 01 	lds	r24, 0x01CB
     f52:	86 2b       	or	r24, r22
     f54:	80 93 cb 01 	sts	0x01CB, r24
     f58:	80 91 cc 01 	lds	r24, 0x01CC
     f5c:	86 2b       	or	r24, r22
     f5e:	80 93 cc 01 	sts	0x01CC, r24
     f62:	80 91 d1 01 	lds	r24, 0x01D1
     f66:	86 2b       	or	r24, r22
     f68:	80 93 d1 01 	sts	0x01D1, r24
     f6c:	80 91 d9 01 	lds	r24, 0x01D9
     f70:	86 2b       	or	r24, r22
     f72:	80 93 d9 01 	sts	0x01D9, r24
     f76:	b6 ca       	rjmp	.-2708   	; 0x4e4 <cube_char+0x2c6>
     f78:	80 91 b3 01 	lds	r24, 0x01B3
     f7c:	86 2b       	or	r24, r22
     f7e:	80 93 b3 01 	sts	0x01B3, r24
     f82:	80 91 bb 01 	lds	r24, 0x01BB
     f86:	86 2b       	or	r24, r22
     f88:	80 93 bb 01 	sts	0x01BB, r24
     f8c:	80 91 c3 01 	lds	r24, 0x01C3
     f90:	86 2b       	or	r24, r22
     f92:	80 93 c3 01 	sts	0x01C3, r24
     f96:	80 91 cb 01 	lds	r24, 0x01CB
     f9a:	86 2b       	or	r24, r22
     f9c:	80 93 cb 01 	sts	0x01CB, r24
     fa0:	80 91 d3 01 	lds	r24, 0x01D3
     fa4:	86 2b       	or	r24, r22
     fa6:	80 93 d3 01 	sts	0x01D3, r24
     faa:	80 91 db 01 	lds	r24, 0x01DB
     fae:	86 2b       	or	r24, r22
     fb0:	80 93 db 01 	sts	0x01DB, r24
     fb4:	92 ca       	rjmp	.-2780   	; 0x4da <cube_char+0x2bc>
     fb6:	80 91 b2 01 	lds	r24, 0x01B2
     fba:	86 2b       	or	r24, r22
     fbc:	80 93 b2 01 	sts	0x01B2, r24
     fc0:	80 91 b3 01 	lds	r24, 0x01B3
     fc4:	86 2b       	or	r24, r22
     fc6:	80 93 b3 01 	sts	0x01B3, r24
     fca:	80 91 b4 01 	lds	r24, 0x01B4
     fce:	86 2b       	or	r24, r22
     fd0:	80 93 b4 01 	sts	0x01B4, r24
     fd4:	80 91 b9 01 	lds	r24, 0x01B9
     fd8:	86 2b       	or	r24, r22
     fda:	80 93 b9 01 	sts	0x01B9, r24
     fde:	80 91 bd 01 	lds	r24, 0x01BD
     fe2:	86 2b       	or	r24, r22
     fe4:	80 93 bd 01 	sts	0x01BD, r24
     fe8:	80 91 c1 01 	lds	r24, 0x01C1
     fec:	86 2b       	or	r24, r22
     fee:	80 93 c1 01 	sts	0x01C1, r24
     ff2:	80 91 c5 01 	lds	r24, 0x01C5
     ff6:	86 2b       	or	r24, r22
     ff8:	80 93 c5 01 	sts	0x01C5, r24
     ffc:	80 91 c9 01 	lds	r24, 0x01C9
    1000:	86 2b       	or	r24, r22
    1002:	80 93 c9 01 	sts	0x01C9, r24
    1006:	80 91 cd 01 	lds	r24, 0x01CD
    100a:	86 2b       	or	r24, r22
    100c:	80 93 cd 01 	sts	0x01CD, r24
    1010:	8a c0       	rjmp	.+276    	; 0x1126 <cube_char+0xf08>
    1012:	80 91 b3 01 	lds	r24, 0x01B3
    1016:	86 2b       	or	r24, r22
    1018:	80 93 b3 01 	sts	0x01B3, r24
    101c:	80 91 ba 01 	lds	r24, 0x01BA
    1020:	86 2b       	or	r24, r22
    1022:	80 93 ba 01 	sts	0x01BA, r24
    1026:	80 91 bc 01 	lds	r24, 0x01BC
    102a:	86 2b       	or	r24, r22
    102c:	80 93 bc 01 	sts	0x01BC, r24
    1030:	db cf       	rjmp	.-74     	; 0xfe8 <cube_char+0xdca>
    1032:	80 91 b2 01 	lds	r24, 0x01B2
    1036:	86 2b       	or	r24, r22
    1038:	80 93 b2 01 	sts	0x01B2, r24
    103c:	80 91 b4 01 	lds	r24, 0x01B4
    1040:	86 2b       	or	r24, r22
    1042:	80 93 b4 01 	sts	0x01B4, r24
    1046:	80 91 b9 01 	lds	r24, 0x01B9
    104a:	86 2b       	or	r24, r22
    104c:	80 93 b9 01 	sts	0x01B9, r24
    1050:	80 91 bb 01 	lds	r24, 0x01BB
    1054:	86 2b       	or	r24, r22
    1056:	80 93 bb 01 	sts	0x01BB, r24
    105a:	80 91 bd 01 	lds	r24, 0x01BD
    105e:	86 2b       	or	r24, r22
    1060:	80 93 bd 01 	sts	0x01BD, r24
    1064:	80 91 c1 01 	lds	r24, 0x01C1
    1068:	86 2b       	or	r24, r22
    106a:	80 93 c1 01 	sts	0x01C1, r24
    106e:	80 91 c3 01 	lds	r24, 0x01C3
    1072:	86 2b       	or	r24, r22
    1074:	80 93 c3 01 	sts	0x01C3, r24
    1078:	80 91 c5 01 	lds	r24, 0x01C5
    107c:	86 2b       	or	r24, r22
    107e:	80 93 c5 01 	sts	0x01C5, r24
    1082:	80 91 c9 01 	lds	r24, 0x01C9
    1086:	86 2b       	or	r24, r22
    1088:	80 93 c9 01 	sts	0x01C9, r24
    108c:	80 91 cb 01 	lds	r24, 0x01CB
    1090:	86 2b       	or	r24, r22
    1092:	80 93 cb 01 	sts	0x01CB, r24
    1096:	b7 cf       	rjmp	.-146    	; 0x1006 <cube_char+0xde8>
    1098:	80 91 b1 01 	lds	r24, 0x01B1
    109c:	86 2b       	or	r24, r22
    109e:	80 93 b1 01 	sts	0x01B1, r24
    10a2:	80 91 b5 01 	lds	r24, 0x01B5
    10a6:	86 2b       	or	r24, r22
    10a8:	80 93 b5 01 	sts	0x01B5, r24
    10ac:	80 91 b9 01 	lds	r24, 0x01B9
    10b0:	86 2b       	or	r24, r22
    10b2:	80 93 b9 01 	sts	0x01B9, r24
    10b6:	80 91 bd 01 	lds	r24, 0x01BD
    10ba:	86 2b       	or	r24, r22
    10bc:	80 93 bd 01 	sts	0x01BD, r24
    10c0:	80 91 c2 01 	lds	r24, 0x01C2
    10c4:	86 2b       	or	r24, r22
    10c6:	80 93 c2 01 	sts	0x01C2, r24
    10ca:	80 91 c4 01 	lds	r24, 0x01C4
    10ce:	86 2b       	or	r24, r22
    10d0:	80 93 c4 01 	sts	0x01C4, r24
    10d4:	80 91 cb 01 	lds	r24, 0x01CB
    10d8:	86 2b       	or	r24, r22
    10da:	80 93 cb 01 	sts	0x01CB, r24
    10de:	80 91 d2 01 	lds	r24, 0x01D2
    10e2:	86 2b       	or	r24, r22
    10e4:	80 93 d2 01 	sts	0x01D2, r24
    10e8:	80 91 d4 01 	lds	r24, 0x01D4
    10ec:	86 2b       	or	r24, r22
    10ee:	80 93 d4 01 	sts	0x01D4, r24
    10f2:	23 c0       	rjmp	.+70     	; 0x113a <cube_char+0xf1c>
    10f4:	80 91 b3 01 	lds	r24, 0x01B3
    10f8:	86 2b       	or	r24, r22
    10fa:	80 93 b3 01 	sts	0x01B3, r24
    10fe:	80 91 bb 01 	lds	r24, 0x01BB
    1102:	86 2b       	or	r24, r22
    1104:	80 93 bb 01 	sts	0x01BB, r24
    1108:	80 91 c3 01 	lds	r24, 0x01C3
    110c:	86 2b       	or	r24, r22
    110e:	80 93 c3 01 	sts	0x01C3, r24
    1112:	80 91 ca 01 	lds	r24, 0x01CA
    1116:	86 2b       	or	r24, r22
    1118:	80 93 ca 01 	sts	0x01CA, r24
    111c:	80 91 cc 01 	lds	r24, 0x01CC
    1120:	86 2b       	or	r24, r22
    1122:	80 93 cc 01 	sts	0x01CC, r24
    1126:	80 91 d1 01 	lds	r24, 0x01D1
    112a:	86 2b       	or	r24, r22
    112c:	80 93 d1 01 	sts	0x01D1, r24
    1130:	80 91 d5 01 	lds	r24, 0x01D5
    1134:	86 2b       	or	r24, r22
    1136:	80 93 d5 01 	sts	0x01D5, r24
    113a:	80 91 d9 01 	lds	r24, 0x01D9
    113e:	86 2b       	or	r24, r22
    1140:	80 93 d9 01 	sts	0x01D9, r24
    1144:	80 91 dd 01 	lds	r24, 0x01DD
    1148:	86 2b       	or	r24, r22
    114a:	80 93 dd 01 	sts	0x01DD, r24
    114e:	80 91 e1 01 	lds	r24, 0x01E1
    1152:	86 2b       	or	r24, r22
    1154:	80 93 e1 01 	sts	0x01E1, r24
    1158:	80 91 e5 01 	lds	r24, 0x01E5
    115c:	86 2b       	or	r24, r22
    115e:	80 93 e5 01 	sts	0x01E5, r24
    1162:	08 95       	ret
    1164:	80 91 b1 01 	lds	r24, 0x01B1
    1168:	86 2b       	or	r24, r22
    116a:	80 93 b1 01 	sts	0x01B1, r24
    116e:	80 91 b2 01 	lds	r24, 0x01B2
    1172:	86 2b       	or	r24, r22
    1174:	80 93 b2 01 	sts	0x01B2, r24
    1178:	80 91 b3 01 	lds	r24, 0x01B3
    117c:	86 2b       	or	r24, r22
    117e:	80 93 b3 01 	sts	0x01B3, r24
    1182:	80 91 b4 01 	lds	r24, 0x01B4
    1186:	86 2b       	or	r24, r22
    1188:	80 93 b4 01 	sts	0x01B4, r24
    118c:	80 91 b5 01 	lds	r24, 0x01B5
    1190:	86 2b       	or	r24, r22
    1192:	80 93 b5 01 	sts	0x01B5, r24
    1196:	80 91 b9 01 	lds	r24, 0x01B9
    119a:	86 2b       	or	r24, r22
    119c:	80 93 b9 01 	sts	0x01B9, r24
    11a0:	80 91 c2 01 	lds	r24, 0x01C2
    11a4:	86 2b       	or	r24, r22
    11a6:	80 93 c2 01 	sts	0x01C2, r24
    11aa:	80 91 cb 01 	lds	r24, 0x01CB
    11ae:	86 2b       	or	r24, r22
    11b0:	80 93 cb 01 	sts	0x01CB, r24
    11b4:	80 91 d4 01 	lds	r24, 0x01D4
    11b8:	86 2b       	or	r24, r22
    11ba:	80 93 d4 01 	sts	0x01D4, r24
    11be:	80 91 dd 01 	lds	r24, 0x01DD
    11c2:	86 2b       	or	r24, r22
    11c4:	80 93 dd 01 	sts	0x01DD, r24
    11c8:	80 91 e1 01 	lds	r24, 0x01E1
    11cc:	86 2b       	or	r24, r22
    11ce:	80 93 e1 01 	sts	0x01E1, r24
    11d2:	80 91 e2 01 	lds	r24, 0x01E2
    11d6:	86 2b       	or	r24, r22
    11d8:	80 93 e2 01 	sts	0x01E2, r24
    11dc:	80 91 e3 01 	lds	r24, 0x01E3
    11e0:	86 2b       	or	r24, r22
    11e2:	80 93 e3 01 	sts	0x01E3, r24
    11e6:	80 91 e4 01 	lds	r24, 0x01E4
    11ea:	86 2b       	or	r24, r22
    11ec:	80 93 e4 01 	sts	0x01E4, r24
    11f0:	80 91 e5 01 	lds	r24, 0x01E5
    11f4:	86 2b       	or	r24, r22
    11f6:	80 93 e5 01 	sts	0x01E5, r24
    11fa:	08 95       	ret

000011fc <cube_walking_frame_static0>:
    11fc:	0e 94 9d 3d 	call	0x7b3a	; 0x7b3a <cube_clear>
    1200:	80 91 b0 01 	lds	r24, 0x01B0
    1204:	80 68       	ori	r24, 0x80	; 128
    1206:	80 93 b0 01 	sts	0x01B0, r24
    120a:	80 91 b1 01 	lds	r24, 0x01B1
    120e:	81 68       	ori	r24, 0x81	; 129
    1210:	80 93 b1 01 	sts	0x01B1, r24
    1214:	80 91 b2 01 	lds	r24, 0x01B2
    1218:	81 60       	ori	r24, 0x01	; 1
    121a:	80 93 b2 01 	sts	0x01B2, r24
    121e:	80 91 b3 01 	lds	r24, 0x01B3
    1222:	80 68       	ori	r24, 0x80	; 128
    1224:	80 93 b3 01 	sts	0x01B3, r24
    1228:	80 91 b4 01 	lds	r24, 0x01B4
    122c:	80 68       	ori	r24, 0x80	; 128
    122e:	80 93 b4 01 	sts	0x01B4, r24
    1232:	80 91 b5 01 	lds	r24, 0x01B5
    1236:	81 68       	ori	r24, 0x81	; 129
    1238:	80 93 b5 01 	sts	0x01B5, r24
    123c:	80 91 b6 01 	lds	r24, 0x01B6
    1240:	81 60       	ori	r24, 0x01	; 1
    1242:	80 93 b6 01 	sts	0x01B6, r24
    1246:	80 91 b7 01 	lds	r24, 0x01B7
    124a:	80 68       	ori	r24, 0x80	; 128
    124c:	80 93 b7 01 	sts	0x01B7, r24
    1250:	80 91 b8 01 	lds	r24, 0x01B8
    1254:	80 68       	ori	r24, 0x80	; 128
    1256:	80 93 b8 01 	sts	0x01B8, r24
    125a:	80 91 c0 01 	lds	r24, 0x01C0
    125e:	80 68       	ori	r24, 0x80	; 128
    1260:	80 93 c0 01 	sts	0x01C0, r24
    1264:	80 91 c8 01 	lds	r24, 0x01C8
    1268:	80 68       	ori	r24, 0x80	; 128
    126a:	80 93 c8 01 	sts	0x01C8, r24
    126e:	80 91 d0 01 	lds	r24, 0x01D0
    1272:	80 68       	ori	r24, 0x80	; 128
    1274:	80 93 d0 01 	sts	0x01D0, r24
    1278:	80 91 d8 01 	lds	r24, 0x01D8
    127c:	80 68       	ori	r24, 0x80	; 128
    127e:	80 93 d8 01 	sts	0x01D8, r24
    1282:	80 91 e0 01 	lds	r24, 0x01E0
    1286:	80 68       	ori	r24, 0x80	; 128
    1288:	80 93 e0 01 	sts	0x01E0, r24
    128c:	80 91 e8 01 	lds	r24, 0x01E8
    1290:	80 6c       	ori	r24, 0xC0	; 192
    1292:	80 93 e8 01 	sts	0x01E8, r24
    1296:	80 91 bc 01 	lds	r24, 0x01BC
    129a:	80 68       	ori	r24, 0x80	; 128
    129c:	80 93 bc 01 	sts	0x01BC, r24
    12a0:	80 91 c4 01 	lds	r24, 0x01C4
    12a4:	80 68       	ori	r24, 0x80	; 128
    12a6:	80 93 c4 01 	sts	0x01C4, r24
    12aa:	80 91 cc 01 	lds	r24, 0x01CC
    12ae:	80 68       	ori	r24, 0x80	; 128
    12b0:	80 93 cc 01 	sts	0x01CC, r24
    12b4:	80 91 d4 01 	lds	r24, 0x01D4
    12b8:	80 68       	ori	r24, 0x80	; 128
    12ba:	80 93 d4 01 	sts	0x01D4, r24
    12be:	80 91 dc 01 	lds	r24, 0x01DC
    12c2:	80 68       	ori	r24, 0x80	; 128
    12c4:	80 93 dc 01 	sts	0x01DC, r24
    12c8:	80 91 e4 01 	lds	r24, 0x01E4
    12cc:	80 68       	ori	r24, 0x80	; 128
    12ce:	80 93 e4 01 	sts	0x01E4, r24
    12d2:	80 91 ec 01 	lds	r24, 0x01EC
    12d6:	80 6c       	ori	r24, 0xC0	; 192
    12d8:	80 93 ec 01 	sts	0x01EC, r24
    12dc:	80 91 b9 01 	lds	r24, 0x01B9
    12e0:	81 60       	ori	r24, 0x01	; 1
    12e2:	80 93 b9 01 	sts	0x01B9, r24
    12e6:	80 91 ba 01 	lds	r24, 0x01BA
    12ea:	81 60       	ori	r24, 0x01	; 1
    12ec:	80 93 ba 01 	sts	0x01BA, r24
    12f0:	80 91 bd 01 	lds	r24, 0x01BD
    12f4:	81 60       	ori	r24, 0x01	; 1
    12f6:	80 93 bd 01 	sts	0x01BD, r24
    12fa:	80 91 be 01 	lds	r24, 0x01BE
    12fe:	81 60       	ori	r24, 0x01	; 1
    1300:	80 93 be 01 	sts	0x01BE, r24
    1304:	08 95       	ret

00001306 <cube_walking_frame_static1>:
    1306:	0e 94 9d 3d 	call	0x7b3a	; 0x7b3a <cube_clear>
    130a:	80 91 b0 01 	lds	r24, 0x01B0
    130e:	80 68       	ori	r24, 0x80	; 128
    1310:	80 93 b0 01 	sts	0x01B0, r24
    1314:	80 91 b1 01 	lds	r24, 0x01B1
    1318:	80 68       	ori	r24, 0x80	; 128
    131a:	80 93 b1 01 	sts	0x01B1, r24
    131e:	80 91 b2 01 	lds	r24, 0x01B2
    1322:	81 68       	ori	r24, 0x81	; 129
    1324:	80 93 b2 01 	sts	0x01B2, r24
    1328:	80 91 b3 01 	lds	r24, 0x01B3
    132c:	81 60       	ori	r24, 0x01	; 1
    132e:	80 93 b3 01 	sts	0x01B3, r24
    1332:	80 91 b4 01 	lds	r24, 0x01B4
    1336:	80 68       	ori	r24, 0x80	; 128
    1338:	80 93 b4 01 	sts	0x01B4, r24
    133c:	80 91 b5 01 	lds	r24, 0x01B5
    1340:	80 68       	ori	r24, 0x80	; 128
    1342:	80 93 b5 01 	sts	0x01B5, r24
    1346:	80 91 b6 01 	lds	r24, 0x01B6
    134a:	81 68       	ori	r24, 0x81	; 129
    134c:	80 93 b6 01 	sts	0x01B6, r24
    1350:	80 91 b7 01 	lds	r24, 0x01B7
    1354:	81 60       	ori	r24, 0x01	; 1
    1356:	80 93 b7 01 	sts	0x01B7, r24
    135a:	80 91 b9 01 	lds	r24, 0x01B9
    135e:	80 68       	ori	r24, 0x80	; 128
    1360:	80 93 b9 01 	sts	0x01B9, r24
    1364:	80 91 c1 01 	lds	r24, 0x01C1
    1368:	80 68       	ori	r24, 0x80	; 128
    136a:	80 93 c1 01 	sts	0x01C1, r24
    136e:	80 91 c9 01 	lds	r24, 0x01C9
    1372:	80 68       	ori	r24, 0x80	; 128
    1374:	80 93 c9 01 	sts	0x01C9, r24
    1378:	80 91 d1 01 	lds	r24, 0x01D1
    137c:	80 68       	ori	r24, 0x80	; 128
    137e:	80 93 d1 01 	sts	0x01D1, r24
    1382:	80 91 d9 01 	lds	r24, 0x01D9
    1386:	80 68       	ori	r24, 0x80	; 128
    1388:	80 93 d9 01 	sts	0x01D9, r24
    138c:	80 91 e1 01 	lds	r24, 0x01E1
    1390:	80 68       	ori	r24, 0x80	; 128
    1392:	80 93 e1 01 	sts	0x01E1, r24
    1396:	80 91 e9 01 	lds	r24, 0x01E9
    139a:	80 6c       	ori	r24, 0xC0	; 192
    139c:	80 93 e9 01 	sts	0x01E9, r24
    13a0:	80 91 bd 01 	lds	r24, 0x01BD
    13a4:	80 68       	ori	r24, 0x80	; 128
    13a6:	80 93 bd 01 	sts	0x01BD, r24
    13aa:	80 91 c5 01 	lds	r24, 0x01C5
    13ae:	80 68       	ori	r24, 0x80	; 128
    13b0:	80 93 c5 01 	sts	0x01C5, r24
    13b4:	80 91 cd 01 	lds	r24, 0x01CD
    13b8:	80 68       	ori	r24, 0x80	; 128
    13ba:	80 93 cd 01 	sts	0x01CD, r24
    13be:	80 91 d5 01 	lds	r24, 0x01D5
    13c2:	80 68       	ori	r24, 0x80	; 128
    13c4:	80 93 d5 01 	sts	0x01D5, r24
    13c8:	80 91 dd 01 	lds	r24, 0x01DD
    13cc:	80 68       	ori	r24, 0x80	; 128
    13ce:	80 93 dd 01 	sts	0x01DD, r24
    13d2:	80 91 e5 01 	lds	r24, 0x01E5
    13d6:	80 68       	ori	r24, 0x80	; 128
    13d8:	80 93 e5 01 	sts	0x01E5, r24
    13dc:	ed ee       	ldi	r30, 0xED	; 237
    13de:	f1 e0       	ldi	r31, 0x01	; 1
    13e0:	80 81       	ld	r24, Z
    13e2:	80 6c       	ori	r24, 0xC0	; 192
    13e4:	80 83       	st	Z, r24
    13e6:	80 91 ba 01 	lds	r24, 0x01BA
    13ea:	81 60       	ori	r24, 0x01	; 1
    13ec:	80 93 ba 01 	sts	0x01BA, r24
    13f0:	80 91 bb 01 	lds	r24, 0x01BB
    13f4:	81 60       	ori	r24, 0x01	; 1
    13f6:	80 93 bb 01 	sts	0x01BB, r24
    13fa:	80 91 be 01 	lds	r24, 0x01BE
    13fe:	81 60       	ori	r24, 0x01	; 1
    1400:	80 93 be 01 	sts	0x01BE, r24
    1404:	80 91 bf 01 	lds	r24, 0x01BF
    1408:	81 60       	ori	r24, 0x01	; 1
    140a:	80 93 bf 01 	sts	0x01BF, r24
    140e:	08 95       	ret

00001410 <cube_walking_frame_static2>:
    1410:	0e 94 9d 3d 	call	0x7b3a	; 0x7b3a <cube_clear>
    1414:	80 91 b0 01 	lds	r24, 0x01B0
    1418:	81 60       	ori	r24, 0x01	; 1
    141a:	80 93 b0 01 	sts	0x01B0, r24
    141e:	80 91 b1 01 	lds	r24, 0x01B1
    1422:	80 68       	ori	r24, 0x80	; 128
    1424:	80 93 b1 01 	sts	0x01B1, r24
    1428:	80 91 b2 01 	lds	r24, 0x01B2
    142c:	80 68       	ori	r24, 0x80	; 128
    142e:	80 93 b2 01 	sts	0x01B2, r24
    1432:	80 91 b3 01 	lds	r24, 0x01B3
    1436:	81 68       	ori	r24, 0x81	; 129
    1438:	80 93 b3 01 	sts	0x01B3, r24
    143c:	80 91 b4 01 	lds	r24, 0x01B4
    1440:	81 60       	ori	r24, 0x01	; 1
    1442:	80 93 b4 01 	sts	0x01B4, r24
    1446:	80 91 b5 01 	lds	r24, 0x01B5
    144a:	80 68       	ori	r24, 0x80	; 128
    144c:	80 93 b5 01 	sts	0x01B5, r24
    1450:	80 91 b6 01 	lds	r24, 0x01B6
    1454:	80 68       	ori	r24, 0x80	; 128
    1456:	80 93 b6 01 	sts	0x01B6, r24
    145a:	80 91 b7 01 	lds	r24, 0x01B7
    145e:	81 68       	ori	r24, 0x81	; 129
    1460:	80 93 b7 01 	sts	0x01B7, r24
    1464:	80 91 ba 01 	lds	r24, 0x01BA
    1468:	80 68       	ori	r24, 0x80	; 128
    146a:	80 93 ba 01 	sts	0x01BA, r24
    146e:	80 91 c2 01 	lds	r24, 0x01C2
    1472:	80 68       	ori	r24, 0x80	; 128
    1474:	80 93 c2 01 	sts	0x01C2, r24
    1478:	80 91 ca 01 	lds	r24, 0x01CA
    147c:	80 68       	ori	r24, 0x80	; 128
    147e:	80 93 ca 01 	sts	0x01CA, r24
    1482:	80 91 d2 01 	lds	r24, 0x01D2
    1486:	80 68       	ori	r24, 0x80	; 128
    1488:	80 93 d2 01 	sts	0x01D2, r24
    148c:	80 91 da 01 	lds	r24, 0x01DA
    1490:	80 68       	ori	r24, 0x80	; 128
    1492:	80 93 da 01 	sts	0x01DA, r24
    1496:	80 91 e2 01 	lds	r24, 0x01E2
    149a:	80 68       	ori	r24, 0x80	; 128
    149c:	80 93 e2 01 	sts	0x01E2, r24
    14a0:	80 91 ea 01 	lds	r24, 0x01EA
    14a4:	80 6c       	ori	r24, 0xC0	; 192
    14a6:	80 93 ea 01 	sts	0x01EA, r24
    14aa:	80 91 be 01 	lds	r24, 0x01BE
    14ae:	80 68       	ori	r24, 0x80	; 128
    14b0:	80 93 be 01 	sts	0x01BE, r24
    14b4:	80 91 c6 01 	lds	r24, 0x01C6
    14b8:	80 68       	ori	r24, 0x80	; 128
    14ba:	80 93 c6 01 	sts	0x01C6, r24
    14be:	80 91 ce 01 	lds	r24, 0x01CE
    14c2:	80 68       	ori	r24, 0x80	; 128
    14c4:	80 93 ce 01 	sts	0x01CE, r24
    14c8:	80 91 d6 01 	lds	r24, 0x01D6
    14cc:	80 68       	ori	r24, 0x80	; 128
    14ce:	80 93 d6 01 	sts	0x01D6, r24
    14d2:	80 91 de 01 	lds	r24, 0x01DE
    14d6:	80 68       	ori	r24, 0x80	; 128
    14d8:	80 93 de 01 	sts	0x01DE, r24
    14dc:	80 91 e6 01 	lds	r24, 0x01E6
    14e0:	80 68       	ori	r24, 0x80	; 128
    14e2:	80 93 e6 01 	sts	0x01E6, r24
    14e6:	ee ee       	ldi	r30, 0xEE	; 238
    14e8:	f1 e0       	ldi	r31, 0x01	; 1
    14ea:	80 81       	ld	r24, Z
    14ec:	80 6c       	ori	r24, 0xC0	; 192
    14ee:	80 83       	st	Z, r24
    14f0:	80 91 bb 01 	lds	r24, 0x01BB
    14f4:	81 60       	ori	r24, 0x01	; 1
    14f6:	80 93 bb 01 	sts	0x01BB, r24
    14fa:	80 91 bc 01 	lds	r24, 0x01BC
    14fe:	81 60       	ori	r24, 0x01	; 1
    1500:	80 93 bc 01 	sts	0x01BC, r24
    1504:	80 91 bf 01 	lds	r24, 0x01BF
    1508:	81 60       	ori	r24, 0x01	; 1
    150a:	80 93 bf 01 	sts	0x01BF, r24
    150e:	80 91 b8 01 	lds	r24, 0x01B8
    1512:	81 60       	ori	r24, 0x01	; 1
    1514:	80 93 b8 01 	sts	0x01B8, r24
    1518:	08 95       	ret

0000151a <cube_walking_frame_static3>:
    151a:	0e 94 9d 3d 	call	0x7b3a	; 0x7b3a <cube_clear>
    151e:	80 91 b0 01 	lds	r24, 0x01B0
    1522:	81 68       	ori	r24, 0x81	; 129
    1524:	80 93 b0 01 	sts	0x01B0, r24
    1528:	80 91 b1 01 	lds	r24, 0x01B1
    152c:	81 60       	ori	r24, 0x01	; 1
    152e:	80 93 b1 01 	sts	0x01B1, r24
    1532:	80 91 b2 01 	lds	r24, 0x01B2
    1536:	80 68       	ori	r24, 0x80	; 128
    1538:	80 93 b2 01 	sts	0x01B2, r24
    153c:	80 91 b3 01 	lds	r24, 0x01B3
    1540:	80 68       	ori	r24, 0x80	; 128
    1542:	80 93 b3 01 	sts	0x01B3, r24
    1546:	80 91 b4 01 	lds	r24, 0x01B4
    154a:	81 68       	ori	r24, 0x81	; 129
    154c:	80 93 b4 01 	sts	0x01B4, r24
    1550:	80 91 b5 01 	lds	r24, 0x01B5
    1554:	81 60       	ori	r24, 0x01	; 1
    1556:	80 93 b5 01 	sts	0x01B5, r24
    155a:	80 91 b6 01 	lds	r24, 0x01B6
    155e:	80 68       	ori	r24, 0x80	; 128
    1560:	80 93 b6 01 	sts	0x01B6, r24
    1564:	80 91 b7 01 	lds	r24, 0x01B7
    1568:	80 68       	ori	r24, 0x80	; 128
    156a:	80 93 b7 01 	sts	0x01B7, r24
    156e:	80 91 bb 01 	lds	r24, 0x01BB
    1572:	80 68       	ori	r24, 0x80	; 128
    1574:	80 93 bb 01 	sts	0x01BB, r24
    1578:	80 91 c3 01 	lds	r24, 0x01C3
    157c:	80 68       	ori	r24, 0x80	; 128
    157e:	80 93 c3 01 	sts	0x01C3, r24
    1582:	80 91 cb 01 	lds	r24, 0x01CB
    1586:	80 68       	ori	r24, 0x80	; 128
    1588:	80 93 cb 01 	sts	0x01CB, r24
    158c:	80 91 d3 01 	lds	r24, 0x01D3
    1590:	80 68       	ori	r24, 0x80	; 128
    1592:	80 93 d3 01 	sts	0x01D3, r24
    1596:	80 91 db 01 	lds	r24, 0x01DB
    159a:	80 68       	ori	r24, 0x80	; 128
    159c:	80 93 db 01 	sts	0x01DB, r24
    15a0:	80 91 e3 01 	lds	r24, 0x01E3
    15a4:	80 68       	ori	r24, 0x80	; 128
    15a6:	80 93 e3 01 	sts	0x01E3, r24
    15aa:	80 91 eb 01 	lds	r24, 0x01EB
    15ae:	80 6c       	ori	r24, 0xC0	; 192
    15b0:	80 93 eb 01 	sts	0x01EB, r24
    15b4:	80 91 bf 01 	lds	r24, 0x01BF
    15b8:	80 68       	ori	r24, 0x80	; 128
    15ba:	80 93 bf 01 	sts	0x01BF, r24
    15be:	80 91 c7 01 	lds	r24, 0x01C7
    15c2:	80 68       	ori	r24, 0x80	; 128
    15c4:	80 93 c7 01 	sts	0x01C7, r24
    15c8:	80 91 cf 01 	lds	r24, 0x01CF
    15cc:	80 68       	ori	r24, 0x80	; 128
    15ce:	80 93 cf 01 	sts	0x01CF, r24
    15d2:	80 91 d7 01 	lds	r24, 0x01D7
    15d6:	80 68       	ori	r24, 0x80	; 128
    15d8:	80 93 d7 01 	sts	0x01D7, r24
    15dc:	80 91 df 01 	lds	r24, 0x01DF
    15e0:	80 68       	ori	r24, 0x80	; 128
    15e2:	80 93 df 01 	sts	0x01DF, r24
    15e6:	80 91 e7 01 	lds	r24, 0x01E7
    15ea:	80 68       	ori	r24, 0x80	; 128
    15ec:	80 93 e7 01 	sts	0x01E7, r24
    15f0:	ef ee       	ldi	r30, 0xEF	; 239
    15f2:	f1 e0       	ldi	r31, 0x01	; 1
    15f4:	80 81       	ld	r24, Z
    15f6:	80 6c       	ori	r24, 0xC0	; 192
    15f8:	80 83       	st	Z, r24
    15fa:	80 91 bc 01 	lds	r24, 0x01BC
    15fe:	81 60       	ori	r24, 0x01	; 1
    1600:	80 93 bc 01 	sts	0x01BC, r24
    1604:	80 91 bd 01 	lds	r24, 0x01BD
    1608:	81 60       	ori	r24, 0x01	; 1
    160a:	80 93 bd 01 	sts	0x01BD, r24
    160e:	80 91 b8 01 	lds	r24, 0x01B8
    1612:	81 60       	ori	r24, 0x01	; 1
    1614:	80 93 b8 01 	sts	0x01B8, r24
    1618:	80 91 b9 01 	lds	r24, 0x01B9
    161c:	81 60       	ori	r24, 0x01	; 1
    161e:	80 93 b9 01 	sts	0x01B9, r24
    1622:	08 95       	ret

00001624 <cube_walking_frame_door0_open>:
    1624:	0e 94 fe 08 	call	0x11fc	; 0x11fc <cube_walking_frame_static0>
    1628:	87 eb       	ldi	r24, 0xB7	; 183
    162a:	91 e0       	ldi	r25, 0x01	; 1
    162c:	20 91 b7 01 	lds	r18, 0x01B7
    1630:	23 6c       	ori	r18, 0xC3	; 195
    1632:	20 93 b7 01 	sts	0x01B7, r18
    1636:	20 91 bf 01 	lds	r18, 0x01BF
    163a:	23 6c       	ori	r18, 0xC3	; 195
    163c:	20 93 bf 01 	sts	0x01BF, r18
    1640:	20 91 c7 01 	lds	r18, 0x01C7
    1644:	23 6c       	ori	r18, 0xC3	; 195
    1646:	20 93 c7 01 	sts	0x01C7, r18
    164a:	20 91 cf 01 	lds	r18, 0x01CF
    164e:	23 6c       	ori	r18, 0xC3	; 195
    1650:	20 93 cf 01 	sts	0x01CF, r18
    1654:	20 91 d7 01 	lds	r18, 0x01D7
    1658:	23 6c       	ori	r18, 0xC3	; 195
    165a:	20 93 d7 01 	sts	0x01D7, r18
    165e:	20 91 df 01 	lds	r18, 0x01DF
    1662:	23 6c       	ori	r18, 0xC3	; 195
    1664:	20 93 df 01 	sts	0x01DF, r18
    1668:	20 91 e7 01 	lds	r18, 0x01E7
    166c:	23 6c       	ori	r18, 0xC3	; 195
    166e:	20 93 e7 01 	sts	0x01E7, r18
    1672:	20 91 ef 01 	lds	r18, 0x01EF
    1676:	23 6c       	ori	r18, 0xC3	; 195
    1678:	20 93 ef 01 	sts	0x01EF, r18
    167c:	fc 01       	movw	r30, r24
    167e:	22 91       	ld	r18, -Z
    1680:	20 64       	ori	r18, 0x40	; 64
    1682:	20 83       	st	Z, r18
    1684:	20 91 be 01 	lds	r18, 0x01BE
    1688:	20 64       	ori	r18, 0x40	; 64
    168a:	20 93 be 01 	sts	0x01BE, r18
    168e:	20 91 c6 01 	lds	r18, 0x01C6
    1692:	20 64       	ori	r18, 0x40	; 64
    1694:	20 93 c6 01 	sts	0x01C6, r18
    1698:	20 91 ce 01 	lds	r18, 0x01CE
    169c:	20 64       	ori	r18, 0x40	; 64
    169e:	20 93 ce 01 	sts	0x01CE, r18
    16a2:	20 91 d6 01 	lds	r18, 0x01D6
    16a6:	20 64       	ori	r18, 0x40	; 64
    16a8:	20 93 d6 01 	sts	0x01D6, r18
    16ac:	20 91 de 01 	lds	r18, 0x01DE
    16b0:	20 64       	ori	r18, 0x40	; 64
    16b2:	20 93 de 01 	sts	0x01DE, r18
    16b6:	20 91 e6 01 	lds	r18, 0x01E6
    16ba:	20 64       	ori	r18, 0x40	; 64
    16bc:	20 93 e6 01 	sts	0x01E6, r18
    16c0:	20 91 ee 01 	lds	r18, 0x01EE
    16c4:	20 64       	ori	r18, 0x40	; 64
    16c6:	20 93 ee 01 	sts	0x01EE, r18
    16ca:	fc 01       	movw	r30, r24
    16cc:	32 97       	sbiw	r30, 0x02	; 2
    16ce:	20 81       	ld	r18, Z
    16d0:	20 64       	ori	r18, 0x40	; 64
    16d2:	20 83       	st	Z, r18
    16d4:	20 91 bd 01 	lds	r18, 0x01BD
    16d8:	20 64       	ori	r18, 0x40	; 64
    16da:	20 93 bd 01 	sts	0x01BD, r18
    16de:	20 91 c5 01 	lds	r18, 0x01C5
    16e2:	20 64       	ori	r18, 0x40	; 64
    16e4:	20 93 c5 01 	sts	0x01C5, r18
    16e8:	20 91 cd 01 	lds	r18, 0x01CD
    16ec:	20 64       	ori	r18, 0x40	; 64
    16ee:	20 93 cd 01 	sts	0x01CD, r18
    16f2:	20 91 d5 01 	lds	r18, 0x01D5
    16f6:	20 64       	ori	r18, 0x40	; 64
    16f8:	20 93 d5 01 	sts	0x01D5, r18
    16fc:	20 91 dd 01 	lds	r18, 0x01DD
    1700:	20 64       	ori	r18, 0x40	; 64
    1702:	20 93 dd 01 	sts	0x01DD, r18
    1706:	20 91 e5 01 	lds	r18, 0x01E5
    170a:	20 64       	ori	r18, 0x40	; 64
    170c:	20 93 e5 01 	sts	0x01E5, r18
    1710:	20 91 ed 01 	lds	r18, 0x01ED
    1714:	20 64       	ori	r18, 0x40	; 64
    1716:	20 93 ed 01 	sts	0x01ED, r18
    171a:	fc 01       	movw	r30, r24
    171c:	33 97       	sbiw	r30, 0x03	; 3
    171e:	20 81       	ld	r18, Z
    1720:	20 64       	ori	r18, 0x40	; 64
    1722:	20 83       	st	Z, r18
    1724:	20 91 bc 01 	lds	r18, 0x01BC
    1728:	20 64       	ori	r18, 0x40	; 64
    172a:	20 93 bc 01 	sts	0x01BC, r18
    172e:	20 91 c4 01 	lds	r18, 0x01C4
    1732:	20 64       	ori	r18, 0x40	; 64
    1734:	20 93 c4 01 	sts	0x01C4, r18
    1738:	20 91 cc 01 	lds	r18, 0x01CC
    173c:	20 64       	ori	r18, 0x40	; 64
    173e:	20 93 cc 01 	sts	0x01CC, r18
    1742:	20 91 d4 01 	lds	r18, 0x01D4
    1746:	20 64       	ori	r18, 0x40	; 64
    1748:	20 93 d4 01 	sts	0x01D4, r18
    174c:	20 91 dc 01 	lds	r18, 0x01DC
    1750:	20 64       	ori	r18, 0x40	; 64
    1752:	20 93 dc 01 	sts	0x01DC, r18
    1756:	20 91 e4 01 	lds	r18, 0x01E4
    175a:	20 64       	ori	r18, 0x40	; 64
    175c:	20 93 e4 01 	sts	0x01E4, r18
    1760:	20 91 ec 01 	lds	r18, 0x01EC
    1764:	20 64       	ori	r18, 0x40	; 64
    1766:	20 93 ec 01 	sts	0x01EC, r18
    176a:	fc 01       	movw	r30, r24
    176c:	34 97       	sbiw	r30, 0x04	; 4
    176e:	80 81       	ld	r24, Z
    1770:	80 64       	ori	r24, 0x40	; 64
    1772:	80 83       	st	Z, r24
    1774:	80 91 bb 01 	lds	r24, 0x01BB
    1778:	80 64       	ori	r24, 0x40	; 64
    177a:	80 93 bb 01 	sts	0x01BB, r24
    177e:	80 91 c3 01 	lds	r24, 0x01C3
    1782:	80 64       	ori	r24, 0x40	; 64
    1784:	80 93 c3 01 	sts	0x01C3, r24
    1788:	80 91 cb 01 	lds	r24, 0x01CB
    178c:	80 64       	ori	r24, 0x40	; 64
    178e:	80 93 cb 01 	sts	0x01CB, r24
    1792:	80 91 d3 01 	lds	r24, 0x01D3
    1796:	80 64       	ori	r24, 0x40	; 64
    1798:	80 93 d3 01 	sts	0x01D3, r24
    179c:	80 91 db 01 	lds	r24, 0x01DB
    17a0:	80 64       	ori	r24, 0x40	; 64
    17a2:	80 93 db 01 	sts	0x01DB, r24
    17a6:	80 91 e3 01 	lds	r24, 0x01E3
    17aa:	80 64       	ori	r24, 0x40	; 64
    17ac:	80 93 e3 01 	sts	0x01E3, r24
    17b0:	80 91 eb 01 	lds	r24, 0x01EB
    17b4:	80 64       	ori	r24, 0x40	; 64
    17b6:	80 93 eb 01 	sts	0x01EB, r24
    17ba:	08 95       	ret

000017bc <cube_walking_frame0>:
    17bc:	80 91 b2 01 	lds	r24, 0x01B2
    17c0:	80 61       	ori	r24, 0x10	; 16
    17c2:	80 93 b2 01 	sts	0x01B2, r24
    17c6:	80 91 b6 01 	lds	r24, 0x01B6
    17ca:	88 60       	ori	r24, 0x08	; 8
    17cc:	80 93 b6 01 	sts	0x01B6, r24
    17d0:	80 91 bb 01 	lds	r24, 0x01BB
    17d4:	80 61       	ori	r24, 0x10	; 16
    17d6:	80 93 bb 01 	sts	0x01BB, r24
    17da:	80 91 bd 01 	lds	r24, 0x01BD
    17de:	88 60       	ori	r24, 0x08	; 8
    17e0:	80 93 bd 01 	sts	0x01BD, r24
    17e4:	80 91 c2 01 	lds	r24, 0x01C2
    17e8:	84 60       	ori	r24, 0x04	; 4
    17ea:	80 93 c2 01 	sts	0x01C2, r24
    17ee:	80 91 c4 01 	lds	r24, 0x01C4
    17f2:	88 61       	ori	r24, 0x18	; 24
    17f4:	80 93 c4 01 	sts	0x01C4, r24
    17f8:	80 91 c6 01 	lds	r24, 0x01C6
    17fc:	80 62       	ori	r24, 0x20	; 32
    17fe:	80 93 c6 01 	sts	0x01C6, r24
    1802:	80 91 cb 01 	lds	r24, 0x01CB
    1806:	84 60       	ori	r24, 0x04	; 4
    1808:	80 93 cb 01 	sts	0x01CB, r24
    180c:	80 91 cc 01 	lds	r24, 0x01CC
    1810:	88 61       	ori	r24, 0x18	; 24
    1812:	80 93 cc 01 	sts	0x01CC, r24
    1816:	80 91 cd 01 	lds	r24, 0x01CD
    181a:	80 62       	ori	r24, 0x20	; 32
    181c:	80 93 cd 01 	sts	0x01CD, r24
    1820:	80 91 d4 01 	lds	r24, 0x01D4
    1824:	8c 63       	ori	r24, 0x3C	; 60
    1826:	80 93 d4 01 	sts	0x01D4, r24
    182a:	80 91 dc 01 	lds	r24, 0x01DC
    182e:	88 61       	ori	r24, 0x18	; 24
    1830:	80 93 dc 01 	sts	0x01DC, r24
    1834:	80 91 e3 01 	lds	r24, 0x01E3
    1838:	88 61       	ori	r24, 0x18	; 24
    183a:	80 93 e3 01 	sts	0x01E3, r24
    183e:	80 91 e4 01 	lds	r24, 0x01E4
    1842:	88 61       	ori	r24, 0x18	; 24
    1844:	80 93 e4 01 	sts	0x01E4, r24
    1848:	80 91 e5 01 	lds	r24, 0x01E5
    184c:	88 61       	ori	r24, 0x18	; 24
    184e:	80 93 e5 01 	sts	0x01E5, r24
    1852:	80 91 ec 01 	lds	r24, 0x01EC
    1856:	88 61       	ori	r24, 0x18	; 24
    1858:	80 93 ec 01 	sts	0x01EC, r24
    185c:	08 95       	ret

0000185e <cube_walking_frame1>:
    185e:	80 91 b4 01 	lds	r24, 0x01B4
    1862:	88 61       	ori	r24, 0x18	; 24
    1864:	80 93 b4 01 	sts	0x01B4, r24
    1868:	80 91 bc 01 	lds	r24, 0x01BC
    186c:	88 61       	ori	r24, 0x18	; 24
    186e:	80 93 bc 01 	sts	0x01BC, r24
    1872:	80 91 c4 01 	lds	r24, 0x01C4
    1876:	8c 63       	ori	r24, 0x3C	; 60
    1878:	80 93 c4 01 	sts	0x01C4, r24
    187c:	80 91 cc 01 	lds	r24, 0x01CC
    1880:	8c 63       	ori	r24, 0x3C	; 60
    1882:	80 93 cc 01 	sts	0x01CC, r24
    1886:	80 91 d4 01 	lds	r24, 0x01D4
    188a:	8c 63       	ori	r24, 0x3C	; 60
    188c:	80 93 d4 01 	sts	0x01D4, r24
    1890:	80 91 dc 01 	lds	r24, 0x01DC
    1894:	88 61       	ori	r24, 0x18	; 24
    1896:	80 93 dc 01 	sts	0x01DC, r24
    189a:	80 91 e3 01 	lds	r24, 0x01E3
    189e:	88 61       	ori	r24, 0x18	; 24
    18a0:	80 93 e3 01 	sts	0x01E3, r24
    18a4:	80 91 e4 01 	lds	r24, 0x01E4
    18a8:	88 61       	ori	r24, 0x18	; 24
    18aa:	80 93 e4 01 	sts	0x01E4, r24
    18ae:	80 91 e5 01 	lds	r24, 0x01E5
    18b2:	88 61       	ori	r24, 0x18	; 24
    18b4:	80 93 e5 01 	sts	0x01E5, r24
    18b8:	80 91 ec 01 	lds	r24, 0x01EC
    18bc:	88 61       	ori	r24, 0x18	; 24
    18be:	80 93 ec 01 	sts	0x01EC, r24
    18c2:	08 95       	ret

000018c4 <cube_walking_frame2>:
    18c4:	80 91 b2 01 	lds	r24, 0x01B2
    18c8:	88 60       	ori	r24, 0x08	; 8
    18ca:	80 93 b2 01 	sts	0x01B2, r24
    18ce:	80 91 b6 01 	lds	r24, 0x01B6
    18d2:	80 61       	ori	r24, 0x10	; 16
    18d4:	80 93 b6 01 	sts	0x01B6, r24
    18d8:	80 91 bb 01 	lds	r24, 0x01BB
    18dc:	88 60       	ori	r24, 0x08	; 8
    18de:	80 93 bb 01 	sts	0x01BB, r24
    18e2:	80 91 bd 01 	lds	r24, 0x01BD
    18e6:	80 61       	ori	r24, 0x10	; 16
    18e8:	80 93 bd 01 	sts	0x01BD, r24
    18ec:	80 91 c2 01 	lds	r24, 0x01C2
    18f0:	80 62       	ori	r24, 0x20	; 32
    18f2:	80 93 c2 01 	sts	0x01C2, r24
    18f6:	80 91 c4 01 	lds	r24, 0x01C4
    18fa:	88 61       	ori	r24, 0x18	; 24
    18fc:	80 93 c4 01 	sts	0x01C4, r24
    1900:	80 91 c6 01 	lds	r24, 0x01C6
    1904:	84 60       	ori	r24, 0x04	; 4
    1906:	80 93 c6 01 	sts	0x01C6, r24
    190a:	80 91 cb 01 	lds	r24, 0x01CB
    190e:	80 62       	ori	r24, 0x20	; 32
    1910:	80 93 cb 01 	sts	0x01CB, r24
    1914:	80 91 cc 01 	lds	r24, 0x01CC
    1918:	88 61       	ori	r24, 0x18	; 24
    191a:	80 93 cc 01 	sts	0x01CC, r24
    191e:	80 91 cd 01 	lds	r24, 0x01CD
    1922:	84 60       	ori	r24, 0x04	; 4
    1924:	80 93 cd 01 	sts	0x01CD, r24
    1928:	80 91 d4 01 	lds	r24, 0x01D4
    192c:	8c 63       	ori	r24, 0x3C	; 60
    192e:	80 93 d4 01 	sts	0x01D4, r24
    1932:	80 91 dc 01 	lds	r24, 0x01DC
    1936:	88 61       	ori	r24, 0x18	; 24
    1938:	80 93 dc 01 	sts	0x01DC, r24
    193c:	80 91 e3 01 	lds	r24, 0x01E3
    1940:	88 61       	ori	r24, 0x18	; 24
    1942:	80 93 e3 01 	sts	0x01E3, r24
    1946:	80 91 e4 01 	lds	r24, 0x01E4
    194a:	88 61       	ori	r24, 0x18	; 24
    194c:	80 93 e4 01 	sts	0x01E4, r24
    1950:	80 91 e5 01 	lds	r24, 0x01E5
    1954:	88 61       	ori	r24, 0x18	; 24
    1956:	80 93 e5 01 	sts	0x01E5, r24
    195a:	80 91 ec 01 	lds	r24, 0x01EC
    195e:	88 61       	ori	r24, 0x18	; 24
    1960:	80 93 ec 01 	sts	0x01EC, r24
    1964:	08 95       	ret

00001966 <cube_walking_frame3>:
    1966:	80 91 b4 01 	lds	r24, 0x01B4
    196a:	88 61       	ori	r24, 0x18	; 24
    196c:	80 93 b4 01 	sts	0x01B4, r24
    1970:	80 91 bc 01 	lds	r24, 0x01BC
    1974:	88 61       	ori	r24, 0x18	; 24
    1976:	80 93 bc 01 	sts	0x01BC, r24
    197a:	80 91 c4 01 	lds	r24, 0x01C4
    197e:	8c 63       	ori	r24, 0x3C	; 60
    1980:	80 93 c4 01 	sts	0x01C4, r24
    1984:	80 91 cc 01 	lds	r24, 0x01CC
    1988:	8c 63       	ori	r24, 0x3C	; 60
    198a:	80 93 cc 01 	sts	0x01CC, r24
    198e:	80 91 d4 01 	lds	r24, 0x01D4
    1992:	8c 63       	ori	r24, 0x3C	; 60
    1994:	80 93 d4 01 	sts	0x01D4, r24
    1998:	80 91 dc 01 	lds	r24, 0x01DC
    199c:	88 61       	ori	r24, 0x18	; 24
    199e:	80 93 dc 01 	sts	0x01DC, r24
    19a2:	80 91 e3 01 	lds	r24, 0x01E3
    19a6:	88 61       	ori	r24, 0x18	; 24
    19a8:	80 93 e3 01 	sts	0x01E3, r24
    19ac:	80 91 e4 01 	lds	r24, 0x01E4
    19b0:	88 61       	ori	r24, 0x18	; 24
    19b2:	80 93 e4 01 	sts	0x01E4, r24
    19b6:	80 91 e5 01 	lds	r24, 0x01E5
    19ba:	88 61       	ori	r24, 0x18	; 24
    19bc:	80 93 e5 01 	sts	0x01E5, r24
    19c0:	80 91 ec 01 	lds	r24, 0x01EC
    19c4:	88 61       	ori	r24, 0x18	; 24
    19c6:	80 93 ec 01 	sts	0x01EC, r24
    19ca:	08 95       	ret

000019cc <cube_walking_walk_out>:
    19cc:	0e 94 83 09 	call	0x1306	; 0x1306 <cube_walking_frame_static1>
    19d0:	0e 94 62 0c 	call	0x18c4	; 0x18c4 <cube_walking_frame2>
    19d4:	82 e0       	ldi	r24, 0x02	; 2
    19d6:	60 e0       	ldi	r22, 0x00	; 0
    19d8:	45 e0       	ldi	r20, 0x05	; 5
    19da:	27 e0       	ldi	r18, 0x07	; 7
    19dc:	0e 94 04 51 	call	0xa208	; 0xa208 <move_x_rev>
    19e0:	0e 94 fe 4e 	call	0x9dfc	; 0x9dfc <rotate_90_deg>
    19e4:	0e 94 fe 4e 	call	0x9dfc	; 0x9dfc <rotate_90_deg>
    19e8:	0e 94 fe 4e 	call	0x9dfc	; 0x9dfc <rotate_90_deg>
    19ec:	88 e0       	ldi	r24, 0x08	; 8
    19ee:	0e 94 da 3e 	call	0x7db4	; 0x7db4 <cube_show_loop_wo_int>
    19f2:	0e 94 83 09 	call	0x1306	; 0x1306 <cube_walking_frame_static1>
    19f6:	0e 94 b3 0c 	call	0x1966	; 0x1966 <cube_walking_frame3>
    19fa:	82 e0       	ldi	r24, 0x02	; 2
    19fc:	60 e0       	ldi	r22, 0x00	; 0
    19fe:	45 e0       	ldi	r20, 0x05	; 5
    1a00:	27 e0       	ldi	r18, 0x07	; 7
    1a02:	0e 94 04 51 	call	0xa208	; 0xa208 <move_x_rev>
    1a06:	82 e0       	ldi	r24, 0x02	; 2
    1a08:	60 e0       	ldi	r22, 0x00	; 0
    1a0a:	45 e0       	ldi	r20, 0x05	; 5
    1a0c:	27 e0       	ldi	r18, 0x07	; 7
    1a0e:	0e 94 04 51 	call	0xa208	; 0xa208 <move_x_rev>
    1a12:	0e 94 fe 4e 	call	0x9dfc	; 0x9dfc <rotate_90_deg>
    1a16:	0e 94 fe 4e 	call	0x9dfc	; 0x9dfc <rotate_90_deg>
    1a1a:	0e 94 fe 4e 	call	0x9dfc	; 0x9dfc <rotate_90_deg>
    1a1e:	88 e0       	ldi	r24, 0x08	; 8
    1a20:	0e 94 da 3e 	call	0x7db4	; 0x7db4 <cube_show_loop_wo_int>
    1a24:	0e 94 83 09 	call	0x1306	; 0x1306 <cube_walking_frame_static1>
    1a28:	80 91 b3 01 	lds	r24, 0x01B3
    1a2c:	88 60       	ori	r24, 0x08	; 8
    1a2e:	80 93 b3 01 	sts	0x01B3, r24
    1a32:	80 91 b8 01 	lds	r24, 0x01B8
    1a36:	80 61       	ori	r24, 0x10	; 16
    1a38:	80 93 b8 01 	sts	0x01B8, r24
    1a3c:	80 91 ba 01 	lds	r24, 0x01BA
    1a40:	88 60       	ori	r24, 0x08	; 8
    1a42:	80 93 ba 01 	sts	0x01BA, r24
    1a46:	80 91 c1 01 	lds	r24, 0x01C1
    1a4a:	88 61       	ori	r24, 0x18	; 24
    1a4c:	80 93 c1 01 	sts	0x01C1, r24
    1a50:	80 91 c3 01 	lds	r24, 0x01C3
    1a54:	80 62       	ori	r24, 0x20	; 32
    1a56:	80 93 c3 01 	sts	0x01C3, r24
    1a5a:	80 91 c8 01 	lds	r24, 0x01C8
    1a5e:	84 60       	ori	r24, 0x04	; 4
    1a60:	80 93 c8 01 	sts	0x01C8, r24
    1a64:	80 91 c9 01 	lds	r24, 0x01C9
    1a68:	88 61       	ori	r24, 0x18	; 24
    1a6a:	80 93 c9 01 	sts	0x01C9, r24
    1a6e:	80 91 ca 01 	lds	r24, 0x01CA
    1a72:	80 62       	ori	r24, 0x20	; 32
    1a74:	80 93 ca 01 	sts	0x01CA, r24
    1a78:	80 91 d1 01 	lds	r24, 0x01D1
    1a7c:	8c 63       	ori	r24, 0x3C	; 60
    1a7e:	80 93 d1 01 	sts	0x01D1, r24
    1a82:	80 91 d9 01 	lds	r24, 0x01D9
    1a86:	88 61       	ori	r24, 0x18	; 24
    1a88:	80 93 d9 01 	sts	0x01D9, r24
    1a8c:	80 91 e0 01 	lds	r24, 0x01E0
    1a90:	88 61       	ori	r24, 0x18	; 24
    1a92:	80 93 e0 01 	sts	0x01E0, r24
    1a96:	80 91 e1 01 	lds	r24, 0x01E1
    1a9a:	88 61       	ori	r24, 0x18	; 24
    1a9c:	80 93 e1 01 	sts	0x01E1, r24
    1aa0:	80 91 e2 01 	lds	r24, 0x01E2
    1aa4:	88 61       	ori	r24, 0x18	; 24
    1aa6:	80 93 e2 01 	sts	0x01E2, r24
    1aaa:	80 91 e9 01 	lds	r24, 0x01E9
    1aae:	88 61       	ori	r24, 0x18	; 24
    1ab0:	80 93 e9 01 	sts	0x01E9, r24
    1ab4:	0e 94 fe 4e 	call	0x9dfc	; 0x9dfc <rotate_90_deg>
    1ab8:	0e 94 fe 4e 	call	0x9dfc	; 0x9dfc <rotate_90_deg>
    1abc:	0e 94 fe 4e 	call	0x9dfc	; 0x9dfc <rotate_90_deg>
    1ac0:	88 e0       	ldi	r24, 0x08	; 8
    1ac2:	0e 94 da 3e 	call	0x7db4	; 0x7db4 <cube_show_loop_wo_int>
    1ac6:	0e 94 83 09 	call	0x1306	; 0x1306 <cube_walking_frame_static1>
    1aca:	e0 eb       	ldi	r30, 0xB0	; 176
    1acc:	f1 e0       	ldi	r31, 0x01	; 1
    1ace:	80 81       	ld	r24, Z
    1ad0:	88 61       	ori	r24, 0x18	; 24
    1ad2:	80 83       	st	Z, r24
    1ad4:	80 91 b8 01 	lds	r24, 0x01B8
    1ad8:	88 61       	ori	r24, 0x18	; 24
    1ada:	80 93 b8 01 	sts	0x01B8, r24
    1ade:	80 89       	ldd	r24, Z+16	; 0x10
    1ae0:	8c 63       	ori	r24, 0x3C	; 60
    1ae2:	80 8b       	std	Z+16, r24	; 0x10
    1ae4:	80 91 c8 01 	lds	r24, 0x01C8
    1ae8:	8c 63       	ori	r24, 0x3C	; 60
    1aea:	80 93 c8 01 	sts	0x01C8, r24
    1aee:	80 a1       	lds	r24, 0x40
    1af0:	8c 63       	ori	r24, 0x3C	; 60
    1af2:	80 a3       	lds	r24, 0x50
    1af4:	80 a5       	lds	r24, 0x60
    1af6:	88 61       	ori	r24, 0x18	; 24
    1af8:	80 a7       	lds	r24, 0x70
    1afa:	80 91 e0 01 	lds	r24, 0x01E0
    1afe:	88 61       	ori	r24, 0x18	; 24
    1b00:	80 93 e0 01 	sts	0x01E0, r24
    1b04:	80 91 e0 01 	lds	r24, 0x01E0
    1b08:	88 61       	ori	r24, 0x18	; 24
    1b0a:	80 93 e0 01 	sts	0x01E0, r24
    1b0e:	80 91 e0 01 	lds	r24, 0x01E0
    1b12:	88 61       	ori	r24, 0x18	; 24
    1b14:	80 93 e0 01 	sts	0x01E0, r24
    1b18:	80 ad       	sts	0x60, r24
    1b1a:	88 61       	ori	r24, 0x18	; 24
    1b1c:	80 af       	sts	0x70, r24
    1b1e:	0e 94 fe 4e 	call	0x9dfc	; 0x9dfc <rotate_90_deg>
    1b22:	0e 94 fe 4e 	call	0x9dfc	; 0x9dfc <rotate_90_deg>
    1b26:	0e 94 fe 4e 	call	0x9dfc	; 0x9dfc <rotate_90_deg>
    1b2a:	88 e0       	ldi	r24, 0x08	; 8
    1b2c:	0e 94 da 3e 	call	0x7db4	; 0x7db4 <cube_show_loop_wo_int>
    1b30:	08 95       	ret

00001b32 <cube_walking_frame_door0>:
    1b32:	0e 94 fe 08 	call	0x11fc	; 0x11fc <cube_walking_frame_static0>
    1b36:	80 91 b7 01 	lds	r24, 0x01B7
    1b3a:	8f ef       	ldi	r24, 0xFF	; 255
    1b3c:	80 93 b7 01 	sts	0x01B7, r24
    1b40:	90 91 bf 01 	lds	r25, 0x01BF
    1b44:	80 93 bf 01 	sts	0x01BF, r24
    1b48:	90 91 c7 01 	lds	r25, 0x01C7
    1b4c:	80 93 c7 01 	sts	0x01C7, r24
    1b50:	90 91 cf 01 	lds	r25, 0x01CF
    1b54:	80 93 cf 01 	sts	0x01CF, r24
    1b58:	90 91 d7 01 	lds	r25, 0x01D7
    1b5c:	80 93 d7 01 	sts	0x01D7, r24
    1b60:	90 91 df 01 	lds	r25, 0x01DF
    1b64:	80 93 df 01 	sts	0x01DF, r24
    1b68:	90 91 e7 01 	lds	r25, 0x01E7
    1b6c:	80 93 e7 01 	sts	0x01E7, r24
    1b70:	90 91 ef 01 	lds	r25, 0x01EF
    1b74:	80 93 ef 01 	sts	0x01EF, r24
    1b78:	0e 94 fe 4e 	call	0x9dfc	; 0x9dfc <rotate_90_deg>
    1b7c:	0e 94 fe 4e 	call	0x9dfc	; 0x9dfc <rotate_90_deg>
    1b80:	0e 94 fe 4e 	call	0x9dfc	; 0x9dfc <rotate_90_deg>
    1b84:	80 e5       	ldi	r24, 0x50	; 80
    1b86:	0e 94 da 3e 	call	0x7db4	; 0x7db4 <cube_show_loop_wo_int>
    1b8a:	0e 94 fe 08 	call	0x11fc	; 0x11fc <cube_walking_frame_static0>
    1b8e:	80 91 b7 01 	lds	r24, 0x01B7
    1b92:	83 6c       	ori	r24, 0xC3	; 195
    1b94:	80 93 b7 01 	sts	0x01B7, r24
    1b98:	80 91 bf 01 	lds	r24, 0x01BF
    1b9c:	83 6c       	ori	r24, 0xC3	; 195
    1b9e:	80 93 bf 01 	sts	0x01BF, r24
    1ba2:	80 91 c7 01 	lds	r24, 0x01C7
    1ba6:	83 6c       	ori	r24, 0xC3	; 195
    1ba8:	80 93 c7 01 	sts	0x01C7, r24
    1bac:	80 91 cf 01 	lds	r24, 0x01CF
    1bb0:	83 6c       	ori	r24, 0xC3	; 195
    1bb2:	80 93 cf 01 	sts	0x01CF, r24
    1bb6:	80 91 d7 01 	lds	r24, 0x01D7
    1bba:	83 6c       	ori	r24, 0xC3	; 195
    1bbc:	80 93 d7 01 	sts	0x01D7, r24
    1bc0:	80 91 df 01 	lds	r24, 0x01DF
    1bc4:	83 6c       	ori	r24, 0xC3	; 195
    1bc6:	80 93 df 01 	sts	0x01DF, r24
    1bca:	80 91 e7 01 	lds	r24, 0x01E7
    1bce:	83 6c       	ori	r24, 0xC3	; 195
    1bd0:	80 93 e7 01 	sts	0x01E7, r24
    1bd4:	80 91 ef 01 	lds	r24, 0x01EF
    1bd8:	83 6c       	ori	r24, 0xC3	; 195
    1bda:	80 93 ef 01 	sts	0x01EF, r24
    1bde:	80 91 b6 01 	lds	r24, 0x01B6
    1be2:	80 62       	ori	r24, 0x20	; 32
    1be4:	80 93 b6 01 	sts	0x01B6, r24
    1be8:	80 91 be 01 	lds	r24, 0x01BE
    1bec:	80 62       	ori	r24, 0x20	; 32
    1bee:	80 93 be 01 	sts	0x01BE, r24
    1bf2:	80 91 c6 01 	lds	r24, 0x01C6
    1bf6:	80 62       	ori	r24, 0x20	; 32
    1bf8:	80 93 c6 01 	sts	0x01C6, r24
    1bfc:	80 91 ce 01 	lds	r24, 0x01CE
    1c00:	80 62       	ori	r24, 0x20	; 32
    1c02:	80 93 ce 01 	sts	0x01CE, r24
    1c06:	80 91 d6 01 	lds	r24, 0x01D6
    1c0a:	80 62       	ori	r24, 0x20	; 32
    1c0c:	80 93 d6 01 	sts	0x01D6, r24
    1c10:	80 91 de 01 	lds	r24, 0x01DE
    1c14:	80 62       	ori	r24, 0x20	; 32
    1c16:	80 93 de 01 	sts	0x01DE, r24
    1c1a:	80 91 e6 01 	lds	r24, 0x01E6
    1c1e:	80 62       	ori	r24, 0x20	; 32
    1c20:	80 93 e6 01 	sts	0x01E6, r24
    1c24:	80 91 ee 01 	lds	r24, 0x01EE
    1c28:	80 62       	ori	r24, 0x20	; 32
    1c2a:	80 93 ee 01 	sts	0x01EE, r24
    1c2e:	80 91 b5 01 	lds	r24, 0x01B5
    1c32:	80 61       	ori	r24, 0x10	; 16
    1c34:	80 93 b5 01 	sts	0x01B5, r24
    1c38:	80 91 bd 01 	lds	r24, 0x01BD
    1c3c:	80 61       	ori	r24, 0x10	; 16
    1c3e:	80 93 bd 01 	sts	0x01BD, r24
    1c42:	80 91 c5 01 	lds	r24, 0x01C5
    1c46:	80 61       	ori	r24, 0x10	; 16
    1c48:	80 93 c5 01 	sts	0x01C5, r24
    1c4c:	80 91 cd 01 	lds	r24, 0x01CD
    1c50:	80 61       	ori	r24, 0x10	; 16
    1c52:	80 93 cd 01 	sts	0x01CD, r24
    1c56:	80 91 d5 01 	lds	r24, 0x01D5
    1c5a:	80 61       	ori	r24, 0x10	; 16
    1c5c:	80 93 d5 01 	sts	0x01D5, r24
    1c60:	80 91 dd 01 	lds	r24, 0x01DD
    1c64:	80 61       	ori	r24, 0x10	; 16
    1c66:	80 93 dd 01 	sts	0x01DD, r24
    1c6a:	80 91 e5 01 	lds	r24, 0x01E5
    1c6e:	80 61       	ori	r24, 0x10	; 16
    1c70:	80 93 e5 01 	sts	0x01E5, r24
    1c74:	80 91 ed 01 	lds	r24, 0x01ED
    1c78:	80 61       	ori	r24, 0x10	; 16
    1c7a:	80 93 ed 01 	sts	0x01ED, r24
    1c7e:	80 91 b4 01 	lds	r24, 0x01B4
    1c82:	88 60       	ori	r24, 0x08	; 8
    1c84:	80 93 b4 01 	sts	0x01B4, r24
    1c88:	80 91 bc 01 	lds	r24, 0x01BC
    1c8c:	88 60       	ori	r24, 0x08	; 8
    1c8e:	80 93 bc 01 	sts	0x01BC, r24
    1c92:	80 91 c4 01 	lds	r24, 0x01C4
    1c96:	88 60       	ori	r24, 0x08	; 8
    1c98:	80 93 c4 01 	sts	0x01C4, r24
    1c9c:	80 91 cc 01 	lds	r24, 0x01CC
    1ca0:	88 60       	ori	r24, 0x08	; 8
    1ca2:	80 93 cc 01 	sts	0x01CC, r24
    1ca6:	80 91 d4 01 	lds	r24, 0x01D4
    1caa:	88 60       	ori	r24, 0x08	; 8
    1cac:	80 93 d4 01 	sts	0x01D4, r24
    1cb0:	80 91 dc 01 	lds	r24, 0x01DC
    1cb4:	88 60       	ori	r24, 0x08	; 8
    1cb6:	80 93 dc 01 	sts	0x01DC, r24
    1cba:	80 91 e4 01 	lds	r24, 0x01E4
    1cbe:	88 60       	ori	r24, 0x08	; 8
    1cc0:	80 93 e4 01 	sts	0x01E4, r24
    1cc4:	80 91 ec 01 	lds	r24, 0x01EC
    1cc8:	88 60       	ori	r24, 0x08	; 8
    1cca:	80 93 ec 01 	sts	0x01EC, r24
    1cce:	0e 94 fe 4e 	call	0x9dfc	; 0x9dfc <rotate_90_deg>
    1cd2:	0e 94 fe 4e 	call	0x9dfc	; 0x9dfc <rotate_90_deg>
    1cd6:	0e 94 fe 4e 	call	0x9dfc	; 0x9dfc <rotate_90_deg>
    1cda:	80 e1       	ldi	r24, 0x10	; 16
    1cdc:	0e 94 da 3e 	call	0x7db4	; 0x7db4 <cube_show_loop_wo_int>
    1ce0:	0e 94 12 0b 	call	0x1624	; 0x1624 <cube_walking_frame_door0_open>
    1ce4:	0e 94 fe 4e 	call	0x9dfc	; 0x9dfc <rotate_90_deg>
    1ce8:	0e 94 fe 4e 	call	0x9dfc	; 0x9dfc <rotate_90_deg>
    1cec:	0e 94 fe 4e 	call	0x9dfc	; 0x9dfc <rotate_90_deg>
    1cf0:	80 e1       	ldi	r24, 0x10	; 16
    1cf2:	0e 94 da 3e 	call	0x7db4	; 0x7db4 <cube_show_loop_wo_int>
    1cf6:	0e 94 12 0b 	call	0x1624	; 0x1624 <cube_walking_frame_door0_open>
    1cfa:	80 91 b6 01 	lds	r24, 0x01B6
    1cfe:	80 61       	ori	r24, 0x10	; 16
    1d00:	80 93 b6 01 	sts	0x01B6, r24
    1d04:	80 91 bf 01 	lds	r24, 0x01BF
    1d08:	80 61       	ori	r24, 0x10	; 16
    1d0a:	80 93 bf 01 	sts	0x01BF, r24
    1d0e:	80 91 cf 01 	lds	r24, 0x01CF
    1d12:	84 60       	ori	r24, 0x04	; 4
    1d14:	80 93 cf 01 	sts	0x01CF, r24
    1d18:	80 91 e7 01 	lds	r24, 0x01E7
    1d1c:	88 61       	ori	r24, 0x18	; 24
    1d1e:	80 93 e7 01 	sts	0x01E7, r24
    1d22:	0e 94 fe 4e 	call	0x9dfc	; 0x9dfc <rotate_90_deg>
    1d26:	0e 94 fe 4e 	call	0x9dfc	; 0x9dfc <rotate_90_deg>
    1d2a:	0e 94 fe 4e 	call	0x9dfc	; 0x9dfc <rotate_90_deg>
    1d2e:	88 e0       	ldi	r24, 0x08	; 8
    1d30:	0e 94 da 3e 	call	0x7db4	; 0x7db4 <cube_show_loop_wo_int>
    1d34:	0e 94 12 0b 	call	0x1624	; 0x1624 <cube_walking_frame_door0_open>
    1d38:	80 91 b7 01 	lds	r24, 0x01B7
    1d3c:	88 61       	ori	r24, 0x18	; 24
    1d3e:	80 93 b7 01 	sts	0x01B7, r24
    1d42:	80 91 bf 01 	lds	r24, 0x01BF
    1d46:	88 61       	ori	r24, 0x18	; 24
    1d48:	80 93 bf 01 	sts	0x01BF, r24
    1d4c:	80 91 c7 01 	lds	r24, 0x01C7
    1d50:	8c 63       	ori	r24, 0x3C	; 60
    1d52:	80 93 c7 01 	sts	0x01C7, r24
    1d56:	80 91 cf 01 	lds	r24, 0x01CF
    1d5a:	8c 63       	ori	r24, 0x3C	; 60
    1d5c:	80 93 cf 01 	sts	0x01CF, r24
    1d60:	80 91 d7 01 	lds	r24, 0x01D7
    1d64:	8c 63       	ori	r24, 0x3C	; 60
    1d66:	80 93 d7 01 	sts	0x01D7, r24
    1d6a:	80 91 df 01 	lds	r24, 0x01DF
    1d6e:	88 61       	ori	r24, 0x18	; 24
    1d70:	80 93 df 01 	sts	0x01DF, r24
    1d74:	80 91 e7 01 	lds	r24, 0x01E7
    1d78:	88 61       	ori	r24, 0x18	; 24
    1d7a:	80 93 e7 01 	sts	0x01E7, r24
    1d7e:	80 91 e7 01 	lds	r24, 0x01E7
    1d82:	88 61       	ori	r24, 0x18	; 24
    1d84:	80 93 e7 01 	sts	0x01E7, r24
    1d88:	80 91 e7 01 	lds	r24, 0x01E7
    1d8c:	88 61       	ori	r24, 0x18	; 24
    1d8e:	80 93 e7 01 	sts	0x01E7, r24
    1d92:	80 91 ef 01 	lds	r24, 0x01EF
    1d96:	88 61       	ori	r24, 0x18	; 24
    1d98:	80 93 ef 01 	sts	0x01EF, r24
    1d9c:	0e 94 fe 4e 	call	0x9dfc	; 0x9dfc <rotate_90_deg>
    1da0:	0e 94 fe 4e 	call	0x9dfc	; 0x9dfc <rotate_90_deg>
    1da4:	0e 94 fe 4e 	call	0x9dfc	; 0x9dfc <rotate_90_deg>
    1da8:	88 e0       	ldi	r24, 0x08	; 8
    1daa:	0e 94 da 3e 	call	0x7db4	; 0x7db4 <cube_show_loop_wo_int>
    1dae:	0e 94 12 0b 	call	0x1624	; 0x1624 <cube_walking_frame_door0_open>
    1db2:	80 91 b4 01 	lds	r24, 0x01B4
    1db6:	88 60       	ori	r24, 0x08	; 8
    1db8:	80 93 b4 01 	sts	0x01B4, r24
    1dbc:	80 91 bd 01 	lds	r24, 0x01BD
    1dc0:	88 60       	ori	r24, 0x08	; 8
    1dc2:	80 93 bd 01 	sts	0x01BD, r24
    1dc6:	80 91 bf 01 	lds	r24, 0x01BF
    1dca:	80 61       	ori	r24, 0x10	; 16
    1dcc:	80 93 bf 01 	sts	0x01BF, r24
    1dd0:	80 91 c4 01 	lds	r24, 0x01C4
    1dd4:	80 62       	ori	r24, 0x20	; 32
    1dd6:	80 93 c4 01 	sts	0x01C4, r24
    1dda:	80 91 c6 01 	lds	r24, 0x01C6
    1dde:	88 61       	ori	r24, 0x18	; 24
    1de0:	80 93 c6 01 	sts	0x01C6, r24
    1de4:	80 91 cd 01 	lds	r24, 0x01CD
    1de8:	80 62       	ori	r24, 0x20	; 32
    1dea:	80 93 cd 01 	sts	0x01CD, r24
    1dee:	80 91 ce 01 	lds	r24, 0x01CE
    1df2:	88 61       	ori	r24, 0x18	; 24
    1df4:	80 93 ce 01 	sts	0x01CE, r24
    1df8:	80 91 cf 01 	lds	r24, 0x01CF
    1dfc:	84 60       	ori	r24, 0x04	; 4
    1dfe:	80 93 cf 01 	sts	0x01CF, r24
    1e02:	80 91 d6 01 	lds	r24, 0x01D6
    1e06:	8c 63       	ori	r24, 0x3C	; 60
    1e08:	80 93 d6 01 	sts	0x01D6, r24
    1e0c:	80 91 de 01 	lds	r24, 0x01DE
    1e10:	88 61       	ori	r24, 0x18	; 24
    1e12:	80 93 de 01 	sts	0x01DE, r24
    1e16:	80 91 e5 01 	lds	r24, 0x01E5
    1e1a:	88 61       	ori	r24, 0x18	; 24
    1e1c:	80 93 e5 01 	sts	0x01E5, r24
    1e20:	80 91 e6 01 	lds	r24, 0x01E6
    1e24:	88 61       	ori	r24, 0x18	; 24
    1e26:	80 93 e6 01 	sts	0x01E6, r24
    1e2a:	80 91 e7 01 	lds	r24, 0x01E7
    1e2e:	88 61       	ori	r24, 0x18	; 24
    1e30:	80 93 e7 01 	sts	0x01E7, r24
    1e34:	80 91 ee 01 	lds	r24, 0x01EE
    1e38:	88 61       	ori	r24, 0x18	; 24
    1e3a:	80 93 ee 01 	sts	0x01EE, r24
    1e3e:	0e 94 fe 4e 	call	0x9dfc	; 0x9dfc <rotate_90_deg>
    1e42:	0e 94 fe 4e 	call	0x9dfc	; 0x9dfc <rotate_90_deg>
    1e46:	0e 94 fe 4e 	call	0x9dfc	; 0x9dfc <rotate_90_deg>
    1e4a:	88 e0       	ldi	r24, 0x08	; 8
    1e4c:	0e 94 da 3e 	call	0x7db4	; 0x7db4 <cube_show_loop_wo_int>
    1e50:	0e 94 12 0b 	call	0x1624	; 0x1624 <cube_walking_frame_door0_open>
    1e54:	80 91 b5 01 	lds	r24, 0x01B5
    1e58:	88 61       	ori	r24, 0x18	; 24
    1e5a:	80 93 b5 01 	sts	0x01B5, r24
    1e5e:	80 91 bd 01 	lds	r24, 0x01BD
    1e62:	88 61       	ori	r24, 0x18	; 24
    1e64:	80 93 bd 01 	sts	0x01BD, r24
    1e68:	80 91 c5 01 	lds	r24, 0x01C5
    1e6c:	8c 63       	ori	r24, 0x3C	; 60
    1e6e:	80 93 c5 01 	sts	0x01C5, r24
    1e72:	80 91 cd 01 	lds	r24, 0x01CD
    1e76:	8c 63       	ori	r24, 0x3C	; 60
    1e78:	80 93 cd 01 	sts	0x01CD, r24
    1e7c:	80 91 d5 01 	lds	r24, 0x01D5
    1e80:	8c 63       	ori	r24, 0x3C	; 60
    1e82:	80 93 d5 01 	sts	0x01D5, r24
    1e86:	80 91 dd 01 	lds	r24, 0x01DD
    1e8a:	88 61       	ori	r24, 0x18	; 24
    1e8c:	80 93 dd 01 	sts	0x01DD, r24
    1e90:	80 91 e4 01 	lds	r24, 0x01E4
    1e94:	88 61       	ori	r24, 0x18	; 24
    1e96:	80 93 e4 01 	sts	0x01E4, r24
    1e9a:	80 91 e5 01 	lds	r24, 0x01E5
    1e9e:	88 61       	ori	r24, 0x18	; 24
    1ea0:	80 93 e5 01 	sts	0x01E5, r24
    1ea4:	80 91 e6 01 	lds	r24, 0x01E6
    1ea8:	88 61       	ori	r24, 0x18	; 24
    1eaa:	80 93 e6 01 	sts	0x01E6, r24
    1eae:	80 91 ed 01 	lds	r24, 0x01ED
    1eb2:	88 61       	ori	r24, 0x18	; 24
    1eb4:	80 93 ed 01 	sts	0x01ED, r24
    1eb8:	0e 94 fe 4e 	call	0x9dfc	; 0x9dfc <rotate_90_deg>
    1ebc:	0e 94 fe 4e 	call	0x9dfc	; 0x9dfc <rotate_90_deg>
    1ec0:	0e 94 fe 4e 	call	0x9dfc	; 0x9dfc <rotate_90_deg>
    1ec4:	88 e0       	ldi	r24, 0x08	; 8
    1ec6:	0e 94 da 3e 	call	0x7db4	; 0x7db4 <cube_show_loop_wo_int>
    1eca:	0e 94 12 0b 	call	0x1624	; 0x1624 <cube_walking_frame_door0_open>
    1ece:	0e 94 de 0b 	call	0x17bc	; 0x17bc <cube_walking_frame0>
    1ed2:	0e 94 fe 4e 	call	0x9dfc	; 0x9dfc <rotate_90_deg>
    1ed6:	0e 94 fe 4e 	call	0x9dfc	; 0x9dfc <rotate_90_deg>
    1eda:	0e 94 fe 4e 	call	0x9dfc	; 0x9dfc <rotate_90_deg>
    1ede:	0e 94 83 09 	call	0x1306	; 0x1306 <cube_walking_frame_static1>
    1ee2:	0e 94 2f 0c 	call	0x185e	; 0x185e <cube_walking_frame1>
    1ee6:	80 e0       	ldi	r24, 0x00	; 0
    1ee8:	90 e0       	ldi	r25, 0x00	; 0
    1eea:	fc 01       	movw	r30, r24
    1eec:	53 e0       	ldi	r21, 0x03	; 3
    1eee:	ee 0f       	add	r30, r30
    1ef0:	ff 1f       	adc	r31, r31
    1ef2:	5a 95       	dec	r21
    1ef4:	e1 f7       	brne	.-8      	; 0x1eee <cube_walking_frame_door0+0x3bc>
    1ef6:	e0 55       	subi	r30, 0x50	; 80
    1ef8:	fe 4f       	sbci	r31, 0xFE	; 254
    1efa:	24 81       	ldd	r18, Z+4	; 0x04
    1efc:	20 64       	ori	r18, 0x40	; 64
    1efe:	24 83       	std	Z+4, r18	; 0x04
    1f00:	25 81       	ldd	r18, Z+5	; 0x05
    1f02:	20 64       	ori	r18, 0x40	; 64
    1f04:	25 83       	std	Z+5, r18	; 0x05
    1f06:	26 81       	ldd	r18, Z+6	; 0x06
    1f08:	20 64       	ori	r18, 0x40	; 64
    1f0a:	26 83       	std	Z+6, r18	; 0x06
    1f0c:	27 81       	ldd	r18, Z+7	; 0x07
    1f0e:	20 64       	ori	r18, 0x40	; 64
    1f10:	27 83       	std	Z+7, r18	; 0x07
    1f12:	01 96       	adiw	r24, 0x01	; 1
    1f14:	88 30       	cpi	r24, 0x08	; 8
    1f16:	91 05       	cpc	r25, r1
    1f18:	41 f7       	brne	.-48     	; 0x1eea <cube_walking_frame_door0+0x3b8>
    1f1a:	0e 94 fe 4e 	call	0x9dfc	; 0x9dfc <rotate_90_deg>
    1f1e:	0e 94 fe 4e 	call	0x9dfc	; 0x9dfc <rotate_90_deg>
    1f22:	0e 94 fe 4e 	call	0x9dfc	; 0x9dfc <rotate_90_deg>
    1f26:	88 e0       	ldi	r24, 0x08	; 8
    1f28:	0e 94 da 3e 	call	0x7db4	; 0x7db4 <cube_show_loop_wo_int>
    1f2c:	0e 94 08 0a 	call	0x1410	; 0x1410 <cube_walking_frame_static2>
    1f30:	0e 94 62 0c 	call	0x18c4	; 0x18c4 <cube_walking_frame2>
    1f34:	80 e0       	ldi	r24, 0x00	; 0
    1f36:	90 e0       	ldi	r25, 0x00	; 0
    1f38:	fc 01       	movw	r30, r24
    1f3a:	43 e0       	ldi	r20, 0x03	; 3
    1f3c:	ee 0f       	add	r30, r30
    1f3e:	ff 1f       	adc	r31, r31
    1f40:	4a 95       	dec	r20
    1f42:	e1 f7       	brne	.-8      	; 0x1f3c <cube_walking_frame_door0+0x40a>
    1f44:	e0 55       	subi	r30, 0x50	; 80
    1f46:	fe 4f       	sbci	r31, 0xFE	; 254
    1f48:	25 81       	ldd	r18, Z+5	; 0x05
    1f4a:	20 64       	ori	r18, 0x40	; 64
    1f4c:	25 83       	std	Z+5, r18	; 0x05
    1f4e:	26 81       	ldd	r18, Z+6	; 0x06
    1f50:	20 64       	ori	r18, 0x40	; 64
    1f52:	26 83       	std	Z+6, r18	; 0x06
    1f54:	27 81       	ldd	r18, Z+7	; 0x07
    1f56:	20 64       	ori	r18, 0x40	; 64
    1f58:	27 83       	std	Z+7, r18	; 0x07
    1f5a:	01 96       	adiw	r24, 0x01	; 1
    1f5c:	88 30       	cpi	r24, 0x08	; 8
    1f5e:	91 05       	cpc	r25, r1
    1f60:	59 f7       	brne	.-42     	; 0x1f38 <cube_walking_frame_door0+0x406>
    1f62:	0e 94 fe 4e 	call	0x9dfc	; 0x9dfc <rotate_90_deg>
    1f66:	0e 94 fe 4e 	call	0x9dfc	; 0x9dfc <rotate_90_deg>
    1f6a:	0e 94 fe 4e 	call	0x9dfc	; 0x9dfc <rotate_90_deg>
    1f6e:	88 e0       	ldi	r24, 0x08	; 8
    1f70:	0e 94 da 3e 	call	0x7db4	; 0x7db4 <cube_show_loop_wo_int>
    1f74:	0e 94 8d 0a 	call	0x151a	; 0x151a <cube_walking_frame_static3>
    1f78:	0e 94 b3 0c 	call	0x1966	; 0x1966 <cube_walking_frame3>
    1f7c:	80 e0       	ldi	r24, 0x00	; 0
    1f7e:	90 e0       	ldi	r25, 0x00	; 0
    1f80:	fc 01       	movw	r30, r24
    1f82:	33 e0       	ldi	r19, 0x03	; 3
    1f84:	ee 0f       	add	r30, r30
    1f86:	ff 1f       	adc	r31, r31
    1f88:	3a 95       	dec	r19
    1f8a:	e1 f7       	brne	.-8      	; 0x1f84 <cube_walking_frame_door0+0x452>
    1f8c:	e0 55       	subi	r30, 0x50	; 80
    1f8e:	fe 4f       	sbci	r31, 0xFE	; 254
    1f90:	26 81       	ldd	r18, Z+6	; 0x06
    1f92:	20 64       	ori	r18, 0x40	; 64
    1f94:	26 83       	std	Z+6, r18	; 0x06
    1f96:	27 81       	ldd	r18, Z+7	; 0x07
    1f98:	20 64       	ori	r18, 0x40	; 64
    1f9a:	27 83       	std	Z+7, r18	; 0x07
    1f9c:	01 96       	adiw	r24, 0x01	; 1
    1f9e:	88 30       	cpi	r24, 0x08	; 8
    1fa0:	91 05       	cpc	r25, r1
    1fa2:	71 f7       	brne	.-36     	; 0x1f80 <cube_walking_frame_door0+0x44e>
    1fa4:	0e 94 fe 4e 	call	0x9dfc	; 0x9dfc <rotate_90_deg>
    1fa8:	0e 94 fe 4e 	call	0x9dfc	; 0x9dfc <rotate_90_deg>
    1fac:	0e 94 fe 4e 	call	0x9dfc	; 0x9dfc <rotate_90_deg>
    1fb0:	88 e0       	ldi	r24, 0x08	; 8
    1fb2:	0e 94 da 3e 	call	0x7db4	; 0x7db4 <cube_show_loop_wo_int>
    1fb6:	0e 94 fe 08 	call	0x11fc	; 0x11fc <cube_walking_frame_static0>
    1fba:	0e 94 de 0b 	call	0x17bc	; 0x17bc <cube_walking_frame0>
    1fbe:	80 e0       	ldi	r24, 0x00	; 0
    1fc0:	90 e0       	ldi	r25, 0x00	; 0
    1fc2:	fc 01       	movw	r30, r24
    1fc4:	23 e0       	ldi	r18, 0x03	; 3
    1fc6:	ee 0f       	add	r30, r30
    1fc8:	ff 1f       	adc	r31, r31
    1fca:	2a 95       	dec	r18
    1fcc:	e1 f7       	brne	.-8      	; 0x1fc6 <cube_walking_frame_door0+0x494>
    1fce:	e0 55       	subi	r30, 0x50	; 80
    1fd0:	fe 4f       	sbci	r31, 0xFE	; 254
    1fd2:	27 81       	ldd	r18, Z+7	; 0x07
    1fd4:	20 64       	ori	r18, 0x40	; 64
    1fd6:	27 83       	std	Z+7, r18	; 0x07
    1fd8:	01 96       	adiw	r24, 0x01	; 1
    1fda:	88 30       	cpi	r24, 0x08	; 8
    1fdc:	91 05       	cpc	r25, r1
    1fde:	89 f7       	brne	.-30     	; 0x1fc2 <cube_walking_frame_door0+0x490>
    1fe0:	0e 94 fe 4e 	call	0x9dfc	; 0x9dfc <rotate_90_deg>
    1fe4:	0e 94 fe 4e 	call	0x9dfc	; 0x9dfc <rotate_90_deg>
    1fe8:	0e 94 fe 4e 	call	0x9dfc	; 0x9dfc <rotate_90_deg>
    1fec:	88 e0       	ldi	r24, 0x08	; 8
    1fee:	0e 94 da 3e 	call	0x7db4	; 0x7db4 <cube_show_loop_wo_int>
    1ff2:	08 95       	ret

00001ff4 <cube_walking>:
    1ff4:	cf 93       	push	r28
    1ff6:	f8 94       	cli
    1ff8:	0e 94 99 0d 	call	0x1b32	; 0x1b32 <cube_walking_frame_door0>
    1ffc:	cd e0       	ldi	r28, 0x0D	; 13
    1ffe:	0e 94 83 09 	call	0x1306	; 0x1306 <cube_walking_frame_static1>
    2002:	0e 94 2f 0c 	call	0x185e	; 0x185e <cube_walking_frame1>
    2006:	0e 94 fe 4e 	call	0x9dfc	; 0x9dfc <rotate_90_deg>
    200a:	0e 94 fe 4e 	call	0x9dfc	; 0x9dfc <rotate_90_deg>
    200e:	0e 94 fe 4e 	call	0x9dfc	; 0x9dfc <rotate_90_deg>
    2012:	88 e0       	ldi	r24, 0x08	; 8
    2014:	0e 94 da 3e 	call	0x7db4	; 0x7db4 <cube_show_loop_wo_int>
    2018:	0e 94 08 0a 	call	0x1410	; 0x1410 <cube_walking_frame_static2>
    201c:	0e 94 62 0c 	call	0x18c4	; 0x18c4 <cube_walking_frame2>
    2020:	0e 94 fe 4e 	call	0x9dfc	; 0x9dfc <rotate_90_deg>
    2024:	0e 94 fe 4e 	call	0x9dfc	; 0x9dfc <rotate_90_deg>
    2028:	0e 94 fe 4e 	call	0x9dfc	; 0x9dfc <rotate_90_deg>
    202c:	88 e0       	ldi	r24, 0x08	; 8
    202e:	0e 94 da 3e 	call	0x7db4	; 0x7db4 <cube_show_loop_wo_int>
    2032:	0e 94 8d 0a 	call	0x151a	; 0x151a <cube_walking_frame_static3>
    2036:	0e 94 b3 0c 	call	0x1966	; 0x1966 <cube_walking_frame3>
    203a:	0e 94 fe 4e 	call	0x9dfc	; 0x9dfc <rotate_90_deg>
    203e:	0e 94 fe 4e 	call	0x9dfc	; 0x9dfc <rotate_90_deg>
    2042:	0e 94 fe 4e 	call	0x9dfc	; 0x9dfc <rotate_90_deg>
    2046:	88 e0       	ldi	r24, 0x08	; 8
    2048:	0e 94 da 3e 	call	0x7db4	; 0x7db4 <cube_show_loop_wo_int>
    204c:	0e 94 fe 08 	call	0x11fc	; 0x11fc <cube_walking_frame_static0>
    2050:	0e 94 de 0b 	call	0x17bc	; 0x17bc <cube_walking_frame0>
    2054:	0e 94 fe 4e 	call	0x9dfc	; 0x9dfc <rotate_90_deg>
    2058:	0e 94 fe 4e 	call	0x9dfc	; 0x9dfc <rotate_90_deg>
    205c:	0e 94 fe 4e 	call	0x9dfc	; 0x9dfc <rotate_90_deg>
    2060:	88 e0       	ldi	r24, 0x08	; 8
    2062:	0e 94 da 3e 	call	0x7db4	; 0x7db4 <cube_show_loop_wo_int>
    2066:	c1 50       	subi	r28, 0x01	; 1
    2068:	51 f6       	brne	.-108    	; 0x1ffe <cube_walking+0xa>
    206a:	0e 94 e6 0c 	call	0x19cc	; 0x19cc <cube_walking_walk_out>
    206e:	78 94       	sei
    2070:	cf 91       	pop	r28
    2072:	08 95       	ret

00002074 <cube_stripes>:
    2074:	2f 92       	push	r2
    2076:	3f 92       	push	r3
    2078:	4f 92       	push	r4
    207a:	5f 92       	push	r5
    207c:	6f 92       	push	r6
    207e:	7f 92       	push	r7
    2080:	8f 92       	push	r8
    2082:	9f 92       	push	r9
    2084:	af 92       	push	r10
    2086:	bf 92       	push	r11
    2088:	cf 92       	push	r12
    208a:	df 92       	push	r13
    208c:	ef 92       	push	r14
    208e:	ff 92       	push	r15
    2090:	0f 93       	push	r16
    2092:	1f 93       	push	r17
    2094:	cf 93       	push	r28
    2096:	df 93       	push	r29
    2098:	0e 94 9d 3d 	call	0x7b3a	; 0x7b3a <cube_clear>
    209c:	c0 e0       	ldi	r28, 0x00	; 0
    209e:	d0 e0       	ldi	r29, 0x00	; 0
    20a0:	01 e0       	ldi	r16, 0x01	; 1
    20a2:	10 e0       	ldi	r17, 0x00	; 0
    20a4:	87 e0       	ldi	r24, 0x07	; 7
    20a6:	e8 2e       	mov	r14, r24
    20a8:	f1 2c       	mov	r15, r1
    20aa:	30 91 b0 01 	lds	r19, 0x01B0
    20ae:	c8 01       	movw	r24, r16
    20b0:	0c 2e       	mov	r0, r28
    20b2:	02 c0       	rjmp	.+4      	; 0x20b8 <cube_stripes+0x44>
    20b4:	88 0f       	add	r24, r24
    20b6:	99 1f       	adc	r25, r25
    20b8:	0a 94       	dec	r0
    20ba:	e2 f7       	brpl	.-8      	; 0x20b4 <cube_stripes+0x40>
    20bc:	28 2f       	mov	r18, r24
    20be:	38 2b       	or	r19, r24
    20c0:	30 93 b0 01 	sts	0x01B0, r19
    20c4:	30 91 bf 01 	lds	r19, 0x01BF
    20c8:	c7 01       	movw	r24, r14
    20ca:	8c 1b       	sub	r24, r28
    20cc:	9d 0b       	sbc	r25, r29
    20ce:	a8 01       	movw	r20, r16
    20d0:	02 c0       	rjmp	.+4      	; 0x20d6 <cube_stripes+0x62>
    20d2:	44 0f       	add	r20, r20
    20d4:	55 1f       	adc	r21, r21
    20d6:	8a 95       	dec	r24
    20d8:	e2 f7       	brpl	.-8      	; 0x20d2 <cube_stripes+0x5e>
    20da:	ca 01       	movw	r24, r20
    20dc:	34 2b       	or	r19, r20
    20de:	30 93 bf 01 	sts	0x01BF, r19
    20e2:	90 91 c0 01 	lds	r25, 0x01C0
    20e6:	92 2b       	or	r25, r18
    20e8:	90 93 c0 01 	sts	0x01C0, r25
    20ec:	90 91 cf 01 	lds	r25, 0x01CF
    20f0:	98 2b       	or	r25, r24
    20f2:	90 93 cf 01 	sts	0x01CF, r25
    20f6:	90 91 d0 01 	lds	r25, 0x01D0
    20fa:	92 2b       	or	r25, r18
    20fc:	90 93 d0 01 	sts	0x01D0, r25
    2100:	90 91 df 01 	lds	r25, 0x01DF
    2104:	98 2b       	or	r25, r24
    2106:	90 93 df 01 	sts	0x01DF, r25
    210a:	90 91 e0 01 	lds	r25, 0x01E0
    210e:	92 2b       	or	r25, r18
    2110:	90 93 e0 01 	sts	0x01E0, r25
    2114:	90 91 ef 01 	lds	r25, 0x01EF
    2118:	98 2b       	or	r25, r24
    211a:	90 93 ef 01 	sts	0x01EF, r25
    211e:	86 e0       	ldi	r24, 0x06	; 6
    2120:	0e 94 c8 3e 	call	0x7d90	; 0x7d90 <cube_show_loop>
    2124:	21 96       	adiw	r28, 0x01	; 1
    2126:	c8 30       	cpi	r28, 0x08	; 8
    2128:	d1 05       	cpc	r29, r1
    212a:	09 f0       	breq	.+2      	; 0x212e <cube_stripes+0xba>
    212c:	be cf       	rjmp	.-132    	; 0x20aa <cube_stripes+0x36>
    212e:	c1 e0       	ldi	r28, 0x01	; 1
    2130:	d0 e0       	ldi	r29, 0x00	; 0
    2132:	b1 e0       	ldi	r27, 0x01	; 1
    2134:	6b 2e       	mov	r6, r27
    2136:	71 2c       	mov	r7, r1
    2138:	17 e0       	ldi	r17, 0x07	; 7
    213a:	41 2e       	mov	r4, r17
    213c:	51 2c       	mov	r5, r1
    213e:	0e 94 9d 3d 	call	0x7b3a	; 0x7b3a <cube_clear>
    2142:	40 e0       	ldi	r20, 0x00	; 0
    2144:	50 e0       	ldi	r21, 0x00	; 0
    2146:	fe 01       	movw	r30, r28
    2148:	e0 55       	subi	r30, 0x50	; 80
    214a:	fe 4f       	sbci	r31, 0xFE	; 254
    214c:	c2 01       	movw	r24, r4
    214e:	8c 1b       	sub	r24, r28
    2150:	9d 0b       	sbc	r25, r29
    2152:	80 55       	subi	r24, 0x50	; 80
    2154:	9e 4f       	sbci	r25, 0xFE	; 254
    2156:	bc 01       	movw	r22, r24
    2158:	68 5f       	subi	r22, 0xF8	; 248
    215a:	7f 4f       	sbci	r23, 0xFF	; 255
    215c:	8f 01       	movw	r16, r30
    215e:	00 5f       	subi	r16, 0xF0	; 240
    2160:	1f 4f       	sbci	r17, 0xFF	; 255
    2162:	a8 e1       	ldi	r26, 0x18	; 24
    2164:	ea 2e       	mov	r14, r26
    2166:	f1 2c       	mov	r15, r1
    2168:	e8 0e       	add	r14, r24
    216a:	f9 1e       	adc	r15, r25
    216c:	b0 e2       	ldi	r27, 0x20	; 32
    216e:	cb 2e       	mov	r12, r27
    2170:	d1 2c       	mov	r13, r1
    2172:	ce 0e       	add	r12, r30
    2174:	df 1e       	adc	r13, r31
    2176:	28 e2       	ldi	r18, 0x28	; 40
    2178:	a2 2e       	mov	r10, r18
    217a:	b1 2c       	mov	r11, r1
    217c:	a8 0e       	add	r10, r24
    217e:	b9 1e       	adc	r11, r25
    2180:	30 e3       	ldi	r19, 0x30	; 48
    2182:	83 2e       	mov	r8, r19
    2184:	91 2c       	mov	r9, r1
    2186:	8e 0e       	add	r8, r30
    2188:	9f 1e       	adc	r9, r31
    218a:	a8 e3       	ldi	r26, 0x38	; 56
    218c:	2a 2e       	mov	r2, r26
    218e:	31 2c       	mov	r3, r1
    2190:	28 0e       	add	r2, r24
    2192:	39 1e       	adc	r3, r25
    2194:	20 81       	ld	r18, Z
    2196:	c3 01       	movw	r24, r6
    2198:	04 2e       	mov	r0, r20
    219a:	02 c0       	rjmp	.+4      	; 0x21a0 <cube_stripes+0x12c>
    219c:	88 0f       	add	r24, r24
    219e:	99 1f       	adc	r25, r25
    21a0:	0a 94       	dec	r0
    21a2:	e2 f7       	brpl	.-8      	; 0x219c <cube_stripes+0x128>
    21a4:	28 2b       	or	r18, r24
    21a6:	20 83       	st	Z, r18
    21a8:	db 01       	movw	r26, r22
    21aa:	9c 91       	ld	r25, X
    21ac:	98 2b       	or	r25, r24
    21ae:	9c 93       	st	X, r25
    21b0:	d8 01       	movw	r26, r16
    21b2:	9c 91       	ld	r25, X
    21b4:	98 2b       	or	r25, r24
    21b6:	9c 93       	st	X, r25
    21b8:	d7 01       	movw	r26, r14
    21ba:	9c 91       	ld	r25, X
    21bc:	98 2b       	or	r25, r24
    21be:	9c 93       	st	X, r25
    21c0:	d6 01       	movw	r26, r12
    21c2:	9c 91       	ld	r25, X
    21c4:	98 2b       	or	r25, r24
    21c6:	9c 93       	st	X, r25
    21c8:	d5 01       	movw	r26, r10
    21ca:	9c 91       	ld	r25, X
    21cc:	98 2b       	or	r25, r24
    21ce:	9c 93       	st	X, r25
    21d0:	d4 01       	movw	r26, r8
    21d2:	9c 91       	ld	r25, X
    21d4:	98 2b       	or	r25, r24
    21d6:	9c 93       	st	X, r25
    21d8:	d1 01       	movw	r26, r2
    21da:	9c 91       	ld	r25, X
    21dc:	98 2b       	or	r25, r24
    21de:	9c 93       	st	X, r25
    21e0:	4f 5f       	subi	r20, 0xFF	; 255
    21e2:	5f 4f       	sbci	r21, 0xFF	; 255
    21e4:	48 30       	cpi	r20, 0x08	; 8
    21e6:	51 05       	cpc	r21, r1
    21e8:	a9 f6       	brne	.-86     	; 0x2194 <cube_stripes+0x120>
    21ea:	86 e0       	ldi	r24, 0x06	; 6
    21ec:	0e 94 c8 3e 	call	0x7d90	; 0x7d90 <cube_show_loop>
    21f0:	21 96       	adiw	r28, 0x01	; 1
    21f2:	c8 30       	cpi	r28, 0x08	; 8
    21f4:	d1 05       	cpc	r29, r1
    21f6:	09 f0       	breq	.+2      	; 0x21fa <cube_stripes+0x186>
    21f8:	a2 cf       	rjmp	.-188    	; 0x213e <cube_stripes+0xca>
    21fa:	df 91       	pop	r29
    21fc:	cf 91       	pop	r28
    21fe:	1f 91       	pop	r17
    2200:	0f 91       	pop	r16
    2202:	ff 90       	pop	r15
    2204:	ef 90       	pop	r14
    2206:	df 90       	pop	r13
    2208:	cf 90       	pop	r12
    220a:	bf 90       	pop	r11
    220c:	af 90       	pop	r10
    220e:	9f 90       	pop	r9
    2210:	8f 90       	pop	r8
    2212:	7f 90       	pop	r7
    2214:	6f 90       	pop	r6
    2216:	5f 90       	pop	r5
    2218:	4f 90       	pop	r4
    221a:	3f 90       	pop	r3
    221c:	2f 90       	pop	r2
    221e:	08 95       	ret

00002220 <cube2_move_y_fwd>:
    2220:	cf 93       	push	r28
    2222:	df 93       	push	r29
    2224:	ec 01       	movw	r28, r24
    2226:	e6 2f       	mov	r30, r22
    2228:	f0 e0       	ldi	r31, 0x00	; 0
    222a:	df 01       	movw	r26, r30
    222c:	11 96       	adiw	r26, 0x01	; 1
    222e:	aa 0f       	add	r26, r26
    2230:	bb 1f       	adc	r27, r27
    2232:	aa 0f       	add	r26, r26
    2234:	bb 1f       	adc	r27, r27
    2236:	a8 0f       	add	r26, r24
    2238:	b9 1f       	adc	r27, r25
    223a:	50 e0       	ldi	r21, 0x00	; 0
    223c:	a4 0f       	add	r26, r20
    223e:	b5 1f       	adc	r27, r21
    2240:	8c 91       	ld	r24, X
    2242:	90 e0       	ldi	r25, 0x00	; 0
    2244:	02 2e       	mov	r0, r18
    2246:	02 c0       	rjmp	.+4      	; 0x224c <cube2_move_y_fwd+0x2c>
    2248:	95 95       	asr	r25
    224a:	87 95       	ror	r24
    224c:	0a 94       	dec	r0
    224e:	e2 f7       	brpl	.-8      	; 0x2248 <cube2_move_y_fwd+0x28>
    2250:	80 fd       	sbrc	r24, 0
    2252:	19 c0       	rjmp	.+50     	; 0x2286 <cube2_move_y_fwd+0x66>
    2254:	ee 0f       	add	r30, r30
    2256:	ff 1f       	adc	r31, r31
    2258:	ee 0f       	add	r30, r30
    225a:	ff 1f       	adc	r31, r31
    225c:	ec 0f       	add	r30, r28
    225e:	fd 1f       	adc	r31, r29
    2260:	81 e0       	ldi	r24, 0x01	; 1
    2262:	90 e0       	ldi	r25, 0x00	; 0
    2264:	02 c0       	rjmp	.+4      	; 0x226a <cube2_move_y_fwd+0x4a>
    2266:	88 0f       	add	r24, r24
    2268:	99 1f       	adc	r25, r25
    226a:	2a 95       	dec	r18
    226c:	e2 f7       	brpl	.-8      	; 0x2266 <cube2_move_y_fwd+0x46>
    226e:	e4 0f       	add	r30, r20
    2270:	f5 1f       	adc	r31, r21
    2272:	98 2f       	mov	r25, r24
    2274:	90 95       	com	r25
    2276:	20 81       	ld	r18, Z
    2278:	92 23       	and	r25, r18
    227a:	90 83       	st	Z, r25
    227c:	9c 91       	ld	r25, X
    227e:	98 2b       	or	r25, r24
    2280:	9c 93       	st	X, r25
    2282:	80 e0       	ldi	r24, 0x00	; 0
    2284:	01 c0       	rjmp	.+2      	; 0x2288 <cube2_move_y_fwd+0x68>
    2286:	81 e0       	ldi	r24, 0x01	; 1
    2288:	df 91       	pop	r29
    228a:	cf 91       	pop	r28
    228c:	08 95       	ret

0000228e <cube2_move_y_rev>:
    228e:	cf 93       	push	r28
    2290:	df 93       	push	r29
    2292:	ec 01       	movw	r28, r24
    2294:	e6 2f       	mov	r30, r22
    2296:	f0 e0       	ldi	r31, 0x00	; 0
    2298:	df 01       	movw	r26, r30
    229a:	11 97       	sbiw	r26, 0x01	; 1
    229c:	aa 0f       	add	r26, r26
    229e:	bb 1f       	adc	r27, r27
    22a0:	aa 0f       	add	r26, r26
    22a2:	bb 1f       	adc	r27, r27
    22a4:	a8 0f       	add	r26, r24
    22a6:	b9 1f       	adc	r27, r25
    22a8:	50 e0       	ldi	r21, 0x00	; 0
    22aa:	a4 0f       	add	r26, r20
    22ac:	b5 1f       	adc	r27, r21
    22ae:	8c 91       	ld	r24, X
    22b0:	90 e0       	ldi	r25, 0x00	; 0
    22b2:	02 2e       	mov	r0, r18
    22b4:	02 c0       	rjmp	.+4      	; 0x22ba <cube2_move_y_rev+0x2c>
    22b6:	95 95       	asr	r25
    22b8:	87 95       	ror	r24
    22ba:	0a 94       	dec	r0
    22bc:	e2 f7       	brpl	.-8      	; 0x22b6 <cube2_move_y_rev+0x28>
    22be:	80 fd       	sbrc	r24, 0
    22c0:	19 c0       	rjmp	.+50     	; 0x22f4 <cube2_move_y_rev+0x66>
    22c2:	ee 0f       	add	r30, r30
    22c4:	ff 1f       	adc	r31, r31
    22c6:	ee 0f       	add	r30, r30
    22c8:	ff 1f       	adc	r31, r31
    22ca:	ec 0f       	add	r30, r28
    22cc:	fd 1f       	adc	r31, r29
    22ce:	81 e0       	ldi	r24, 0x01	; 1
    22d0:	90 e0       	ldi	r25, 0x00	; 0
    22d2:	02 c0       	rjmp	.+4      	; 0x22d8 <cube2_move_y_rev+0x4a>
    22d4:	88 0f       	add	r24, r24
    22d6:	99 1f       	adc	r25, r25
    22d8:	2a 95       	dec	r18
    22da:	e2 f7       	brpl	.-8      	; 0x22d4 <cube2_move_y_rev+0x46>
    22dc:	e4 0f       	add	r30, r20
    22de:	f5 1f       	adc	r31, r21
    22e0:	98 2f       	mov	r25, r24
    22e2:	90 95       	com	r25
    22e4:	20 81       	ld	r18, Z
    22e6:	92 23       	and	r25, r18
    22e8:	90 83       	st	Z, r25
    22ea:	9c 91       	ld	r25, X
    22ec:	98 2b       	or	r25, r24
    22ee:	9c 93       	st	X, r25
    22f0:	80 e0       	ldi	r24, 0x00	; 0
    22f2:	01 c0       	rjmp	.+2      	; 0x22f6 <cube2_move_y_rev+0x68>
    22f4:	81 e0       	ldi	r24, 0x01	; 1
    22f6:	df 91       	pop	r29
    22f8:	cf 91       	pop	r28
    22fa:	08 95       	ret

000022fc <cube2_move_x_fwd>:
    22fc:	70 e0       	ldi	r23, 0x00	; 0
    22fe:	66 0f       	add	r22, r22
    2300:	77 1f       	adc	r23, r23
    2302:	66 0f       	add	r22, r22
    2304:	77 1f       	adc	r23, r23
    2306:	68 0f       	add	r22, r24
    2308:	79 1f       	adc	r23, r25
    230a:	50 e0       	ldi	r21, 0x00	; 0
    230c:	fa 01       	movw	r30, r20
    230e:	31 96       	adiw	r30, 0x01	; 1
    2310:	e6 0f       	add	r30, r22
    2312:	f7 1f       	adc	r31, r23
    2314:	80 81       	ld	r24, Z
    2316:	90 e0       	ldi	r25, 0x00	; 0
    2318:	02 2e       	mov	r0, r18
    231a:	02 c0       	rjmp	.+4      	; 0x2320 <cube2_move_x_fwd+0x24>
    231c:	95 95       	asr	r25
    231e:	87 95       	ror	r24
    2320:	0a 94       	dec	r0
    2322:	e2 f7       	brpl	.-8      	; 0x231c <cube2_move_x_fwd+0x20>
    2324:	80 fd       	sbrc	r24, 0
    2326:	14 c0       	rjmp	.+40     	; 0x2350 <cube2_move_x_fwd+0x54>
    2328:	81 e0       	ldi	r24, 0x01	; 1
    232a:	90 e0       	ldi	r25, 0x00	; 0
    232c:	02 c0       	rjmp	.+4      	; 0x2332 <cube2_move_x_fwd+0x36>
    232e:	88 0f       	add	r24, r24
    2330:	99 1f       	adc	r25, r25
    2332:	2a 95       	dec	r18
    2334:	e2 f7       	brpl	.-8      	; 0x232e <cube2_move_x_fwd+0x32>
    2336:	db 01       	movw	r26, r22
    2338:	a4 0f       	add	r26, r20
    233a:	b5 1f       	adc	r27, r21
    233c:	98 2f       	mov	r25, r24
    233e:	90 95       	com	r25
    2340:	2c 91       	ld	r18, X
    2342:	92 23       	and	r25, r18
    2344:	9c 93       	st	X, r25
    2346:	90 81       	ld	r25, Z
    2348:	98 2b       	or	r25, r24
    234a:	90 83       	st	Z, r25
    234c:	80 e0       	ldi	r24, 0x00	; 0
    234e:	08 95       	ret
    2350:	81 e0       	ldi	r24, 0x01	; 1
    2352:	08 95       	ret

00002354 <cube2_move_x_rev>:
    2354:	70 e0       	ldi	r23, 0x00	; 0
    2356:	66 0f       	add	r22, r22
    2358:	77 1f       	adc	r23, r23
    235a:	66 0f       	add	r22, r22
    235c:	77 1f       	adc	r23, r23
    235e:	68 0f       	add	r22, r24
    2360:	79 1f       	adc	r23, r25
    2362:	50 e0       	ldi	r21, 0x00	; 0
    2364:	fa 01       	movw	r30, r20
    2366:	31 97       	sbiw	r30, 0x01	; 1
    2368:	e6 0f       	add	r30, r22
    236a:	f7 1f       	adc	r31, r23
    236c:	80 81       	ld	r24, Z
    236e:	90 e0       	ldi	r25, 0x00	; 0
    2370:	02 2e       	mov	r0, r18
    2372:	02 c0       	rjmp	.+4      	; 0x2378 <cube2_move_x_rev+0x24>
    2374:	95 95       	asr	r25
    2376:	87 95       	ror	r24
    2378:	0a 94       	dec	r0
    237a:	e2 f7       	brpl	.-8      	; 0x2374 <cube2_move_x_rev+0x20>
    237c:	80 fd       	sbrc	r24, 0
    237e:	14 c0       	rjmp	.+40     	; 0x23a8 <cube2_move_x_rev+0x54>
    2380:	81 e0       	ldi	r24, 0x01	; 1
    2382:	90 e0       	ldi	r25, 0x00	; 0
    2384:	02 c0       	rjmp	.+4      	; 0x238a <cube2_move_x_rev+0x36>
    2386:	88 0f       	add	r24, r24
    2388:	99 1f       	adc	r25, r25
    238a:	2a 95       	dec	r18
    238c:	e2 f7       	brpl	.-8      	; 0x2386 <cube2_move_x_rev+0x32>
    238e:	db 01       	movw	r26, r22
    2390:	a4 0f       	add	r26, r20
    2392:	b5 1f       	adc	r27, r21
    2394:	98 2f       	mov	r25, r24
    2396:	90 95       	com	r25
    2398:	2c 91       	ld	r18, X
    239a:	92 23       	and	r25, r18
    239c:	9c 93       	st	X, r25
    239e:	90 81       	ld	r25, Z
    23a0:	98 2b       	or	r25, r24
    23a2:	90 83       	st	Z, r25
    23a4:	80 e0       	ldi	r24, 0x00	; 0
    23a6:	08 95       	ret
    23a8:	81 e0       	ldi	r24, 0x01	; 1
    23aa:	08 95       	ret

000023ac <cube2_move_z_fwd>:
    23ac:	e6 2f       	mov	r30, r22
    23ae:	f0 e0       	ldi	r31, 0x00	; 0
    23b0:	ee 0f       	add	r30, r30
    23b2:	ff 1f       	adc	r31, r31
    23b4:	ee 0f       	add	r30, r30
    23b6:	ff 1f       	adc	r31, r31
    23b8:	e8 0f       	add	r30, r24
    23ba:	f9 1f       	adc	r31, r25
    23bc:	e4 0f       	add	r30, r20
    23be:	f1 1d       	adc	r31, r1
    23c0:	60 81       	ld	r22, Z
    23c2:	82 2f       	mov	r24, r18
    23c4:	90 e0       	ldi	r25, 0x00	; 0
    23c6:	01 96       	adiw	r24, 0x01	; 1
    23c8:	46 2f       	mov	r20, r22
    23ca:	50 e0       	ldi	r21, 0x00	; 0
    23cc:	08 2e       	mov	r0, r24
    23ce:	02 c0       	rjmp	.+4      	; 0x23d4 <cube2_move_z_fwd+0x28>
    23d0:	55 95       	asr	r21
    23d2:	47 95       	ror	r20
    23d4:	0a 94       	dec	r0
    23d6:	e2 f7       	brpl	.-8      	; 0x23d0 <cube2_move_z_fwd+0x24>
    23d8:	40 fd       	sbrc	r20, 0
    23da:	15 c0       	rjmp	.+42     	; 0x2406 <cube2_move_z_fwd+0x5a>
    23dc:	41 e0       	ldi	r20, 0x01	; 1
    23de:	50 e0       	ldi	r21, 0x00	; 0
    23e0:	da 01       	movw	r26, r20
    23e2:	02 c0       	rjmp	.+4      	; 0x23e8 <cube2_move_z_fwd+0x3c>
    23e4:	aa 0f       	add	r26, r26
    23e6:	bb 1f       	adc	r27, r27
    23e8:	2a 95       	dec	r18
    23ea:	e2 f7       	brpl	.-8      	; 0x23e4 <cube2_move_z_fwd+0x38>
    23ec:	9d 01       	movw	r18, r26
    23ee:	20 95       	com	r18
    23f0:	26 23       	and	r18, r22
    23f2:	ba 01       	movw	r22, r20
    23f4:	02 c0       	rjmp	.+4      	; 0x23fa <cube2_move_z_fwd+0x4e>
    23f6:	66 0f       	add	r22, r22
    23f8:	77 1f       	adc	r23, r23
    23fa:	8a 95       	dec	r24
    23fc:	e2 f7       	brpl	.-8      	; 0x23f6 <cube2_move_z_fwd+0x4a>
    23fe:	26 2b       	or	r18, r22
    2400:	20 83       	st	Z, r18
    2402:	80 e0       	ldi	r24, 0x00	; 0
    2404:	08 95       	ret
    2406:	81 e0       	ldi	r24, 0x01	; 1
    2408:	08 95       	ret

0000240a <cube2_move_z_rev>:
    240a:	e6 2f       	mov	r30, r22
    240c:	f0 e0       	ldi	r31, 0x00	; 0
    240e:	ee 0f       	add	r30, r30
    2410:	ff 1f       	adc	r31, r31
    2412:	ee 0f       	add	r30, r30
    2414:	ff 1f       	adc	r31, r31
    2416:	e8 0f       	add	r30, r24
    2418:	f9 1f       	adc	r31, r25
    241a:	e4 0f       	add	r30, r20
    241c:	f1 1d       	adc	r31, r1
    241e:	60 81       	ld	r22, Z
    2420:	82 2f       	mov	r24, r18
    2422:	90 e0       	ldi	r25, 0x00	; 0
    2424:	01 97       	sbiw	r24, 0x01	; 1
    2426:	46 2f       	mov	r20, r22
    2428:	50 e0       	ldi	r21, 0x00	; 0
    242a:	08 2e       	mov	r0, r24
    242c:	02 c0       	rjmp	.+4      	; 0x2432 <cube2_move_z_rev+0x28>
    242e:	55 95       	asr	r21
    2430:	47 95       	ror	r20
    2432:	0a 94       	dec	r0
    2434:	e2 f7       	brpl	.-8      	; 0x242e <cube2_move_z_rev+0x24>
    2436:	40 fd       	sbrc	r20, 0
    2438:	15 c0       	rjmp	.+42     	; 0x2464 <cube2_move_z_rev+0x5a>
    243a:	41 e0       	ldi	r20, 0x01	; 1
    243c:	50 e0       	ldi	r21, 0x00	; 0
    243e:	da 01       	movw	r26, r20
    2440:	02 c0       	rjmp	.+4      	; 0x2446 <cube2_move_z_rev+0x3c>
    2442:	aa 0f       	add	r26, r26
    2444:	bb 1f       	adc	r27, r27
    2446:	2a 95       	dec	r18
    2448:	e2 f7       	brpl	.-8      	; 0x2442 <cube2_move_z_rev+0x38>
    244a:	9d 01       	movw	r18, r26
    244c:	20 95       	com	r18
    244e:	26 23       	and	r18, r22
    2450:	ba 01       	movw	r22, r20
    2452:	02 c0       	rjmp	.+4      	; 0x2458 <cube2_move_z_rev+0x4e>
    2454:	66 0f       	add	r22, r22
    2456:	77 1f       	adc	r23, r23
    2458:	8a 95       	dec	r24
    245a:	e2 f7       	brpl	.-8      	; 0x2454 <cube2_move_z_rev+0x4a>
    245c:	26 2b       	or	r18, r22
    245e:	20 83       	st	Z, r18
    2460:	80 e0       	ldi	r24, 0x00	; 0
    2462:	08 95       	ret
    2464:	81 e0       	ldi	r24, 0x01	; 1
    2466:	08 95       	ret

00002468 <cube_2_auto_show>:
    2468:	2f 92       	push	r2
    246a:	3f 92       	push	r3
    246c:	4f 92       	push	r4
    246e:	5f 92       	push	r5
    2470:	6f 92       	push	r6
    2472:	7f 92       	push	r7
    2474:	8f 92       	push	r8
    2476:	9f 92       	push	r9
    2478:	af 92       	push	r10
    247a:	bf 92       	push	r11
    247c:	cf 92       	push	r12
    247e:	df 92       	push	r13
    2480:	ef 92       	push	r14
    2482:	ff 92       	push	r15
    2484:	0f 93       	push	r16
    2486:	1f 93       	push	r17
    2488:	cf 93       	push	r28
    248a:	df 93       	push	r29
    248c:	00 d0       	rcall	.+0      	; 0x248e <cube_2_auto_show+0x26>
    248e:	00 d0       	rcall	.+0      	; 0x2490 <cube_2_auto_show+0x28>
    2490:	00 d0       	rcall	.+0      	; 0x2492 <cube_2_auto_show+0x2a>
    2492:	cd b7       	in	r28, 0x3d	; 61
    2494:	de b7       	in	r29, 0x3e	; 62
    2496:	3c 01       	movw	r6, r24
    2498:	51 e0       	ldi	r21, 0x01	; 1
    249a:	c5 2e       	mov	r12, r21
    249c:	d1 2c       	mov	r13, r1
    249e:	ee 24       	eor	r14, r14
    24a0:	ff 24       	eor	r15, r15
    24a2:	61 e0       	ldi	r22, 0x01	; 1
    24a4:	86 2e       	mov	r8, r22
    24a6:	91 2c       	mov	r9, r1
    24a8:	8c 2d       	mov	r24, r12
    24aa:	0e 94 b4 3d 	call	0x7b68	; 0x7b68 <cube_clear_layer>
    24ae:	8e 2d       	mov	r24, r14
    24b0:	0e 94 b4 3d 	call	0x7b68	; 0x7b68 <cube_clear_layer>
    24b4:	53 01       	movw	r10, r6
    24b6:	01 e0       	ldi	r16, 0x01	; 1
    24b8:	10 e0       	ldi	r17, 0x00	; 0
    24ba:	17 01       	movw	r2, r14
    24bc:	33 e0       	ldi	r19, 0x03	; 3
    24be:	22 0c       	add	r2, r2
    24c0:	33 1c       	adc	r3, r3
    24c2:	3a 95       	dec	r19
    24c4:	e1 f7       	brne	.-8      	; 0x24be <cube_2_auto_show+0x56>
    24c6:	c6 01       	movw	r24, r12
    24c8:	43 e0       	ldi	r20, 0x03	; 3
    24ca:	88 0f       	add	r24, r24
    24cc:	99 1f       	adc	r25, r25
    24ce:	4a 95       	dec	r20
    24d0:	e1 f7       	brne	.-8      	; 0x24ca <cube_2_auto_show+0x62>
    24d2:	9a 83       	std	Y+2, r25	; 0x02
    24d4:	89 83       	std	Y+1, r24	; 0x01
    24d6:	4e c0       	rjmp	.+156    	; 0x2574 <cube_2_auto_show+0x10c>
    24d8:	f5 01       	movw	r30, r10
    24da:	80 81       	ld	r24, Z
    24dc:	90 e0       	ldi	r25, 0x00	; 0
    24de:	06 2e       	mov	r0, r22
    24e0:	02 c0       	rjmp	.+4      	; 0x24e6 <cube_2_auto_show+0x7e>
    24e2:	95 95       	asr	r25
    24e4:	87 95       	ror	r24
    24e6:	0a 94       	dec	r0
    24e8:	e2 f7       	brpl	.-8      	; 0x24e2 <cube_2_auto_show+0x7a>
    24ea:	80 ff       	sbrs	r24, 0
    24ec:	30 c0       	rjmp	.+96     	; 0x254e <cube_2_auto_show+0xe6>
    24ee:	ed 81       	ldd	r30, Y+5	; 0x05
    24f0:	fe 81       	ldd	r31, Y+6	; 0x06
    24f2:	30 81       	ld	r19, Z
    24f4:	cb 01       	movw	r24, r22
    24f6:	88 0f       	add	r24, r24
    24f8:	99 1f       	adc	r25, r25
    24fa:	f4 01       	movw	r30, r8
    24fc:	02 c0       	rjmp	.+4      	; 0x2502 <cube_2_auto_show+0x9a>
    24fe:	ee 0f       	add	r30, r30
    2500:	ff 1f       	adc	r31, r31
    2502:	8a 95       	dec	r24
    2504:	e2 f7       	brpl	.-8      	; 0x24fe <cube_2_auto_show+0x96>
    2506:	2e 2f       	mov	r18, r30
    2508:	3e 2b       	or	r19, r30
    250a:	ed 81       	ldd	r30, Y+5	; 0x05
    250c:	fe 81       	ldd	r31, Y+6	; 0x06
    250e:	30 83       	st	Z, r19
    2510:	30 81       	ld	r19, Z
    2512:	c4 01       	movw	r24, r8
    2514:	00 2e       	mov	r0, r16
    2516:	02 c0       	rjmp	.+4      	; 0x251c <cube_2_auto_show+0xb4>
    2518:	88 0f       	add	r24, r24
    251a:	99 1f       	adc	r25, r25
    251c:	0a 94       	dec	r0
    251e:	e2 f7       	brpl	.-8      	; 0x2518 <cube_2_auto_show+0xb0>
    2520:	38 2b       	or	r19, r24
    2522:	30 83       	st	Z, r19
    2524:	fa 01       	movw	r30, r20
    2526:	90 81       	ld	r25, Z
    2528:	92 2b       	or	r25, r18
    252a:	90 83       	st	Z, r25
    252c:	90 81       	ld	r25, Z
    252e:	98 2b       	or	r25, r24
    2530:	90 83       	st	Z, r25
    2532:	eb 81       	ldd	r30, Y+3	; 0x03
    2534:	fc 81       	ldd	r31, Y+4	; 0x04
    2536:	90 81       	ld	r25, Z
    2538:	92 2b       	or	r25, r18
    253a:	90 83       	st	Z, r25
    253c:	90 81       	ld	r25, Z
    253e:	98 2b       	or	r25, r24
    2540:	90 83       	st	Z, r25
    2542:	9c 91       	ld	r25, X
    2544:	92 2b       	or	r25, r18
    2546:	9c 93       	st	X, r25
    2548:	9c 91       	ld	r25, X
    254a:	98 2b       	or	r25, r24
    254c:	9c 93       	st	X, r25
    254e:	6f 5f       	subi	r22, 0xFF	; 255
    2550:	7f 4f       	sbci	r23, 0xFF	; 255
    2552:	0e 5f       	subi	r16, 0xFE	; 254
    2554:	1f 4f       	sbci	r17, 0xFF	; 255
    2556:	64 30       	cpi	r22, 0x04	; 4
    2558:	71 05       	cpc	r23, r1
    255a:	09 f0       	breq	.+2      	; 0x255e <cube_2_auto_show+0xf6>
    255c:	bd cf       	rjmp	.-134    	; 0x24d8 <cube_2_auto_show+0x70>
    255e:	87 01       	movw	r16, r14
    2560:	73 01       	movw	r14, r6
    2562:	32 01       	movw	r6, r4
    2564:	08 94       	sec
    2566:	a1 1c       	adc	r10, r1
    2568:	b1 1c       	adc	r11, r1
    256a:	0e 5f       	subi	r16, 0xFE	; 254
    256c:	1f 4f       	sbci	r17, 0xFF	; 255
    256e:	09 30       	cpi	r16, 0x09	; 9
    2570:	11 05       	cpc	r17, r1
    2572:	39 f1       	breq	.+78     	; 0x25c2 <cube_2_auto_show+0x15a>
    2574:	c8 01       	movw	r24, r16
    2576:	01 97       	sbiw	r24, 0x01	; 1
    2578:	21 e0       	ldi	r18, 0x01	; 1
    257a:	42 2e       	mov	r4, r18
    257c:	51 2c       	mov	r5, r1
    257e:	60 e0       	ldi	r22, 0x00	; 0
    2580:	70 e0       	ldi	r23, 0x00	; 0
    2582:	91 01       	movw	r18, r2
    2584:	28 0f       	add	r18, r24
    2586:	39 1f       	adc	r19, r25
    2588:	20 55       	subi	r18, 0x50	; 80
    258a:	3e 4f       	sbci	r19, 0xFE	; 254
    258c:	a1 01       	movw	r20, r2
    258e:	40 0f       	add	r20, r16
    2590:	51 1f       	adc	r21, r17
    2592:	40 55       	subi	r20, 0x50	; 80
    2594:	5e 4f       	sbci	r21, 0xFE	; 254
    2596:	a9 81       	ldd	r26, Y+1	; 0x01
    2598:	ba 81       	ldd	r27, Y+2	; 0x02
    259a:	a8 0f       	add	r26, r24
    259c:	b9 1f       	adc	r27, r25
    259e:	a0 55       	subi	r26, 0x50	; 80
    25a0:	be 4f       	sbci	r27, 0xFE	; 254
    25a2:	bc 83       	std	Y+4, r27	; 0x04
    25a4:	ab 83       	std	Y+3, r26	; 0x03
    25a6:	a9 81       	ldd	r26, Y+1	; 0x01
    25a8:	ba 81       	ldd	r27, Y+2	; 0x02
    25aa:	a0 0f       	add	r26, r16
    25ac:	b1 1f       	adc	r27, r17
    25ae:	a0 55       	subi	r26, 0x50	; 80
    25b0:	be 4f       	sbci	r27, 0xFE	; 254
    25b2:	c2 01       	movw	r24, r4
    25b4:	23 01       	movw	r4, r6
    25b6:	37 01       	movw	r6, r14
    25b8:	78 01       	movw	r14, r16
    25ba:	3e 83       	std	Y+6, r19	; 0x06
    25bc:	2d 83       	std	Y+5, r18	; 0x05
    25be:	8c 01       	movw	r16, r24
    25c0:	8b cf       	rjmp	.-234    	; 0x24d8 <cube_2_auto_show+0x70>
    25c2:	e2 e0       	ldi	r30, 0x02	; 2
    25c4:	f0 e0       	ldi	r31, 0x00	; 0
    25c6:	ee 0e       	add	r14, r30
    25c8:	ff 1e       	adc	r15, r31
    25ca:	ce 0e       	add	r12, r30
    25cc:	df 1e       	adc	r13, r31
    25ce:	84 e0       	ldi	r24, 0x04	; 4
    25d0:	90 e0       	ldi	r25, 0x00	; 0
    25d2:	68 0e       	add	r6, r24
    25d4:	79 1e       	adc	r7, r25
    25d6:	98 e0       	ldi	r25, 0x08	; 8
    25d8:	e9 16       	cp	r14, r25
    25da:	f1 04       	cpc	r15, r1
    25dc:	09 f0       	breq	.+2      	; 0x25e0 <cube_2_auto_show+0x178>
    25de:	64 cf       	rjmp	.-312    	; 0x24a8 <cube_2_auto_show+0x40>
    25e0:	84 e0       	ldi	r24, 0x04	; 4
    25e2:	0e 94 c8 3e 	call	0x7d90	; 0x7d90 <cube_show_loop>
    25e6:	26 96       	adiw	r28, 0x06	; 6
    25e8:	0f b6       	in	r0, 0x3f	; 63
    25ea:	f8 94       	cli
    25ec:	de bf       	out	0x3e, r29	; 62
    25ee:	0f be       	out	0x3f, r0	; 63
    25f0:	cd bf       	out	0x3d, r28	; 61
    25f2:	df 91       	pop	r29
    25f4:	cf 91       	pop	r28
    25f6:	1f 91       	pop	r17
    25f8:	0f 91       	pop	r16
    25fa:	ff 90       	pop	r15
    25fc:	ef 90       	pop	r14
    25fe:	df 90       	pop	r13
    2600:	cf 90       	pop	r12
    2602:	bf 90       	pop	r11
    2604:	af 90       	pop	r10
    2606:	9f 90       	pop	r9
    2608:	8f 90       	pop	r8
    260a:	7f 90       	pop	r7
    260c:	6f 90       	pop	r6
    260e:	5f 90       	pop	r5
    2610:	4f 90       	pop	r4
    2612:	3f 90       	pop	r3
    2614:	2f 90       	pop	r2
    2616:	08 95       	ret

00002618 <cube_2_auto>:
    2618:	2f 92       	push	r2
    261a:	3f 92       	push	r3
    261c:	4f 92       	push	r4
    261e:	5f 92       	push	r5
    2620:	6f 92       	push	r6
    2622:	7f 92       	push	r7
    2624:	8f 92       	push	r8
    2626:	9f 92       	push	r9
    2628:	af 92       	push	r10
    262a:	bf 92       	push	r11
    262c:	df 92       	push	r13
    262e:	ef 92       	push	r14
    2630:	ff 92       	push	r15
    2632:	0f 93       	push	r16
    2634:	1f 93       	push	r17
    2636:	cf 93       	push	r28
    2638:	df 93       	push	r29
    263a:	cd b7       	in	r28, 0x3d	; 61
    263c:	de b7       	in	r29, 0x3e	; 62
    263e:	60 97       	sbiw	r28, 0x10	; 16
    2640:	0f b6       	in	r0, 0x3f	; 63
    2642:	f8 94       	cli
    2644:	de bf       	out	0x3e, r29	; 62
    2646:	0f be       	out	0x3f, r0	; 63
    2648:	cd bf       	out	0x3d, r28	; 61
    264a:	0e 94 9d 3d 	call	0x7b3a	; 0x7b3a <cube_clear>
    264e:	19 86       	std	Y+9, r1	; 0x09
    2650:	1a 86       	std	Y+10, r1	; 0x0a
    2652:	1b 86       	std	Y+11, r1	; 0x0b
    2654:	1c 86       	std	Y+12, r1	; 0x0c
    2656:	1d 86       	std	Y+13, r1	; 0x0d
    2658:	1e 86       	std	Y+14, r1	; 0x0e
    265a:	1f 86       	std	Y+15, r1	; 0x0f
    265c:	18 8a       	std	Y+16, r1	; 0x10
    265e:	8f e0       	ldi	r24, 0x0F	; 15
    2660:	89 83       	std	Y+1, r24	; 0x01
    2662:	8a 83       	std	Y+2, r24	; 0x02
    2664:	8b 83       	std	Y+3, r24	; 0x03
    2666:	8c 83       	std	Y+4, r24	; 0x04
    2668:	89 e0       	ldi	r24, 0x09	; 9
    266a:	8d 83       	std	Y+5, r24	; 0x05
    266c:	8e 83       	std	Y+6, r24	; 0x06
    266e:	8f 83       	std	Y+7, r24	; 0x07
    2670:	88 87       	std	Y+8, r24	; 0x08
    2672:	8e 01       	movw	r16, r28
    2674:	0f 5f       	subi	r16, 0xFF	; 255
    2676:	1f 4f       	sbci	r17, 0xFF	; 255
    2678:	c8 01       	movw	r24, r16
    267a:	0e 94 34 12 	call	0x2468	; 0x2468 <cube_2_auto_show>
    267e:	e0 ed       	ldi	r30, 0xD0	; 208
    2680:	8e 2e       	mov	r8, r30
    2682:	e7 e0       	ldi	r30, 0x07	; 7
    2684:	9e 2e       	mov	r9, r30
    2686:	f4 e0       	ldi	r31, 0x04	; 4
    2688:	6f 2e       	mov	r6, r31
    268a:	71 2c       	mov	r7, r1
    268c:	28 01       	movw	r4, r16
    268e:	a6 e0       	ldi	r26, 0x06	; 6
    2690:	2a 2e       	mov	r2, r26
    2692:	31 2c       	mov	r3, r1
    2694:	0e 94 72 54 	call	0xa8e4	; 0xa8e4 <rand>
    2698:	b3 01       	movw	r22, r6
    269a:	0e 94 f6 53 	call	0xa7ec	; 0xa7ec <__divmodhi4>
    269e:	d8 2e       	mov	r13, r24
    26a0:	0e 94 72 54 	call	0xa8e4	; 0xa8e4 <rand>
    26a4:	b3 01       	movw	r22, r6
    26a6:	0e 94 f6 53 	call	0xa7ec	; 0xa7ec <__divmodhi4>
    26aa:	e8 2e       	mov	r14, r24
    26ac:	0e 94 72 54 	call	0xa8e4	; 0xa8e4 <rand>
    26b0:	b3 01       	movw	r22, r6
    26b2:	0e 94 f6 53 	call	0xa7ec	; 0xa7ec <__divmodhi4>
    26b6:	f8 2e       	mov	r15, r24
    26b8:	ee 2d       	mov	r30, r14
    26ba:	f0 e0       	ldi	r31, 0x00	; 0
    26bc:	ee 0f       	add	r30, r30
    26be:	ff 1f       	adc	r31, r31
    26c0:	ee 0f       	add	r30, r30
    26c2:	ff 1f       	adc	r31, r31
    26c4:	ed 0d       	add	r30, r13
    26c6:	f1 1d       	adc	r31, r1
    26c8:	e4 0d       	add	r30, r4
    26ca:	f5 1d       	adc	r31, r5
    26cc:	80 81       	ld	r24, Z
    26ce:	90 e0       	ldi	r25, 0x00	; 0
    26d0:	0f 2c       	mov	r0, r15
    26d2:	02 c0       	rjmp	.+4      	; 0x26d8 <cube_2_auto+0xc0>
    26d4:	95 95       	asr	r25
    26d6:	87 95       	ror	r24
    26d8:	0a 94       	dec	r0
    26da:	e2 f7       	brpl	.-8      	; 0x26d4 <cube_2_auto+0xbc>
    26dc:	80 ff       	sbrs	r24, 0
    26de:	9d c0       	rjmp	.+314    	; 0x281a <cube_2_auto+0x202>
    26e0:	0e 94 72 54 	call	0xa8e4	; 0xa8e4 <rand>
    26e4:	b1 01       	movw	r22, r2
    26e6:	0e 94 f6 53 	call	0xa7ec	; 0xa7ec <__divmodhi4>
    26ea:	82 30       	cpi	r24, 0x02	; 2
    26ec:	91 05       	cpc	r25, r1
    26ee:	09 f4       	brne	.+2      	; 0x26f2 <cube_2_auto+0xda>
    26f0:	51 c0       	rjmp	.+162    	; 0x2794 <cube_2_auto+0x17c>
    26f2:	83 30       	cpi	r24, 0x03	; 3
    26f4:	91 05       	cpc	r25, r1
    26f6:	3c f4       	brge	.+14     	; 0x2706 <cube_2_auto+0xee>
    26f8:	00 97       	sbiw	r24, 0x00	; 0
    26fa:	09 f1       	breq	.+66     	; 0x273e <cube_2_auto+0x126>
    26fc:	81 30       	cpi	r24, 0x01	; 1
    26fe:	91 05       	cpc	r25, r1
    2700:	09 f0       	breq	.+2      	; 0x2704 <cube_2_auto+0xec>
    2702:	8b c0       	rjmp	.+278    	; 0x281a <cube_2_auto+0x202>
    2704:	32 c0       	rjmp	.+100    	; 0x276a <cube_2_auto+0x152>
    2706:	84 30       	cpi	r24, 0x04	; 4
    2708:	91 05       	cpc	r25, r1
    270a:	09 f4       	brne	.+2      	; 0x270e <cube_2_auto+0xf6>
    270c:	6c c0       	rjmp	.+216    	; 0x27e6 <cube_2_auto+0x1ce>
    270e:	84 30       	cpi	r24, 0x04	; 4
    2710:	91 05       	cpc	r25, r1
    2712:	0c f4       	brge	.+2      	; 0x2716 <cube_2_auto+0xfe>
    2714:	54 c0       	rjmp	.+168    	; 0x27be <cube_2_auto+0x1a6>
    2716:	85 30       	cpi	r24, 0x05	; 5
    2718:	91 05       	cpc	r25, r1
    271a:	09 f0       	breq	.+2      	; 0x271e <cube_2_auto+0x106>
    271c:	7e c0       	rjmp	.+252    	; 0x281a <cube_2_auto+0x202>
    271e:	78 c0       	rjmp	.+240    	; 0x2810 <cube_2_auto+0x1f8>
    2720:	c8 01       	movw	r24, r16
    2722:	4d 2d       	mov	r20, r13
    2724:	2f 2d       	mov	r18, r15
    2726:	0e 94 10 11 	call	0x2220	; 0x2220 <cube2_move_y_fwd>
    272a:	08 94       	sec
    272c:	a1 1c       	adc	r10, r1
    272e:	b1 1c       	adc	r11, r1
    2730:	88 23       	and	r24, r24
    2732:	09 f0       	breq	.+2      	; 0x2736 <cube_2_auto+0x11e>
    2734:	72 c0       	rjmp	.+228    	; 0x281a <cube_2_auto+0x202>
    2736:	c8 01       	movw	r24, r16
    2738:	0e 94 34 12 	call	0x2468	; 0x2468 <cube_2_auto_show>
    273c:	02 c0       	rjmp	.+4      	; 0x2742 <cube_2_auto+0x12a>
    273e:	aa 24       	eor	r10, r10
    2740:	bb 24       	eor	r11, r11
    2742:	6e 2d       	mov	r22, r14
    2744:	6a 0d       	add	r22, r10
    2746:	63 30       	cpi	r22, 0x03	; 3
    2748:	58 f3       	brcs	.-42     	; 0x2720 <cube_2_auto+0x108>
    274a:	67 c0       	rjmp	.+206    	; 0x281a <cube_2_auto+0x202>
    274c:	c8 01       	movw	r24, r16
    274e:	4d 2d       	mov	r20, r13
    2750:	2f 2d       	mov	r18, r15
    2752:	0e 94 47 11 	call	0x228e	; 0x228e <cube2_move_y_rev>
    2756:	08 94       	sec
    2758:	a1 1c       	adc	r10, r1
    275a:	b1 1c       	adc	r11, r1
    275c:	88 23       	and	r24, r24
    275e:	09 f0       	breq	.+2      	; 0x2762 <cube_2_auto+0x14a>
    2760:	5c c0       	rjmp	.+184    	; 0x281a <cube_2_auto+0x202>
    2762:	c8 01       	movw	r24, r16
    2764:	0e 94 34 12 	call	0x2468	; 0x2468 <cube_2_auto_show>
    2768:	02 c0       	rjmp	.+4      	; 0x276e <cube_2_auto+0x156>
    276a:	aa 24       	eor	r10, r10
    276c:	bb 24       	eor	r11, r11
    276e:	6e 2d       	mov	r22, r14
    2770:	6a 19       	sub	r22, r10
    2772:	61 f7       	brne	.-40     	; 0x274c <cube_2_auto+0x134>
    2774:	52 c0       	rjmp	.+164    	; 0x281a <cube_2_auto+0x202>
    2776:	c8 01       	movw	r24, r16
    2778:	6e 2d       	mov	r22, r14
    277a:	2f 2d       	mov	r18, r15
    277c:	0e 94 7e 11 	call	0x22fc	; 0x22fc <cube2_move_x_fwd>
    2780:	08 94       	sec
    2782:	a1 1c       	adc	r10, r1
    2784:	b1 1c       	adc	r11, r1
    2786:	88 23       	and	r24, r24
    2788:	09 f0       	breq	.+2      	; 0x278c <cube_2_auto+0x174>
    278a:	47 c0       	rjmp	.+142    	; 0x281a <cube_2_auto+0x202>
    278c:	c8 01       	movw	r24, r16
    278e:	0e 94 34 12 	call	0x2468	; 0x2468 <cube_2_auto_show>
    2792:	02 c0       	rjmp	.+4      	; 0x2798 <cube_2_auto+0x180>
    2794:	aa 24       	eor	r10, r10
    2796:	bb 24       	eor	r11, r11
    2798:	4d 2d       	mov	r20, r13
    279a:	4a 0d       	add	r20, r10
    279c:	43 30       	cpi	r20, 0x03	; 3
    279e:	58 f3       	brcs	.-42     	; 0x2776 <cube_2_auto+0x15e>
    27a0:	3c c0       	rjmp	.+120    	; 0x281a <cube_2_auto+0x202>
    27a2:	c8 01       	movw	r24, r16
    27a4:	6e 2d       	mov	r22, r14
    27a6:	2f 2d       	mov	r18, r15
    27a8:	0e 94 aa 11 	call	0x2354	; 0x2354 <cube2_move_x_rev>
    27ac:	08 94       	sec
    27ae:	a1 1c       	adc	r10, r1
    27b0:	b1 1c       	adc	r11, r1
    27b2:	88 23       	and	r24, r24
    27b4:	91 f5       	brne	.+100    	; 0x281a <cube_2_auto+0x202>
    27b6:	c8 01       	movw	r24, r16
    27b8:	0e 94 34 12 	call	0x2468	; 0x2468 <cube_2_auto_show>
    27bc:	02 c0       	rjmp	.+4      	; 0x27c2 <cube_2_auto+0x1aa>
    27be:	aa 24       	eor	r10, r10
    27c0:	bb 24       	eor	r11, r11
    27c2:	4d 2d       	mov	r20, r13
    27c4:	4a 19       	sub	r20, r10
    27c6:	69 f7       	brne	.-38     	; 0x27a2 <cube_2_auto+0x18a>
    27c8:	28 c0       	rjmp	.+80     	; 0x281a <cube_2_auto+0x202>
    27ca:	c8 01       	movw	r24, r16
    27cc:	6e 2d       	mov	r22, r14
    27ce:	4d 2d       	mov	r20, r13
    27d0:	0e 94 d6 11 	call	0x23ac	; 0x23ac <cube2_move_z_fwd>
    27d4:	08 94       	sec
    27d6:	a1 1c       	adc	r10, r1
    27d8:	b1 1c       	adc	r11, r1
    27da:	88 23       	and	r24, r24
    27dc:	f1 f4       	brne	.+60     	; 0x281a <cube_2_auto+0x202>
    27de:	c8 01       	movw	r24, r16
    27e0:	0e 94 34 12 	call	0x2468	; 0x2468 <cube_2_auto_show>
    27e4:	02 c0       	rjmp	.+4      	; 0x27ea <cube_2_auto+0x1d2>
    27e6:	aa 24       	eor	r10, r10
    27e8:	bb 24       	eor	r11, r11
    27ea:	2f 2d       	mov	r18, r15
    27ec:	2a 0d       	add	r18, r10
    27ee:	23 30       	cpi	r18, 0x03	; 3
    27f0:	60 f3       	brcs	.-40     	; 0x27ca <cube_2_auto+0x1b2>
    27f2:	13 c0       	rjmp	.+38     	; 0x281a <cube_2_auto+0x202>
    27f4:	c8 01       	movw	r24, r16
    27f6:	6e 2d       	mov	r22, r14
    27f8:	4d 2d       	mov	r20, r13
    27fa:	0e 94 05 12 	call	0x240a	; 0x240a <cube2_move_z_rev>
    27fe:	08 94       	sec
    2800:	a1 1c       	adc	r10, r1
    2802:	b1 1c       	adc	r11, r1
    2804:	88 23       	and	r24, r24
    2806:	49 f4       	brne	.+18     	; 0x281a <cube_2_auto+0x202>
    2808:	c8 01       	movw	r24, r16
    280a:	0e 94 34 12 	call	0x2468	; 0x2468 <cube_2_auto_show>
    280e:	02 c0       	rjmp	.+4      	; 0x2814 <cube_2_auto+0x1fc>
    2810:	aa 24       	eor	r10, r10
    2812:	bb 24       	eor	r11, r11
    2814:	2f 2d       	mov	r18, r15
    2816:	2a 19       	sub	r18, r10
    2818:	69 f7       	brne	.-38     	; 0x27f4 <cube_2_auto+0x1dc>
    281a:	08 94       	sec
    281c:	81 08       	sbc	r8, r1
    281e:	91 08       	sbc	r9, r1
    2820:	81 14       	cp	r8, r1
    2822:	91 04       	cpc	r9, r1
    2824:	09 f0       	breq	.+2      	; 0x2828 <cube_2_auto+0x210>
    2826:	36 cf       	rjmp	.-404    	; 0x2694 <cube_2_auto+0x7c>
    2828:	60 96       	adiw	r28, 0x10	; 16
    282a:	0f b6       	in	r0, 0x3f	; 63
    282c:	f8 94       	cli
    282e:	de bf       	out	0x3e, r29	; 62
    2830:	0f be       	out	0x3f, r0	; 63
    2832:	cd bf       	out	0x3d, r28	; 61
    2834:	df 91       	pop	r29
    2836:	cf 91       	pop	r28
    2838:	1f 91       	pop	r17
    283a:	0f 91       	pop	r16
    283c:	ff 90       	pop	r15
    283e:	ef 90       	pop	r14
    2840:	df 90       	pop	r13
    2842:	bf 90       	pop	r11
    2844:	af 90       	pop	r10
    2846:	9f 90       	pop	r9
    2848:	8f 90       	pop	r8
    284a:	7f 90       	pop	r7
    284c:	6f 90       	pop	r6
    284e:	5f 90       	pop	r5
    2850:	4f 90       	pop	r4
    2852:	3f 90       	pop	r3
    2854:	2f 90       	pop	r2
    2856:	08 95       	ret

00002858 <cubes_2>:
    2858:	cf 93       	push	r28
    285a:	0e 94 9d 3d 	call	0x7b3a	; 0x7b3a <cube_clear>
    285e:	80 e0       	ldi	r24, 0x00	; 0
    2860:	90 e0       	ldi	r25, 0x00	; 0
    2862:	2f ef       	ldi	r18, 0xFF	; 255
    2864:	fc 01       	movw	r30, r24
    2866:	e0 55       	subi	r30, 0x50	; 80
    2868:	fe 4f       	sbci	r31, 0xFE	; 254
    286a:	20 83       	st	Z, r18
    286c:	20 87       	std	Z+8, r18	; 0x08
    286e:	01 96       	adiw	r24, 0x01	; 1
    2870:	88 30       	cpi	r24, 0x08	; 8
    2872:	91 05       	cpc	r25, r1
    2874:	b9 f7       	brne	.-18     	; 0x2864 <cubes_2+0xc>
    2876:	8f e0       	ldi	r24, 0x0F	; 15
    2878:	0e 94 c8 3e 	call	0x7d90	; 0x7d90 <cube_show_loop>
    287c:	c6 e0       	ldi	r28, 0x06	; 6
    287e:	82 e0       	ldi	r24, 0x02	; 2
    2880:	62 e0       	ldi	r22, 0x02	; 2
    2882:	43 e0       	ldi	r20, 0x03	; 3
    2884:	23 e0       	ldi	r18, 0x03	; 3
    2886:	0e 94 d7 4f 	call	0x9fae	; 0x9fae <move_y_fwd>
    288a:	82 e0       	ldi	r24, 0x02	; 2
    288c:	66 e0       	ldi	r22, 0x06	; 6
    288e:	43 e0       	ldi	r20, 0x03	; 3
    2890:	27 e0       	ldi	r18, 0x07	; 7
    2892:	0e 94 d7 4f 	call	0x9fae	; 0x9fae <move_y_fwd>
    2896:	86 e0       	ldi	r24, 0x06	; 6
    2898:	62 e0       	ldi	r22, 0x02	; 2
    289a:	47 e0       	ldi	r20, 0x07	; 7
    289c:	23 e0       	ldi	r18, 0x03	; 3
    289e:	0e 94 d7 4f 	call	0x9fae	; 0x9fae <move_y_fwd>
    28a2:	86 e0       	ldi	r24, 0x06	; 6
    28a4:	66 e0       	ldi	r22, 0x06	; 6
    28a6:	47 e0       	ldi	r20, 0x07	; 7
    28a8:	27 e0       	ldi	r18, 0x07	; 7
    28aa:	0e 94 d7 4f 	call	0x9fae	; 0x9fae <move_y_fwd>
    28ae:	8f e0       	ldi	r24, 0x0F	; 15
    28b0:	0e 94 c8 3e 	call	0x7d90	; 0x7d90 <cube_show_loop>
    28b4:	c1 50       	subi	r28, 0x01	; 1
    28b6:	19 f7       	brne	.-58     	; 0x287e <cubes_2+0x26>
    28b8:	c4 e0       	ldi	r28, 0x04	; 4
    28ba:	80 e0       	ldi	r24, 0x00	; 0
    28bc:	60 e0       	ldi	r22, 0x00	; 0
    28be:	41 e0       	ldi	r20, 0x01	; 1
    28c0:	21 e0       	ldi	r18, 0x01	; 1
    28c2:	0e 94 d7 4f 	call	0x9fae	; 0x9fae <move_y_fwd>
    28c6:	80 e0       	ldi	r24, 0x00	; 0
    28c8:	64 e0       	ldi	r22, 0x04	; 4
    28ca:	41 e0       	ldi	r20, 0x01	; 1
    28cc:	25 e0       	ldi	r18, 0x05	; 5
    28ce:	0e 94 d7 4f 	call	0x9fae	; 0x9fae <move_y_fwd>
    28d2:	84 e0       	ldi	r24, 0x04	; 4
    28d4:	60 e0       	ldi	r22, 0x00	; 0
    28d6:	45 e0       	ldi	r20, 0x05	; 5
    28d8:	21 e0       	ldi	r18, 0x01	; 1
    28da:	0e 94 d7 4f 	call	0x9fae	; 0x9fae <move_y_fwd>
    28de:	84 e0       	ldi	r24, 0x04	; 4
    28e0:	64 e0       	ldi	r22, 0x04	; 4
    28e2:	45 e0       	ldi	r20, 0x05	; 5
    28e4:	25 e0       	ldi	r18, 0x05	; 5
    28e6:	0e 94 d7 4f 	call	0x9fae	; 0x9fae <move_y_fwd>
    28ea:	8f e0       	ldi	r24, 0x0F	; 15
    28ec:	0e 94 c8 3e 	call	0x7d90	; 0x7d90 <cube_show_loop>
    28f0:	c1 50       	subi	r28, 0x01	; 1
    28f2:	19 f7       	brne	.-58     	; 0x28ba <cubes_2+0x62>
    28f4:	c2 e0       	ldi	r28, 0x02	; 2
    28f6:	82 e0       	ldi	r24, 0x02	; 2
    28f8:	60 e0       	ldi	r22, 0x00	; 0
    28fa:	43 e0       	ldi	r20, 0x03	; 3
    28fc:	21 e0       	ldi	r18, 0x01	; 1
    28fe:	0e 94 d7 4f 	call	0x9fae	; 0x9fae <move_y_fwd>
    2902:	86 e0       	ldi	r24, 0x06	; 6
    2904:	60 e0       	ldi	r22, 0x00	; 0
    2906:	47 e0       	ldi	r20, 0x07	; 7
    2908:	21 e0       	ldi	r18, 0x01	; 1
    290a:	0e 94 d7 4f 	call	0x9fae	; 0x9fae <move_y_fwd>
    290e:	82 e0       	ldi	r24, 0x02	; 2
    2910:	64 e0       	ldi	r22, 0x04	; 4
    2912:	43 e0       	ldi	r20, 0x03	; 3
    2914:	25 e0       	ldi	r18, 0x05	; 5
    2916:	0e 94 d7 4f 	call	0x9fae	; 0x9fae <move_y_fwd>
    291a:	86 e0       	ldi	r24, 0x06	; 6
    291c:	64 e0       	ldi	r22, 0x04	; 4
    291e:	47 e0       	ldi	r20, 0x07	; 7
    2920:	25 e0       	ldi	r18, 0x05	; 5
    2922:	0e 94 d7 4f 	call	0x9fae	; 0x9fae <move_y_fwd>
    2926:	8f e0       	ldi	r24, 0x0F	; 15
    2928:	0e 94 c8 3e 	call	0x7d90	; 0x7d90 <cube_show_loop>
    292c:	c1 50       	subi	r28, 0x01	; 1
    292e:	19 f7       	brne	.-58     	; 0x28f6 <cubes_2+0x9e>
    2930:	c4 e0       	ldi	r28, 0x04	; 4
    2932:	86 e0       	ldi	r24, 0x06	; 6
    2934:	62 e0       	ldi	r22, 0x02	; 2
    2936:	47 e0       	ldi	r20, 0x07	; 7
    2938:	23 e0       	ldi	r18, 0x03	; 3
    293a:	0e 94 41 50 	call	0xa082	; 0xa082 <move_y_rev>
    293e:	8f e0       	ldi	r24, 0x0F	; 15
    2940:	0e 94 c8 3e 	call	0x7d90	; 0x7d90 <cube_show_loop>
    2944:	c1 50       	subi	r28, 0x01	; 1
    2946:	a9 f7       	brne	.-22     	; 0x2932 <cubes_2+0xda>
    2948:	84 e0       	ldi	r24, 0x04	; 4
    294a:	60 e0       	ldi	r22, 0x00	; 0
    294c:	45 e0       	ldi	r20, 0x05	; 5
    294e:	21 e0       	ldi	r18, 0x01	; 1
    2950:	0e 94 41 50 	call	0xa082	; 0xa082 <move_y_rev>
    2954:	8f e0       	ldi	r24, 0x0F	; 15
    2956:	0e 94 c8 3e 	call	0x7d90	; 0x7d90 <cube_show_loop>
    295a:	84 e0       	ldi	r24, 0x04	; 4
    295c:	60 e0       	ldi	r22, 0x00	; 0
    295e:	45 e0       	ldi	r20, 0x05	; 5
    2960:	21 e0       	ldi	r18, 0x01	; 1
    2962:	0e 94 41 50 	call	0xa082	; 0xa082 <move_y_rev>
    2966:	8f e0       	ldi	r24, 0x0F	; 15
    2968:	0e 94 c8 3e 	call	0x7d90	; 0x7d90 <cube_show_loop>
    296c:	c6 e0       	ldi	r28, 0x06	; 6
    296e:	82 e0       	ldi	r24, 0x02	; 2
    2970:	64 e0       	ldi	r22, 0x04	; 4
    2972:	43 e0       	ldi	r20, 0x03	; 3
    2974:	25 e0       	ldi	r18, 0x05	; 5
    2976:	0e 94 a5 4f 	call	0x9f4a	; 0x9f4a <move_z_fwd>
    297a:	8f e0       	ldi	r24, 0x0F	; 15
    297c:	0e 94 c8 3e 	call	0x7d90	; 0x7d90 <cube_show_loop>
    2980:	c1 50       	subi	r28, 0x01	; 1
    2982:	a9 f7       	brne	.-22     	; 0x296e <cubes_2+0x116>
    2984:	82 e0       	ldi	r24, 0x02	; 2
    2986:	60 e0       	ldi	r22, 0x00	; 0
    2988:	43 e0       	ldi	r20, 0x03	; 3
    298a:	21 e0       	ldi	r18, 0x01	; 1
    298c:	0e 94 41 50 	call	0xa082	; 0xa082 <move_y_rev>
    2990:	8f e0       	ldi	r24, 0x0F	; 15
    2992:	0e 94 c8 3e 	call	0x7d90	; 0x7d90 <cube_show_loop>
    2996:	82 e0       	ldi	r24, 0x02	; 2
    2998:	60 e0       	ldi	r22, 0x00	; 0
    299a:	43 e0       	ldi	r20, 0x03	; 3
    299c:	21 e0       	ldi	r18, 0x01	; 1
    299e:	0e 94 41 50 	call	0xa082	; 0xa082 <move_y_rev>
    29a2:	8f e0       	ldi	r24, 0x0F	; 15
    29a4:	0e 94 c8 3e 	call	0x7d90	; 0x7d90 <cube_show_loop>
    29a8:	c6 e0       	ldi	r28, 0x06	; 6
    29aa:	80 e0       	ldi	r24, 0x00	; 0
    29ac:	62 e0       	ldi	r22, 0x02	; 2
    29ae:	41 e0       	ldi	r20, 0x01	; 1
    29b0:	23 e0       	ldi	r18, 0x03	; 3
    29b2:	0e 94 a5 4f 	call	0x9f4a	; 0x9f4a <move_z_fwd>
    29b6:	8f e0       	ldi	r24, 0x0F	; 15
    29b8:	0e 94 c8 3e 	call	0x7d90	; 0x7d90 <cube_show_loop>
    29bc:	c1 50       	subi	r28, 0x01	; 1
    29be:	a9 f7       	brne	.-22     	; 0x29aa <cubes_2+0x152>
    29c0:	c4 e0       	ldi	r28, 0x04	; 4
    29c2:	80 e0       	ldi	r24, 0x00	; 0
    29c4:	62 e0       	ldi	r22, 0x02	; 2
    29c6:	41 e0       	ldi	r20, 0x01	; 1
    29c8:	23 e0       	ldi	r18, 0x03	; 3
    29ca:	0e 94 d7 4f 	call	0x9fae	; 0x9fae <move_y_fwd>
    29ce:	8f e0       	ldi	r24, 0x0F	; 15
    29d0:	0e 94 c8 3e 	call	0x7d90	; 0x7d90 <cube_show_loop>
    29d4:	c1 50       	subi	r28, 0x01	; 1
    29d6:	a9 f7       	brne	.-22     	; 0x29c2 <cubes_2+0x16a>
    29d8:	82 e0       	ldi	r24, 0x02	; 2
    29da:	64 e0       	ldi	r22, 0x04	; 4
    29dc:	43 e0       	ldi	r20, 0x03	; 3
    29de:	25 e0       	ldi	r18, 0x05	; 5
    29e0:	0e 94 ad 50 	call	0xa15a	; 0xa15a <move_x_fwd>
    29e4:	8f e0       	ldi	r24, 0x0F	; 15
    29e6:	0e 94 c8 3e 	call	0x7d90	; 0x7d90 <cube_show_loop>
    29ea:	82 e0       	ldi	r24, 0x02	; 2
    29ec:	64 e0       	ldi	r22, 0x04	; 4
    29ee:	43 e0       	ldi	r20, 0x03	; 3
    29f0:	25 e0       	ldi	r18, 0x05	; 5
    29f2:	0e 94 ad 50 	call	0xa15a	; 0xa15a <move_x_fwd>
    29f6:	8f e0       	ldi	r24, 0x0F	; 15
    29f8:	0e 94 c8 3e 	call	0x7d90	; 0x7d90 <cube_show_loop>
    29fc:	86 e9       	ldi	r24, 0x96	; 150
    29fe:	0e 94 c8 3e 	call	0x7d90	; 0x7d90 <cube_show_loop>
    2a02:	cf 91       	pop	r28
    2a04:	08 95       	ret

00002a06 <cubes_4>:
    2a06:	cf 93       	push	r28
    2a08:	0e 94 9d 3d 	call	0x7b3a	; 0x7b3a <cube_clear>
    2a0c:	80 e0       	ldi	r24, 0x00	; 0
    2a0e:	90 e0       	ldi	r25, 0x00	; 0
    2a10:	2f e0       	ldi	r18, 0x0F	; 15
    2a12:	fc 01       	movw	r30, r24
    2a14:	c3 e0       	ldi	r28, 0x03	; 3
    2a16:	ee 0f       	add	r30, r30
    2a18:	ff 1f       	adc	r31, r31
    2a1a:	ca 95       	dec	r28
    2a1c:	e1 f7       	brne	.-8      	; 0x2a16 <cubes_4+0x10>
    2a1e:	e0 55       	subi	r30, 0x50	; 80
    2a20:	fe 4f       	sbci	r31, 0xFE	; 254
    2a22:	20 83       	st	Z, r18
    2a24:	21 83       	std	Z+1, r18	; 0x01
    2a26:	22 83       	std	Z+2, r18	; 0x02
    2a28:	23 83       	std	Z+3, r18	; 0x03
    2a2a:	01 96       	adiw	r24, 0x01	; 1
    2a2c:	84 30       	cpi	r24, 0x04	; 4
    2a2e:	91 05       	cpc	r25, r1
    2a30:	81 f7       	brne	.-32     	; 0x2a12 <cubes_4+0xc>
    2a32:	84 e0       	ldi	r24, 0x04	; 4
    2a34:	90 e0       	ldi	r25, 0x00	; 0
    2a36:	2f ef       	ldi	r18, 0xFF	; 255
    2a38:	fc 01       	movw	r30, r24
    2a3a:	b3 e0       	ldi	r27, 0x03	; 3
    2a3c:	ee 0f       	add	r30, r30
    2a3e:	ff 1f       	adc	r31, r31
    2a40:	ba 95       	dec	r27
    2a42:	e1 f7       	brne	.-8      	; 0x2a3c <cubes_4+0x36>
    2a44:	e0 55       	subi	r30, 0x50	; 80
    2a46:	fe 4f       	sbci	r31, 0xFE	; 254
    2a48:	24 83       	std	Z+4, r18	; 0x04
    2a4a:	25 83       	std	Z+5, r18	; 0x05
    2a4c:	26 83       	std	Z+6, r18	; 0x06
    2a4e:	27 83       	std	Z+7, r18	; 0x07
    2a50:	01 96       	adiw	r24, 0x01	; 1
    2a52:	88 30       	cpi	r24, 0x08	; 8
    2a54:	91 05       	cpc	r25, r1
    2a56:	81 f7       	brne	.-32     	; 0x2a38 <cubes_4+0x32>
    2a58:	85 e0       	ldi	r24, 0x05	; 5
    2a5a:	0e 94 c8 3e 	call	0x7d90	; 0x7d90 <cube_show_loop>
    2a5e:	c4 e0       	ldi	r28, 0x04	; 4
    2a60:	84 e0       	ldi	r24, 0x04	; 4
    2a62:	60 e0       	ldi	r22, 0x00	; 0
    2a64:	47 e0       	ldi	r20, 0x07	; 7
    2a66:	23 e0       	ldi	r18, 0x03	; 3
    2a68:	0e 94 41 50 	call	0xa082	; 0xa082 <move_y_rev>
    2a6c:	85 e0       	ldi	r24, 0x05	; 5
    2a6e:	0e 94 c8 3e 	call	0x7d90	; 0x7d90 <cube_show_loop>
    2a72:	c1 50       	subi	r28, 0x01	; 1
    2a74:	a9 f7       	brne	.-22     	; 0x2a60 <cubes_4+0x5a>
    2a76:	c4 e0       	ldi	r28, 0x04	; 4
    2a78:	80 e0       	ldi	r24, 0x00	; 0
    2a7a:	60 e0       	ldi	r22, 0x00	; 0
    2a7c:	43 e0       	ldi	r20, 0x03	; 3
    2a7e:	23 e0       	ldi	r18, 0x03	; 3
    2a80:	0e 94 a5 4f 	call	0x9f4a	; 0x9f4a <move_z_fwd>
    2a84:	85 e0       	ldi	r24, 0x05	; 5
    2a86:	0e 94 c8 3e 	call	0x7d90	; 0x7d90 <cube_show_loop>
    2a8a:	c1 50       	subi	r28, 0x01	; 1
    2a8c:	a9 f7       	brne	.-22     	; 0x2a78 <cubes_4+0x72>
    2a8e:	c4 e0       	ldi	r28, 0x04	; 4
    2a90:	80 e0       	ldi	r24, 0x00	; 0
    2a92:	64 e0       	ldi	r22, 0x04	; 4
    2a94:	43 e0       	ldi	r20, 0x03	; 3
    2a96:	27 e0       	ldi	r18, 0x07	; 7
    2a98:	0e 94 d7 4f 	call	0x9fae	; 0x9fae <move_y_fwd>
    2a9c:	85 e0       	ldi	r24, 0x05	; 5
    2a9e:	0e 94 c8 3e 	call	0x7d90	; 0x7d90 <cube_show_loop>
    2aa2:	c1 50       	subi	r28, 0x01	; 1
    2aa4:	a9 f7       	brne	.-22     	; 0x2a90 <cubes_4+0x8a>
    2aa6:	c4 e0       	ldi	r28, 0x04	; 4
    2aa8:	84 e0       	ldi	r24, 0x04	; 4
    2aaa:	64 e0       	ldi	r22, 0x04	; 4
    2aac:	47 e0       	ldi	r20, 0x07	; 7
    2aae:	27 e0       	ldi	r18, 0x07	; 7
    2ab0:	0e 94 41 50 	call	0xa082	; 0xa082 <move_y_rev>
    2ab4:	85 e0       	ldi	r24, 0x05	; 5
    2ab6:	0e 94 c8 3e 	call	0x7d90	; 0x7d90 <cube_show_loop>
    2aba:	c1 50       	subi	r28, 0x01	; 1
    2abc:	a9 f7       	brne	.-22     	; 0x2aa8 <cubes_4+0xa2>
    2abe:	c4 e0       	ldi	r28, 0x04	; 4
    2ac0:	80 e0       	ldi	r24, 0x00	; 0
    2ac2:	60 e0       	ldi	r22, 0x00	; 0
    2ac4:	43 e0       	ldi	r20, 0x03	; 3
    2ac6:	23 e0       	ldi	r18, 0x03	; 3
    2ac8:	0e 94 04 51 	call	0xa208	; 0xa208 <move_x_rev>
    2acc:	85 e0       	ldi	r24, 0x05	; 5
    2ace:	0e 94 c8 3e 	call	0x7d90	; 0x7d90 <cube_show_loop>
    2ad2:	c1 50       	subi	r28, 0x01	; 1
    2ad4:	a9 f7       	brne	.-22     	; 0x2ac0 <cubes_4+0xba>
    2ad6:	c4 e0       	ldi	r28, 0x04	; 4
    2ad8:	84 e0       	ldi	r24, 0x04	; 4
    2ada:	60 e0       	ldi	r22, 0x00	; 0
    2adc:	47 e0       	ldi	r20, 0x07	; 7
    2ade:	23 e0       	ldi	r18, 0x03	; 3
    2ae0:	0e 94 be 4f 	call	0x9f7c	; 0x9f7c <move_z_rev>
    2ae4:	85 e0       	ldi	r24, 0x05	; 5
    2ae6:	0e 94 c8 3e 	call	0x7d90	; 0x7d90 <cube_show_loop>
    2aea:	c1 50       	subi	r28, 0x01	; 1
    2aec:	a9 f7       	brne	.-22     	; 0x2ad8 <cubes_4+0xd2>
    2aee:	c4 e0       	ldi	r28, 0x04	; 4
    2af0:	84 e0       	ldi	r24, 0x04	; 4
    2af2:	60 e0       	ldi	r22, 0x00	; 0
    2af4:	47 e0       	ldi	r20, 0x07	; 7
    2af6:	23 e0       	ldi	r18, 0x03	; 3
    2af8:	0e 94 a5 4f 	call	0x9f4a	; 0x9f4a <move_z_fwd>
    2afc:	85 e0       	ldi	r24, 0x05	; 5
    2afe:	0e 94 c8 3e 	call	0x7d90	; 0x7d90 <cube_show_loop>
    2b02:	c1 50       	subi	r28, 0x01	; 1
    2b04:	a9 f7       	brne	.-22     	; 0x2af0 <cubes_4+0xea>
    2b06:	c4 e0       	ldi	r28, 0x04	; 4
    2b08:	84 e0       	ldi	r24, 0x04	; 4
    2b0a:	64 e0       	ldi	r22, 0x04	; 4
    2b0c:	47 e0       	ldi	r20, 0x07	; 7
    2b0e:	27 e0       	ldi	r18, 0x07	; 7
    2b10:	0e 94 d7 4f 	call	0x9fae	; 0x9fae <move_y_fwd>
    2b14:	85 e0       	ldi	r24, 0x05	; 5
    2b16:	0e 94 c8 3e 	call	0x7d90	; 0x7d90 <cube_show_loop>
    2b1a:	c1 50       	subi	r28, 0x01	; 1
    2b1c:	a9 f7       	brne	.-22     	; 0x2b08 <cubes_4+0x102>
    2b1e:	c4 e0       	ldi	r28, 0x04	; 4
    2b20:	80 e0       	ldi	r24, 0x00	; 0
    2b22:	60 e0       	ldi	r22, 0x00	; 0
    2b24:	43 e0       	ldi	r20, 0x03	; 3
    2b26:	23 e0       	ldi	r18, 0x03	; 3
    2b28:	0e 94 ad 50 	call	0xa15a	; 0xa15a <move_x_fwd>
    2b2c:	85 e0       	ldi	r24, 0x05	; 5
    2b2e:	0e 94 c8 3e 	call	0x7d90	; 0x7d90 <cube_show_loop>
    2b32:	c1 50       	subi	r28, 0x01	; 1
    2b34:	a9 f7       	brne	.-22     	; 0x2b20 <cubes_4+0x11a>
    2b36:	c4 e0       	ldi	r28, 0x04	; 4
    2b38:	84 e0       	ldi	r24, 0x04	; 4
    2b3a:	60 e0       	ldi	r22, 0x00	; 0
    2b3c:	47 e0       	ldi	r20, 0x07	; 7
    2b3e:	23 e0       	ldi	r18, 0x03	; 3
    2b40:	0e 94 d7 4f 	call	0x9fae	; 0x9fae <move_y_fwd>
    2b44:	85 e0       	ldi	r24, 0x05	; 5
    2b46:	0e 94 c8 3e 	call	0x7d90	; 0x7d90 <cube_show_loop>
    2b4a:	c1 50       	subi	r28, 0x01	; 1
    2b4c:	a9 f7       	brne	.-22     	; 0x2b38 <cubes_4+0x132>
    2b4e:	c4 e0       	ldi	r28, 0x04	; 4
    2b50:	80 e0       	ldi	r24, 0x00	; 0
    2b52:	64 e0       	ldi	r22, 0x04	; 4
    2b54:	43 e0       	ldi	r20, 0x03	; 3
    2b56:	27 e0       	ldi	r18, 0x07	; 7
    2b58:	0e 94 41 50 	call	0xa082	; 0xa082 <move_y_rev>
    2b5c:	85 e0       	ldi	r24, 0x05	; 5
    2b5e:	0e 94 c8 3e 	call	0x7d90	; 0x7d90 <cube_show_loop>
    2b62:	c1 50       	subi	r28, 0x01	; 1
    2b64:	a9 f7       	brne	.-22     	; 0x2b50 <cubes_4+0x14a>
    2b66:	c4 e0       	ldi	r28, 0x04	; 4
    2b68:	80 e0       	ldi	r24, 0x00	; 0
    2b6a:	60 e0       	ldi	r22, 0x00	; 0
    2b6c:	43 e0       	ldi	r20, 0x03	; 3
    2b6e:	23 e0       	ldi	r18, 0x03	; 3
    2b70:	0e 94 be 4f 	call	0x9f7c	; 0x9f7c <move_z_rev>
    2b74:	85 e0       	ldi	r24, 0x05	; 5
    2b76:	0e 94 c8 3e 	call	0x7d90	; 0x7d90 <cube_show_loop>
    2b7a:	c1 50       	subi	r28, 0x01	; 1
    2b7c:	a9 f7       	brne	.-22     	; 0x2b68 <cubes_4+0x162>
    2b7e:	cf 91       	pop	r28
    2b80:	08 95       	ret

00002b82 <outline_shrink>:
    2b82:	cf 93       	push	r28
    2b84:	df 93       	push	r29
    2b86:	0e 94 9d 3d 	call	0x7b3a	; 0x7b3a <cube_clear>
    2b8a:	81 e0       	ldi	r24, 0x01	; 1
    2b8c:	90 e0       	ldi	r25, 0x00	; 0
    2b8e:	21 e8       	ldi	r18, 0x81	; 129
    2b90:	fc 01       	movw	r30, r24
    2b92:	d3 e0       	ldi	r29, 0x03	; 3
    2b94:	ee 0f       	add	r30, r30
    2b96:	ff 1f       	adc	r31, r31
    2b98:	da 95       	dec	r29
    2b9a:	e1 f7       	brne	.-8      	; 0x2b94 <outline_shrink+0x12>
    2b9c:	e0 55       	subi	r30, 0x50	; 80
    2b9e:	fe 4f       	sbci	r31, 0xFE	; 254
    2ba0:	20 83       	st	Z, r18
    2ba2:	27 83       	std	Z+7, r18	; 0x07
    2ba4:	01 96       	adiw	r24, 0x01	; 1
    2ba6:	87 30       	cpi	r24, 0x07	; 7
    2ba8:	91 05       	cpc	r25, r1
    2baa:	91 f7       	brne	.-28     	; 0x2b90 <outline_shrink+0xe>
    2bac:	81 e0       	ldi	r24, 0x01	; 1
    2bae:	90 e0       	ldi	r25, 0x00	; 0
    2bb0:	21 e8       	ldi	r18, 0x81	; 129
    2bb2:	c0 eb       	ldi	r28, 0xB0	; 176
    2bb4:	d1 e0       	ldi	r29, 0x01	; 1
    2bb6:	fc 01       	movw	r30, r24
    2bb8:	ec 0f       	add	r30, r28
    2bba:	fd 1f       	adc	r31, r29
    2bbc:	20 83       	st	Z, r18
    2bbe:	20 af       	sts	0x70, r18
    2bc0:	01 96       	adiw	r24, 0x01	; 1
    2bc2:	87 30       	cpi	r24, 0x07	; 7
    2bc4:	91 05       	cpc	r25, r1
    2bc6:	a9 f7       	brne	.-22     	; 0x2bb2 <outline_shrink+0x30>
    2bc8:	8f ef       	ldi	r24, 0xFF	; 255
    2bca:	80 93 b0 01 	sts	0x01B0, r24
    2bce:	88 af       	sts	0x78, r24
    2bd0:	8f 83       	std	Y+7, r24	; 0x07
    2bd2:	80 93 ef 01 	sts	0x01EF, r24
    2bd6:	8e e0       	ldi	r24, 0x0E	; 14
    2bd8:	0e 94 c8 3e 	call	0x7d90	; 0x7d90 <cube_show_loop>
    2bdc:	82 e4       	ldi	r24, 0x42	; 66
    2bde:	89 8b       	std	Y+17, r24	; 0x11
    2be0:	8e 8b       	std	Y+22, r24	; 0x16
    2be2:	89 8f       	std	Y+25, r24	; 0x19
    2be4:	8e 8f       	std	Y+30, r24	; 0x1e
    2be6:	89 a3       	lds	r24, 0x59
    2be8:	8e a3       	lds	r24, 0x5e
    2bea:	89 a7       	lds	r24, 0x79
    2bec:	8e a7       	lds	r24, 0x7e
    2bee:	8a 87       	std	Y+10, r24	; 0x0a
    2bf0:	8a ab       	sts	0x5a, r24
    2bf2:	8b 87       	std	Y+11, r24	; 0x0b
    2bf4:	8b ab       	sts	0x5b, r24
    2bf6:	8c 87       	std	Y+12, r24	; 0x0c
    2bf8:	8c ab       	sts	0x5c, r24
    2bfa:	8d 87       	std	Y+13, r24	; 0x0d
    2bfc:	8d ab       	sts	0x5d, r24
    2bfe:	8e e7       	ldi	r24, 0x7E	; 126
    2c00:	89 87       	std	Y+9, r24	; 0x09
    2c02:	89 ab       	sts	0x59, r24
    2c04:	8e 87       	std	Y+14, r24	; 0x0e
    2c06:	8e ab       	sts	0x5e, r24
    2c08:	8e e0       	ldi	r24, 0x0E	; 14
    2c0a:	0e 94 c8 3e 	call	0x7d90	; 0x7d90 <cube_show_loop>
    2c0e:	84 e2       	ldi	r24, 0x24	; 36
    2c10:	8a 8f       	std	Y+26, r24	; 0x1a
    2c12:	8d 8f       	std	Y+29, r24	; 0x1d
    2c14:	8a a3       	lds	r24, 0x5a
    2c16:	8d a3       	lds	r24, 0x5d
    2c18:	8b 8b       	std	Y+19, r24	; 0x13
    2c1a:	8b a7       	lds	r24, 0x7b
    2c1c:	8c 8b       	std	Y+20, r24	; 0x14
    2c1e:	8c a7       	lds	r24, 0x7c
    2c20:	8c e3       	ldi	r24, 0x3C	; 60
    2c22:	8a 8b       	std	Y+18, r24	; 0x12
    2c24:	8a a7       	lds	r24, 0x7a
    2c26:	8d 8b       	std	Y+21, r24	; 0x15
    2c28:	8d a7       	lds	r24, 0x7d
    2c2a:	8e e0       	ldi	r24, 0x0E	; 14
    2c2c:	0e 94 c8 3e 	call	0x7d90	; 0x7d90 <cube_show_loop>
    2c30:	88 e1       	ldi	r24, 0x18	; 24
    2c32:	8b 8f       	std	Y+27, r24	; 0x1b
    2c34:	8b a3       	lds	r24, 0x5b
    2c36:	8c 8f       	std	Y+28, r24	; 0x1c
    2c38:	8c a3       	lds	r24, 0x5c
    2c3a:	8c e8       	ldi	r24, 0x8C	; 140
    2c3c:	0e 94 c8 3e 	call	0x7d90	; 0x7d90 <cube_show_loop>
    2c40:	df 91       	pop	r29
    2c42:	cf 91       	pop	r28
    2c44:	08 95       	ret

00002c46 <cube_explosion>:
    2c46:	8f 92       	push	r8
    2c48:	9f 92       	push	r9
    2c4a:	af 92       	push	r10
    2c4c:	bf 92       	push	r11
    2c4e:	cf 92       	push	r12
    2c50:	df 92       	push	r13
    2c52:	ef 92       	push	r14
    2c54:	ff 92       	push	r15
    2c56:	0f 93       	push	r16
    2c58:	1f 93       	push	r17
    2c5a:	cf 93       	push	r28
    2c5c:	df 93       	push	r29
    2c5e:	d1 e0       	ldi	r29, 0x01	; 1
    2c60:	00 e0       	ldi	r16, 0x00	; 0
    2c62:	10 e0       	ldi	r17, 0x00	; 0
    2c64:	c8 e1       	ldi	r28, 0x18	; 24
    2c66:	77 e0       	ldi	r23, 0x07	; 7
    2c68:	e7 2e       	mov	r14, r23
    2c6a:	f1 2c       	mov	r15, r1
    2c6c:	e3 e0       	ldi	r30, 0x03	; 3
    2c6e:	8e 2e       	mov	r8, r30
    2c70:	91 2c       	mov	r9, r1
    2c72:	f1 e0       	ldi	r31, 0x01	; 1
    2c74:	cf 2e       	mov	r12, r31
    2c76:	d1 2c       	mov	r13, r1
    2c78:	53 c0       	rjmp	.+166    	; 0x2d20 <cube_explosion+0xda>
    2c7a:	b7 01       	movw	r22, r14
    2c7c:	68 1b       	sub	r22, r24
    2c7e:	79 0b       	sbc	r23, r25
    2c80:	fd 01       	movw	r30, r26
    2c82:	e6 0f       	add	r30, r22
    2c84:	f7 1f       	adc	r31, r23
    2c86:	e0 55       	subi	r30, 0x50	; 80
    2c88:	fe 4f       	sbci	r31, 0xFE	; 254
    2c8a:	c0 83       	st	Z, r28
    2c8c:	fd 01       	movw	r30, r26
    2c8e:	e8 0f       	add	r30, r24
    2c90:	f9 1f       	adc	r31, r25
    2c92:	e0 55       	subi	r30, 0x50	; 80
    2c94:	fe 4f       	sbci	r31, 0xFE	; 254
    2c96:	c0 83       	st	Z, r28
    2c98:	fa 01       	movw	r30, r20
    2c9a:	e6 0f       	add	r30, r22
    2c9c:	f7 1f       	adc	r31, r23
    2c9e:	e0 55       	subi	r30, 0x50	; 80
    2ca0:	fe 4f       	sbci	r31, 0xFE	; 254
    2ca2:	c0 83       	st	Z, r28
    2ca4:	fa 01       	movw	r30, r20
    2ca6:	e8 0f       	add	r30, r24
    2ca8:	f9 1f       	adc	r31, r25
    2caa:	e0 55       	subi	r30, 0x50	; 80
    2cac:	fe 4f       	sbci	r31, 0xFE	; 254
    2cae:	c0 83       	st	Z, r28
    2cb0:	2f 5f       	subi	r18, 0xFF	; 255
    2cb2:	0f c0       	rjmp	.+30     	; 0x2cd2 <cube_explosion+0x8c>
    2cb4:	23 e0       	ldi	r18, 0x03	; 3
    2cb6:	dc 01       	movw	r26, r24
    2cb8:	43 e0       	ldi	r20, 0x03	; 3
    2cba:	aa 0f       	add	r26, r26
    2cbc:	bb 1f       	adc	r27, r27
    2cbe:	4a 95       	dec	r20
    2cc0:	e1 f7       	brne	.-8      	; 0x2cba <cube_explosion+0x74>
    2cc2:	a7 01       	movw	r20, r14
    2cc4:	48 1b       	sub	r20, r24
    2cc6:	59 0b       	sbc	r21, r25
    2cc8:	63 e0       	ldi	r22, 0x03	; 3
    2cca:	44 0f       	add	r20, r20
    2ccc:	55 1f       	adc	r21, r21
    2cce:	6a 95       	dec	r22
    2cd0:	e1 f7       	brne	.-8      	; 0x2cca <cube_explosion+0x84>
    2cd2:	82 2f       	mov	r24, r18
    2cd4:	90 e0       	ldi	r25, 0x00	; 0
    2cd6:	a8 16       	cp	r10, r24
    2cd8:	b9 06       	cpc	r11, r25
    2cda:	7c f6       	brge	.-98     	; 0x2c7a <cube_explosion+0x34>
    2cdc:	3f 5f       	subi	r19, 0xFF	; 255
    2cde:	83 2f       	mov	r24, r19
    2ce0:	90 e0       	ldi	r25, 0x00	; 0
    2ce2:	a8 16       	cp	r10, r24
    2ce4:	b9 06       	cpc	r11, r25
    2ce6:	34 f7       	brge	.-52     	; 0x2cb4 <cube_explosion+0x6e>
    2ce8:	8d 2f       	mov	r24, r29
    2cea:	0e 94 c8 3e 	call	0x7d90	; 0x7d90 <cube_show_loop>
    2cee:	c4 01       	movw	r24, r8
    2cf0:	80 1b       	sub	r24, r16
    2cf2:	91 0b       	sbc	r25, r17
    2cf4:	96 01       	movw	r18, r12
    2cf6:	02 c0       	rjmp	.+4      	; 0x2cfc <cube_explosion+0xb6>
    2cf8:	22 0f       	add	r18, r18
    2cfa:	33 1f       	adc	r19, r19
    2cfc:	8a 95       	dec	r24
    2cfe:	e2 f7       	brpl	.-8      	; 0x2cf8 <cube_explosion+0xb2>
    2d00:	c8 01       	movw	r24, r16
    2d02:	04 96       	adiw	r24, 0x04	; 4
    2d04:	a6 01       	movw	r20, r12
    2d06:	02 c0       	rjmp	.+4      	; 0x2d0c <cube_explosion+0xc6>
    2d08:	44 0f       	add	r20, r20
    2d0a:	55 1f       	adc	r21, r21
    2d0c:	8a 95       	dec	r24
    2d0e:	e2 f7       	brpl	.-8      	; 0x2d08 <cube_explosion+0xc2>
    2d10:	ca 01       	movw	r24, r20
    2d12:	82 2b       	or	r24, r18
    2d14:	c8 2b       	or	r28, r24
    2d16:	0f 5f       	subi	r16, 0xFF	; 255
    2d18:	1f 4f       	sbci	r17, 0xFF	; 255
    2d1a:	de 5f       	subi	r29, 0xFE	; 254
    2d1c:	db 30       	cpi	r29, 0x0B	; 11
    2d1e:	39 f0       	breq	.+14     	; 0x2d2e <cube_explosion+0xe8>
    2d20:	33 e0       	ldi	r19, 0x03	; 3
    2d22:	f3 e0       	ldi	r31, 0x03	; 3
    2d24:	af 2e       	mov	r10, r31
    2d26:	b1 2c       	mov	r11, r1
    2d28:	a0 0e       	add	r10, r16
    2d2a:	b1 1e       	adc	r11, r17
    2d2c:	d8 cf       	rjmp	.-80     	; 0x2cde <cube_explosion+0x98>
    2d2e:	81 e0       	ldi	r24, 0x01	; 1
    2d30:	0e 94 c8 3e 	call	0x7d90	; 0x7d90 <cube_show_loop>
    2d34:	d1 e0       	ldi	r29, 0x01	; 1
    2d36:	04 e0       	ldi	r16, 0x04	; 4
    2d38:	10 e0       	ldi	r17, 0x00	; 0
    2d3a:	77 e0       	ldi	r23, 0x07	; 7
    2d3c:	e7 2e       	mov	r14, r23
    2d3e:	f1 2c       	mov	r15, r1
    2d40:	e1 e0       	ldi	r30, 0x01	; 1
    2d42:	ce 2e       	mov	r12, r30
    2d44:	d1 2c       	mov	r13, r1
    2d46:	c7 01       	movw	r24, r14
    2d48:	80 1b       	sub	r24, r16
    2d4a:	91 0b       	sbc	r25, r17
    2d4c:	96 01       	movw	r18, r12
    2d4e:	02 c0       	rjmp	.+4      	; 0x2d54 <cube_explosion+0x10e>
    2d50:	22 0f       	add	r18, r18
    2d52:	33 1f       	adc	r19, r19
    2d54:	8a 95       	dec	r24
    2d56:	e2 f7       	brpl	.-8      	; 0x2d50 <cube_explosion+0x10a>
    2d58:	c6 01       	movw	r24, r12
    2d5a:	00 2e       	mov	r0, r16
    2d5c:	02 c0       	rjmp	.+4      	; 0x2d62 <cube_explosion+0x11c>
    2d5e:	88 0f       	add	r24, r24
    2d60:	99 1f       	adc	r25, r25
    2d62:	0a 94       	dec	r0
    2d64:	e2 f7       	brpl	.-8      	; 0x2d5e <cube_explosion+0x118>
    2d66:	82 2b       	or	r24, r18
    2d68:	80 95       	com	r24
    2d6a:	c8 23       	and	r28, r24
    2d6c:	33 e0       	ldi	r19, 0x03	; 3
    2d6e:	58 01       	movw	r10, r16
    2d70:	08 94       	sec
    2d72:	a1 08       	sbc	r10, r1
    2d74:	b1 08       	sbc	r11, r1
    2d76:	32 c0       	rjmp	.+100    	; 0x2ddc <cube_explosion+0x196>
    2d78:	b7 01       	movw	r22, r14
    2d7a:	68 1b       	sub	r22, r24
    2d7c:	79 0b       	sbc	r23, r25
    2d7e:	fd 01       	movw	r30, r26
    2d80:	e6 0f       	add	r30, r22
    2d82:	f7 1f       	adc	r31, r23
    2d84:	e0 55       	subi	r30, 0x50	; 80
    2d86:	fe 4f       	sbci	r31, 0xFE	; 254
    2d88:	c0 83       	st	Z, r28
    2d8a:	fd 01       	movw	r30, r26
    2d8c:	e8 0f       	add	r30, r24
    2d8e:	f9 1f       	adc	r31, r25
    2d90:	e0 55       	subi	r30, 0x50	; 80
    2d92:	fe 4f       	sbci	r31, 0xFE	; 254
    2d94:	c0 83       	st	Z, r28
    2d96:	fa 01       	movw	r30, r20
    2d98:	e6 0f       	add	r30, r22
    2d9a:	f7 1f       	adc	r31, r23
    2d9c:	e0 55       	subi	r30, 0x50	; 80
    2d9e:	fe 4f       	sbci	r31, 0xFE	; 254
    2da0:	c0 83       	st	Z, r28
    2da2:	fa 01       	movw	r30, r20
    2da4:	e8 0f       	add	r30, r24
    2da6:	f9 1f       	adc	r31, r25
    2da8:	e0 55       	subi	r30, 0x50	; 80
    2daa:	fe 4f       	sbci	r31, 0xFE	; 254
    2dac:	c0 83       	st	Z, r28
    2dae:	2f 5f       	subi	r18, 0xFF	; 255
    2db0:	0f c0       	rjmp	.+30     	; 0x2dd0 <cube_explosion+0x18a>
    2db2:	23 e0       	ldi	r18, 0x03	; 3
    2db4:	dc 01       	movw	r26, r24
    2db6:	43 e0       	ldi	r20, 0x03	; 3
    2db8:	aa 0f       	add	r26, r26
    2dba:	bb 1f       	adc	r27, r27
    2dbc:	4a 95       	dec	r20
    2dbe:	e1 f7       	brne	.-8      	; 0x2db8 <cube_explosion+0x172>
    2dc0:	a7 01       	movw	r20, r14
    2dc2:	48 1b       	sub	r20, r24
    2dc4:	59 0b       	sbc	r21, r25
    2dc6:	63 e0       	ldi	r22, 0x03	; 3
    2dc8:	44 0f       	add	r20, r20
    2dca:	55 1f       	adc	r21, r21
    2dcc:	6a 95       	dec	r22
    2dce:	e1 f7       	brne	.-8      	; 0x2dc8 <cube_explosion+0x182>
    2dd0:	82 2f       	mov	r24, r18
    2dd2:	90 e0       	ldi	r25, 0x00	; 0
    2dd4:	a8 16       	cp	r10, r24
    2dd6:	b9 06       	cpc	r11, r25
    2dd8:	7c f6       	brge	.-98     	; 0x2d78 <cube_explosion+0x132>
    2dda:	3f 5f       	subi	r19, 0xFF	; 255
    2ddc:	83 2f       	mov	r24, r19
    2dde:	90 e0       	ldi	r25, 0x00	; 0
    2de0:	a8 16       	cp	r10, r24
    2de2:	b9 06       	cpc	r11, r25
    2de4:	34 f7       	brge	.-52     	; 0x2db2 <cube_explosion+0x16c>
    2de6:	8d 2f       	mov	r24, r29
    2de8:	0e 94 c8 3e 	call	0x7d90	; 0x7d90 <cube_show_loop>
    2dec:	0f 5f       	subi	r16, 0xFF	; 255
    2dee:	1f 4f       	sbci	r17, 0xFF	; 255
    2df0:	de 5f       	subi	r29, 0xFE	; 254
    2df2:	db 30       	cpi	r29, 0x0B	; 11
    2df4:	09 f0       	breq	.+2      	; 0x2df8 <cube_explosion+0x1b2>
    2df6:	a7 cf       	rjmp	.-178    	; 0x2d46 <cube_explosion+0x100>
    2df8:	81 e0       	ldi	r24, 0x01	; 1
    2dfa:	0e 94 c8 3e 	call	0x7d90	; 0x7d90 <cube_show_loop>
    2dfe:	df 91       	pop	r29
    2e00:	cf 91       	pop	r28
    2e02:	1f 91       	pop	r17
    2e04:	0f 91       	pop	r16
    2e06:	ff 90       	pop	r15
    2e08:	ef 90       	pop	r14
    2e0a:	df 90       	pop	r13
    2e0c:	cf 90       	pop	r12
    2e0e:	bf 90       	pop	r11
    2e10:	af 90       	pop	r10
    2e12:	9f 90       	pop	r9
    2e14:	8f 90       	pop	r8
    2e16:	08 95       	ret

00002e18 <cube_wipe>:
    2e18:	1f 93       	push	r17
    2e1a:	cf 93       	push	r28
    2e1c:	df 93       	push	r29
    2e1e:	0e 94 59 3e 	call	0x7cb2	; 0x7cb2 <cube_test_y>
    2e22:	84 e0       	ldi	r24, 0x04	; 4
    2e24:	0e 94 c8 3e 	call	0x7d90	; 0x7d90 <cube_show_loop>
    2e28:	c1 e0       	ldi	r28, 0x01	; 1
    2e2a:	d0 e0       	ldi	r29, 0x00	; 0
    2e2c:	1f ef       	ldi	r17, 0xFF	; 255
    2e2e:	17 c0       	rjmp	.+46     	; 0x2e5e <cube_wipe+0x46>
    2e30:	f9 01       	movw	r30, r18
    2e32:	e8 0f       	add	r30, r24
    2e34:	f9 1f       	adc	r31, r25
    2e36:	e0 55       	subi	r30, 0x50	; 80
    2e38:	fe 4f       	sbci	r31, 0xFE	; 254
    2e3a:	10 82       	st	Z, r1
    2e3c:	fa 01       	movw	r30, r20
    2e3e:	e8 0f       	add	r30, r24
    2e40:	f9 1f       	adc	r31, r25
    2e42:	e0 55       	subi	r30, 0x50	; 80
    2e44:	fe 4f       	sbci	r31, 0xFE	; 254
    2e46:	10 83       	st	Z, r17
    2e48:	01 96       	adiw	r24, 0x01	; 1
    2e4a:	88 30       	cpi	r24, 0x08	; 8
    2e4c:	91 05       	cpc	r25, r1
    2e4e:	81 f7       	brne	.-32     	; 0x2e30 <cube_wipe+0x18>
    2e50:	84 e0       	ldi	r24, 0x04	; 4
    2e52:	0e 94 c8 3e 	call	0x7d90	; 0x7d90 <cube_show_loop>
    2e56:	21 96       	adiw	r28, 0x01	; 1
    2e58:	c8 30       	cpi	r28, 0x08	; 8
    2e5a:	d1 05       	cpc	r29, r1
    2e5c:	89 f0       	breq	.+34     	; 0x2e80 <cube_wipe+0x68>
    2e5e:	80 e0       	ldi	r24, 0x00	; 0
    2e60:	90 e0       	ldi	r25, 0x00	; 0
    2e62:	9e 01       	movw	r18, r28
    2e64:	21 50       	subi	r18, 0x01	; 1
    2e66:	30 40       	sbci	r19, 0x00	; 0
    2e68:	a3 e0       	ldi	r26, 0x03	; 3
    2e6a:	22 0f       	add	r18, r18
    2e6c:	33 1f       	adc	r19, r19
    2e6e:	aa 95       	dec	r26
    2e70:	e1 f7       	brne	.-8      	; 0x2e6a <cube_wipe+0x52>
    2e72:	ae 01       	movw	r20, r28
    2e74:	b3 e0       	ldi	r27, 0x03	; 3
    2e76:	44 0f       	add	r20, r20
    2e78:	55 1f       	adc	r21, r21
    2e7a:	ba 95       	dec	r27
    2e7c:	e1 f7       	brne	.-8      	; 0x2e76 <cube_wipe+0x5e>
    2e7e:	d8 cf       	rjmp	.-80     	; 0x2e30 <cube_wipe+0x18>
    2e80:	c7 e0       	ldi	r28, 0x07	; 7
    2e82:	80 e0       	ldi	r24, 0x00	; 0
    2e84:	60 e0       	ldi	r22, 0x00	; 0
    2e86:	47 e0       	ldi	r20, 0x07	; 7
    2e88:	27 e0       	ldi	r18, 0x07	; 7
    2e8a:	0e 94 41 50 	call	0xa082	; 0xa082 <move_y_rev>
    2e8e:	84 e0       	ldi	r24, 0x04	; 4
    2e90:	0e 94 c8 3e 	call	0x7d90	; 0x7d90 <cube_show_loop>
    2e94:	c1 50       	subi	r28, 0x01	; 1
    2e96:	a9 f7       	brne	.-22     	; 0x2e82 <cube_wipe+0x6a>
    2e98:	df 91       	pop	r29
    2e9a:	cf 91       	pop	r28
    2e9c:	1f 91       	pop	r17
    2e9e:	08 95       	ret

00002ea0 <move_belt_left>:
    2ea0:	fc 01       	movw	r30, r24
    2ea2:	79 96       	adiw	r30, 0x19	; 25
    2ea4:	29 e1       	ldi	r18, 0x19	; 25
    2ea6:	df 01       	movw	r26, r30
    2ea8:	12 97       	sbiw	r26, 0x02	; 2
    2eaa:	3c 91       	ld	r19, X
    2eac:	32 93       	st	-Z, r19
    2eae:	21 50       	subi	r18, 0x01	; 1
    2eb0:	21 30       	cpi	r18, 0x01	; 1
    2eb2:	c9 f7       	brne	.-14     	; 0x2ea6 <move_belt_left+0x6>
    2eb4:	fc 01       	movw	r30, r24
    2eb6:	10 82       	st	Z, r1
    2eb8:	08 95       	ret

00002eba <set_char_to_belt>:
    2eba:	ef 92       	push	r14
    2ebc:	ff 92       	push	r15
    2ebe:	0f 93       	push	r16
    2ec0:	1f 93       	push	r17
    2ec2:	cf 93       	push	r28
    2ec4:	df 93       	push	r29
    2ec6:	0f 92       	push	r0
    2ec8:	cd b7       	in	r28, 0x3d	; 61
    2eca:	de b7       	in	r29, 0x3e	; 62
    2ecc:	8b 01       	movw	r16, r22
    2ece:	89 83       	std	Y+1, r24	; 0x01
    2ed0:	0e 94 9d 3d 	call	0x7b3a	; 0x7b3a <cube_clear>
    2ed4:	f8 94       	cli
    2ed6:	18 b8       	out	0x08, r1	; 8
    2ed8:	89 81       	ldd	r24, Y+1	; 0x01
    2eda:	61 e0       	ldi	r22, 0x01	; 1
    2edc:	0e 94 0f 01 	call	0x21e	; 0x21e <cube_char>
    2ee0:	20 e0       	ldi	r18, 0x00	; 0
    2ee2:	30 e0       	ldi	r19, 0x00	; 0
    2ee4:	61 e0       	ldi	r22, 0x01	; 1
    2ee6:	70 e0       	ldi	r23, 0x00	; 0
    2ee8:	84 e0       	ldi	r24, 0x04	; 4
    2eea:	e8 2e       	mov	r14, r24
    2eec:	f1 2c       	mov	r15, r1
    2eee:	e0 0e       	add	r14, r16
    2ef0:	f1 1e       	adc	r15, r17
    2ef2:	15 c0       	rjmp	.+42     	; 0x2f1e <set_char_to_belt+0x64>
    2ef4:	fa 01       	movw	r30, r20
    2ef6:	e8 0f       	add	r30, r24
    2ef8:	f9 1f       	adc	r31, r25
    2efa:	e0 55       	subi	r30, 0x50	; 80
    2efc:	fe 4f       	sbci	r31, 0xFE	; 254
    2efe:	e0 81       	ld	r30, Z
    2f00:	e0 ff       	sbrs	r30, 0
    2f02:	03 c0       	rjmp	.+6      	; 0x2f0a <set_char_to_belt+0x50>
    2f04:	ec 91       	ld	r30, X
    2f06:	e1 2b       	or	r30, r17
    2f08:	ec 93       	st	X, r30
    2f0a:	01 96       	adiw	r24, 0x01	; 1
    2f0c:	11 97       	sbiw	r26, 0x01	; 1
    2f0e:	86 30       	cpi	r24, 0x06	; 6
    2f10:	91 05       	cpc	r25, r1
    2f12:	81 f7       	brne	.-32     	; 0x2ef4 <set_char_to_belt+0x3a>
    2f14:	2f 5f       	subi	r18, 0xFF	; 255
    2f16:	3f 4f       	sbci	r19, 0xFF	; 255
    2f18:	28 30       	cpi	r18, 0x08	; 8
    2f1a:	31 05       	cpc	r19, r1
    2f1c:	91 f0       	breq	.+36     	; 0x2f42 <set_char_to_belt+0x88>
    2f1e:	cb 01       	movw	r24, r22
    2f20:	02 2e       	mov	r0, r18
    2f22:	02 c0       	rjmp	.+4      	; 0x2f28 <set_char_to_belt+0x6e>
    2f24:	88 0f       	add	r24, r24
    2f26:	99 1f       	adc	r25, r25
    2f28:	0a 94       	dec	r0
    2f2a:	e2 f7       	brpl	.-8      	; 0x2f24 <set_char_to_belt+0x6a>
    2f2c:	18 2f       	mov	r17, r24
    2f2e:	d7 01       	movw	r26, r14
    2f30:	81 e0       	ldi	r24, 0x01	; 1
    2f32:	90 e0       	ldi	r25, 0x00	; 0
    2f34:	a9 01       	movw	r20, r18
    2f36:	03 e0       	ldi	r16, 0x03	; 3
    2f38:	44 0f       	add	r20, r20
    2f3a:	55 1f       	adc	r21, r21
    2f3c:	0a 95       	dec	r16
    2f3e:	e1 f7       	brne	.-8      	; 0x2f38 <set_char_to_belt+0x7e>
    2f40:	d9 cf       	rjmp	.-78     	; 0x2ef4 <set_char_to_belt+0x3a>
    2f42:	0e 94 9d 3d 	call	0x7b3a	; 0x7b3a <cube_clear>
    2f46:	78 94       	sei
    2f48:	0f 90       	pop	r0
    2f4a:	df 91       	pop	r29
    2f4c:	cf 91       	pop	r28
    2f4e:	1f 91       	pop	r17
    2f50:	0f 91       	pop	r16
    2f52:	ff 90       	pop	r15
    2f54:	ef 90       	pop	r14
    2f56:	08 95       	ret

00002f58 <show_belt>:
    2f58:	ef 92       	push	r14
    2f5a:	ff 92       	push	r15
    2f5c:	0f 93       	push	r16
    2f5e:	1f 93       	push	r17
    2f60:	cf 93       	push	r28
    2f62:	df 93       	push	r29
    2f64:	ec 01       	movw	r28, r24
    2f66:	0e 94 9d 3d 	call	0x7b3a	; 0x7b3a <cube_clear>
    2f6a:	40 e0       	ldi	r20, 0x00	; 0
    2f6c:	50 e0       	ldi	r21, 0x00	; 0
    2f6e:	07 e0       	ldi	r16, 0x07	; 7
    2f70:	10 e0       	ldi	r17, 0x00	; 0
    2f72:	e1 e0       	ldi	r30, 0x01	; 1
    2f74:	ee 2e       	mov	r14, r30
    2f76:	f1 2c       	mov	r15, r1
    2f78:	26 c0       	rjmp	.+76     	; 0x2fc6 <show_belt+0x6e>
    2f7a:	15 96       	adiw	r26, 0x05	; 5
    2f7c:	8c 91       	ld	r24, X
    2f7e:	15 97       	sbiw	r26, 0x05	; 5
    2f80:	90 e0       	ldi	r25, 0x00	; 0
    2f82:	02 2e       	mov	r0, r18
    2f84:	02 c0       	rjmp	.+4      	; 0x2f8a <show_belt+0x32>
    2f86:	95 95       	asr	r25
    2f88:	87 95       	ror	r24
    2f8a:	0a 94       	dec	r0
    2f8c:	e2 f7       	brpl	.-8      	; 0x2f86 <show_belt+0x2e>
    2f8e:	80 ff       	sbrs	r24, 0
    2f90:	0b c0       	rjmp	.+22     	; 0x2fa8 <show_belt+0x50>
    2f92:	f9 01       	movw	r30, r18
    2f94:	73 e0       	ldi	r23, 0x03	; 3
    2f96:	ee 0f       	add	r30, r30
    2f98:	ff 1f       	adc	r31, r31
    2f9a:	7a 95       	dec	r23
    2f9c:	e1 f7       	brne	.-8      	; 0x2f96 <show_belt+0x3e>
    2f9e:	e0 55       	subi	r30, 0x50	; 80
    2fa0:	fe 4f       	sbci	r31, 0xFE	; 254
    2fa2:	87 81       	ldd	r24, Z+7	; 0x07
    2fa4:	86 2b       	or	r24, r22
    2fa6:	87 83       	std	Z+7, r24	; 0x07
    2fa8:	2f 5f       	subi	r18, 0xFF	; 255
    2faa:	3f 4f       	sbci	r19, 0xFF	; 255
    2fac:	28 30       	cpi	r18, 0x08	; 8
    2fae:	31 05       	cpc	r19, r1
    2fb0:	21 f7       	brne	.-56     	; 0x2f7a <show_belt+0x22>
    2fb2:	4f 5f       	subi	r20, 0xFF	; 255
    2fb4:	5f 4f       	sbci	r21, 0xFF	; 255
    2fb6:	47 30       	cpi	r20, 0x07	; 7
    2fb8:	51 05       	cpc	r21, r1
    2fba:	29 f4       	brne	.+10     	; 0x2fc6 <show_belt+0x6e>
    2fbc:	de 01       	movw	r26, r28
    2fbe:	1c 96       	adiw	r26, 0x0c	; 12
    2fc0:	46 e0       	ldi	r20, 0x06	; 6
    2fc2:	50 e0       	ldi	r21, 0x00	; 0
    2fc4:	30 c0       	rjmp	.+96     	; 0x3026 <show_belt+0xce>
    2fc6:	c8 01       	movw	r24, r16
    2fc8:	84 1b       	sub	r24, r20
    2fca:	95 0b       	sbc	r25, r21
    2fcc:	97 01       	movw	r18, r14
    2fce:	02 c0       	rjmp	.+4      	; 0x2fd4 <show_belt+0x7c>
    2fd0:	22 0f       	add	r18, r18
    2fd2:	33 1f       	adc	r19, r19
    2fd4:	8a 95       	dec	r24
    2fd6:	e2 f7       	brpl	.-8      	; 0x2fd0 <show_belt+0x78>
    2fd8:	62 2f       	mov	r22, r18
    2fda:	20 e0       	ldi	r18, 0x00	; 0
    2fdc:	30 e0       	ldi	r19, 0x00	; 0
    2fde:	de 01       	movw	r26, r28
    2fe0:	a4 0f       	add	r26, r20
    2fe2:	b5 1f       	adc	r27, r21
    2fe4:	ca cf       	rjmp	.-108    	; 0x2f7a <show_belt+0x22>
    2fe6:	8c 91       	ld	r24, X
    2fe8:	90 e0       	ldi	r25, 0x00	; 0
    2fea:	02 2e       	mov	r0, r18
    2fec:	02 c0       	rjmp	.+4      	; 0x2ff2 <show_belt+0x9a>
    2fee:	95 95       	asr	r25
    2ff0:	87 95       	ror	r24
    2ff2:	0a 94       	dec	r0
    2ff4:	e2 f7       	brpl	.-8      	; 0x2fee <show_belt+0x96>
    2ff6:	80 ff       	sbrs	r24, 0
    2ff8:	0d c0       	rjmp	.+26     	; 0x3014 <show_belt+0xbc>
    2ffa:	f9 01       	movw	r30, r18
    2ffc:	63 e0       	ldi	r22, 0x03	; 3
    2ffe:	ee 0f       	add	r30, r30
    3000:	ff 1f       	adc	r31, r31
    3002:	6a 95       	dec	r22
    3004:	e1 f7       	brne	.-8      	; 0x2ffe <show_belt+0xa6>
    3006:	e4 0f       	add	r30, r20
    3008:	f5 1f       	adc	r31, r21
    300a:	e0 55       	subi	r30, 0x50	; 80
    300c:	fe 4f       	sbci	r31, 0xFE	; 254
    300e:	80 81       	ld	r24, Z
    3010:	81 60       	ori	r24, 0x01	; 1
    3012:	80 83       	st	Z, r24
    3014:	2f 5f       	subi	r18, 0xFF	; 255
    3016:	3f 4f       	sbci	r19, 0xFF	; 255
    3018:	28 30       	cpi	r18, 0x08	; 8
    301a:	31 05       	cpc	r19, r1
    301c:	21 f7       	brne	.-56     	; 0x2fe6 <show_belt+0x8e>
    301e:	11 96       	adiw	r26, 0x01	; 1
    3020:	41 50       	subi	r20, 0x01	; 1
    3022:	50 40       	sbci	r21, 0x00	; 0
    3024:	29 f1       	breq	.+74     	; 0x3070 <show_belt+0x118>
    3026:	20 e0       	ldi	r18, 0x00	; 0
    3028:	30 e0       	ldi	r19, 0x00	; 0
    302a:	dd cf       	rjmp	.-70     	; 0x2fe6 <show_belt+0x8e>
    302c:	51 96       	adiw	r26, 0x11	; 17
    302e:	8c 91       	ld	r24, X
    3030:	51 97       	sbiw	r26, 0x11	; 17
    3032:	90 e0       	ldi	r25, 0x00	; 0
    3034:	02 2e       	mov	r0, r18
    3036:	02 c0       	rjmp	.+4      	; 0x303c <show_belt+0xe4>
    3038:	95 95       	asr	r25
    303a:	87 95       	ror	r24
    303c:	0a 94       	dec	r0
    303e:	e2 f7       	brpl	.-8      	; 0x3038 <show_belt+0xe0>
    3040:	80 ff       	sbrs	r24, 0
    3042:	0b c0       	rjmp	.+22     	; 0x305a <show_belt+0x102>
    3044:	f9 01       	movw	r30, r18
    3046:	93 e0       	ldi	r25, 0x03	; 3
    3048:	ee 0f       	add	r30, r30
    304a:	ff 1f       	adc	r31, r31
    304c:	9a 95       	dec	r25
    304e:	e1 f7       	brne	.-8      	; 0x3048 <show_belt+0xf0>
    3050:	e0 55       	subi	r30, 0x50	; 80
    3052:	fe 4f       	sbci	r31, 0xFE	; 254
    3054:	90 81       	ld	r25, Z
    3056:	90 2b       	or	r25, r16
    3058:	90 83       	st	Z, r25
    305a:	2f 5f       	subi	r18, 0xFF	; 255
    305c:	3f 4f       	sbci	r19, 0xFF	; 255
    305e:	28 30       	cpi	r18, 0x08	; 8
    3060:	31 05       	cpc	r19, r1
    3062:	21 f7       	brne	.-56     	; 0x302c <show_belt+0xd4>
    3064:	4f 5f       	subi	r20, 0xFF	; 255
    3066:	5f 4f       	sbci	r21, 0xFF	; 255
    3068:	48 30       	cpi	r20, 0x08	; 8
    306a:	51 05       	cpc	r21, r1
    306c:	29 f4       	brne	.+10     	; 0x3078 <show_belt+0x120>
    306e:	12 c0       	rjmp	.+36     	; 0x3094 <show_belt+0x13c>
    3070:	41 e0       	ldi	r20, 0x01	; 1
    3072:	50 e0       	ldi	r21, 0x00	; 0
    3074:	61 e0       	ldi	r22, 0x01	; 1
    3076:	70 e0       	ldi	r23, 0x00	; 0
    3078:	cb 01       	movw	r24, r22
    307a:	04 2e       	mov	r0, r20
    307c:	02 c0       	rjmp	.+4      	; 0x3082 <show_belt+0x12a>
    307e:	88 0f       	add	r24, r24
    3080:	99 1f       	adc	r25, r25
    3082:	0a 94       	dec	r0
    3084:	e2 f7       	brpl	.-8      	; 0x307e <show_belt+0x126>
    3086:	08 2f       	mov	r16, r24
    3088:	20 e0       	ldi	r18, 0x00	; 0
    308a:	30 e0       	ldi	r19, 0x00	; 0
    308c:	de 01       	movw	r26, r28
    308e:	a4 0f       	add	r26, r20
    3090:	b5 1f       	adc	r27, r21
    3092:	cc cf       	rjmp	.-104    	; 0x302c <show_belt+0xd4>
    3094:	85 e0       	ldi	r24, 0x05	; 5
    3096:	0e 94 c8 3e 	call	0x7d90	; 0x7d90 <cube_show_loop>
    309a:	df 91       	pop	r29
    309c:	cf 91       	pop	r28
    309e:	1f 91       	pop	r17
    30a0:	0f 91       	pop	r16
    30a2:	ff 90       	pop	r15
    30a4:	ef 90       	pop	r14
    30a6:	08 95       	ret

000030a8 <cube_string_belt>:
    30a8:	ff 92       	push	r15
    30aa:	0f 93       	push	r16
    30ac:	1f 93       	push	r17
    30ae:	cf 93       	push	r28
    30b0:	df 93       	push	r29
    30b2:	cd b7       	in	r28, 0x3d	; 61
    30b4:	de b7       	in	r29, 0x3e	; 62
    30b6:	69 97       	sbiw	r28, 0x19	; 25
    30b8:	0f b6       	in	r0, 0x3f	; 63
    30ba:	f8 94       	cli
    30bc:	de bf       	out	0x3e, r29	; 62
    30be:	0f be       	out	0x3f, r0	; 63
    30c0:	cd bf       	out	0x3d, r28	; 61
    30c2:	fe 01       	movw	r30, r28
    30c4:	31 96       	adiw	r30, 0x01	; 1
    30c6:	29 e1       	ldi	r18, 0x19	; 25
    30c8:	11 92       	st	Z+, r1
    30ca:	21 50       	subi	r18, 0x01	; 1
    30cc:	e9 f7       	brne	.-6      	; 0x30c8 <cube_string_belt+0x20>
    30ce:	8c 01       	movw	r16, r24
    30d0:	0e 5f       	subi	r16, 0xFE	; 254
    30d2:	1f 4f       	sbci	r17, 0xFF	; 255
    30d4:	11 c0       	rjmp	.+34     	; 0x30f8 <cube_string_belt+0x50>
    30d6:	be 01       	movw	r22, r28
    30d8:	6f 5f       	subi	r22, 0xFF	; 255
    30da:	7f 4f       	sbci	r23, 0xFF	; 255
    30dc:	0e 94 5d 17 	call	0x2eba	; 0x2eba <set_char_to_belt>
    30e0:	f6 e0       	ldi	r31, 0x06	; 6
    30e2:	ff 2e       	mov	r15, r31
    30e4:	ce 01       	movw	r24, r28
    30e6:	01 96       	adiw	r24, 0x01	; 1
    30e8:	0e 94 ac 17 	call	0x2f58	; 0x2f58 <show_belt>
    30ec:	ce 01       	movw	r24, r28
    30ee:	01 96       	adiw	r24, 0x01	; 1
    30f0:	0e 94 50 17 	call	0x2ea0	; 0x2ea0 <move_belt_left>
    30f4:	fa 94       	dec	r15
    30f6:	b1 f7       	brne	.-20     	; 0x30e4 <cube_string_belt+0x3c>
    30f8:	f8 01       	movw	r30, r16
    30fa:	81 91       	ld	r24, Z+
    30fc:	8f 01       	movw	r16, r30
    30fe:	88 23       	and	r24, r24
    3100:	51 f7       	brne	.-44     	; 0x30d6 <cube_string_belt+0x2e>
    3102:	02 e1       	ldi	r16, 0x12	; 18
    3104:	ce 01       	movw	r24, r28
    3106:	01 96       	adiw	r24, 0x01	; 1
    3108:	0e 94 ac 17 	call	0x2f58	; 0x2f58 <show_belt>
    310c:	ce 01       	movw	r24, r28
    310e:	01 96       	adiw	r24, 0x01	; 1
    3110:	0e 94 50 17 	call	0x2ea0	; 0x2ea0 <move_belt_left>
    3114:	01 50       	subi	r16, 0x01	; 1
    3116:	b1 f7       	brne	.-20     	; 0x3104 <cube_string_belt+0x5c>
    3118:	69 96       	adiw	r28, 0x19	; 25
    311a:	0f b6       	in	r0, 0x3f	; 63
    311c:	f8 94       	cli
    311e:	de bf       	out	0x3e, r29	; 62
    3120:	0f be       	out	0x3f, r0	; 63
    3122:	cd bf       	out	0x3d, r28	; 61
    3124:	df 91       	pop	r29
    3126:	cf 91       	pop	r28
    3128:	1f 91       	pop	r17
    312a:	0f 91       	pop	r16
    312c:	ff 90       	pop	r15
    312e:	08 95       	ret

00003130 <cube_fixed_string>:
    3130:	0e 94 9d 3d 	call	0x7b3a	; 0x7b3a <cube_clear>
    3134:	0e 94 9d 3d 	call	0x7b3a	; 0x7b3a <cube_clear>
    3138:	83 e3       	ldi	r24, 0x33	; 51
    313a:	62 e0       	ldi	r22, 0x02	; 2
    313c:	0e 94 0f 01 	call	0x21e	; 0x21e <cube_char>
    3140:	0e 94 fe 4e 	call	0x9dfc	; 0x9dfc <rotate_90_deg>
    3144:	0e 94 fe 4e 	call	0x9dfc	; 0x9dfc <rotate_90_deg>
    3148:	84 e6       	ldi	r24, 0x64	; 100
    314a:	62 e0       	ldi	r22, 0x02	; 2
    314c:	0e 94 0f 01 	call	0x21e	; 0x21e <cube_char>
    3150:	0e 94 fe 4e 	call	0x9dfc	; 0x9dfc <rotate_90_deg>
    3154:	88 e0       	ldi	r24, 0x08	; 8
    3156:	0e 94 6c 3f 	call	0x7ed8	; 0x7ed8 <rotate_90_auto>
    315a:	08 95       	ret

0000315c <cube_string_to_front>:
    315c:	ef 92       	push	r14
    315e:	ff 92       	push	r15
    3160:	0f 93       	push	r16
    3162:	1f 93       	push	r17
    3164:	cf 93       	push	r28
    3166:	df 93       	push	r29
    3168:	8c 01       	movw	r16, r24
    316a:	a1 e0       	ldi	r26, 0x01	; 1
    316c:	ea 2e       	mov	r14, r26
    316e:	f1 2c       	mov	r15, r1
    3170:	19 c0       	rjmp	.+50     	; 0x31a4 <cube_string_to_front+0x48>
    3172:	c7 e0       	ldi	r28, 0x07	; 7
    3174:	d0 e0       	ldi	r29, 0x00	; 0
    3176:	0e 94 9d 3d 	call	0x7b3a	; 0x7b3a <cube_clear>
    317a:	b7 01       	movw	r22, r14
    317c:	0c 2e       	mov	r0, r28
    317e:	02 c0       	rjmp	.+4      	; 0x3184 <cube_string_to_front+0x28>
    3180:	66 0f       	add	r22, r22
    3182:	77 1f       	adc	r23, r23
    3184:	0a 94       	dec	r0
    3186:	e2 f7       	brpl	.-8      	; 0x3180 <cube_string_to_front+0x24>
    3188:	f8 01       	movw	r30, r16
    318a:	80 81       	ld	r24, Z
    318c:	0e 94 0f 01 	call	0x21e	; 0x21e <cube_char>
    3190:	83 e0       	ldi	r24, 0x03	; 3
    3192:	0e 94 c8 3e 	call	0x7d90	; 0x7d90 <cube_show_loop>
    3196:	21 97       	sbiw	r28, 0x01	; 1
    3198:	ff ef       	ldi	r31, 0xFF	; 255
    319a:	cf 3f       	cpi	r28, 0xFF	; 255
    319c:	df 07       	cpc	r29, r31
    319e:	59 f7       	brne	.-42     	; 0x3176 <cube_string_to_front+0x1a>
    31a0:	0f 5f       	subi	r16, 0xFF	; 255
    31a2:	1f 4f       	sbci	r17, 0xFF	; 255
    31a4:	f8 01       	movw	r30, r16
    31a6:	80 81       	ld	r24, Z
    31a8:	88 23       	and	r24, r24
    31aa:	19 f7       	brne	.-58     	; 0x3172 <cube_string_to_front+0x16>
    31ac:	df 91       	pop	r29
    31ae:	cf 91       	pop	r28
    31b0:	1f 91       	pop	r17
    31b2:	0f 91       	pop	r16
    31b4:	ff 90       	pop	r15
    31b6:	ef 90       	pop	r14
    31b8:	08 95       	ret

000031ba <cube_outline>:
    31ba:	ef 92       	push	r14
    31bc:	ff 92       	push	r15
    31be:	0f 93       	push	r16
    31c0:	1f 93       	push	r17
    31c2:	cf 93       	push	r28
    31c4:	df 93       	push	r29
    31c6:	0e 94 9d 3d 	call	0x7b3a	; 0x7b3a <cube_clear>
    31ca:	86 e0       	ldi	r24, 0x06	; 6
    31cc:	0e 94 c8 3e 	call	0x7d90	; 0x7d90 <cube_show_loop>
    31d0:	c0 e0       	ldi	r28, 0x00	; 0
    31d2:	d0 e0       	ldi	r29, 0x00	; 0
    31d4:	01 e0       	ldi	r16, 0x01	; 1
    31d6:	10 e0       	ldi	r17, 0x00	; 0
    31d8:	20 91 b0 01 	lds	r18, 0x01B0
    31dc:	c8 01       	movw	r24, r16
    31de:	0c 2e       	mov	r0, r28
    31e0:	02 c0       	rjmp	.+4      	; 0x31e6 <cube_outline+0x2c>
    31e2:	88 0f       	add	r24, r24
    31e4:	99 1f       	adc	r25, r25
    31e6:	0a 94       	dec	r0
    31e8:	e2 f7       	brpl	.-8      	; 0x31e2 <cube_outline+0x28>
    31ea:	28 2b       	or	r18, r24
    31ec:	20 93 b0 01 	sts	0x01B0, r18
    31f0:	fe 01       	movw	r30, r28
    31f2:	33 e0       	ldi	r19, 0x03	; 3
    31f4:	ee 0f       	add	r30, r30
    31f6:	ff 1f       	adc	r31, r31
    31f8:	3a 95       	dec	r19
    31fa:	e1 f7       	brne	.-8      	; 0x31f4 <cube_outline+0x3a>
    31fc:	e0 55       	subi	r30, 0x50	; 80
    31fe:	fe 4f       	sbci	r31, 0xFE	; 254
    3200:	80 81       	ld	r24, Z
    3202:	81 60       	ori	r24, 0x01	; 1
    3204:	80 83       	st	Z, r24
    3206:	fe 01       	movw	r30, r28
    3208:	e0 55       	subi	r30, 0x50	; 80
    320a:	fe 4f       	sbci	r31, 0xFE	; 254
    320c:	80 81       	ld	r24, Z
    320e:	81 60       	ori	r24, 0x01	; 1
    3210:	80 83       	st	Z, r24
    3212:	86 e0       	ldi	r24, 0x06	; 6
    3214:	0e 94 c8 3e 	call	0x7d90	; 0x7d90 <cube_show_loop>
    3218:	21 96       	adiw	r28, 0x01	; 1
    321a:	c8 30       	cpi	r28, 0x08	; 8
    321c:	d1 05       	cpc	r29, r1
    321e:	e1 f6       	brne	.-72     	; 0x31d8 <cube_outline+0x1e>
    3220:	c1 e0       	ldi	r28, 0x01	; 1
    3222:	d0 e0       	ldi	r29, 0x00	; 0
    3224:	01 e0       	ldi	r16, 0x01	; 1
    3226:	10 e0       	ldi	r17, 0x00	; 0
    3228:	20 91 e8 01 	lds	r18, 0x01E8
    322c:	c8 01       	movw	r24, r16
    322e:	0c 2e       	mov	r0, r28
    3230:	02 c0       	rjmp	.+4      	; 0x3236 <cube_outline+0x7c>
    3232:	88 0f       	add	r24, r24
    3234:	99 1f       	adc	r25, r25
    3236:	0a 94       	dec	r0
    3238:	e2 f7       	brpl	.-8      	; 0x3232 <cube_outline+0x78>
    323a:	28 2b       	or	r18, r24
    323c:	20 93 e8 01 	sts	0x01E8, r18
    3240:	de 01       	movw	r26, r28
    3242:	a0 55       	subi	r26, 0x50	; 80
    3244:	be 4f       	sbci	r27, 0xFE	; 254
    3246:	d8 96       	adiw	r26, 0x38	; 56
    3248:	9c 91       	ld	r25, X
    324a:	d8 97       	sbiw	r26, 0x38	; 56
    324c:	91 60       	ori	r25, 0x01	; 1
    324e:	d8 96       	adiw	r26, 0x38	; 56
    3250:	9c 93       	st	X, r25
    3252:	d8 97       	sbiw	r26, 0x38	; 56
    3254:	fe 01       	movw	r30, r28
    3256:	23 e0       	ldi	r18, 0x03	; 3
    3258:	ee 0f       	add	r30, r30
    325a:	ff 1f       	adc	r31, r31
    325c:	2a 95       	dec	r18
    325e:	e1 f7       	brne	.-8      	; 0x3258 <cube_outline+0x9e>
    3260:	e0 55       	subi	r30, 0x50	; 80
    3262:	fe 4f       	sbci	r31, 0xFE	; 254
    3264:	90 81       	ld	r25, Z
    3266:	90 68       	ori	r25, 0x80	; 128
    3268:	90 83       	st	Z, r25
    326a:	9c 91       	ld	r25, X
    326c:	90 68       	ori	r25, 0x80	; 128
    326e:	9c 93       	st	X, r25
    3270:	90 91 b7 01 	lds	r25, 0x01B7
    3274:	98 2b       	or	r25, r24
    3276:	90 93 b7 01 	sts	0x01B7, r25
    327a:	87 81       	ldd	r24, Z+7	; 0x07
    327c:	81 60       	ori	r24, 0x01	; 1
    327e:	87 83       	std	Z+7, r24	; 0x07
    3280:	86 e0       	ldi	r24, 0x06	; 6
    3282:	0e 94 c8 3e 	call	0x7d90	; 0x7d90 <cube_show_loop>
    3286:	21 96       	adiw	r28, 0x01	; 1
    3288:	c8 30       	cpi	r28, 0x08	; 8
    328a:	d1 05       	cpc	r29, r1
    328c:	69 f6       	brne	.-102    	; 0x3228 <cube_outline+0x6e>
    328e:	c1 e0       	ldi	r28, 0x01	; 1
    3290:	d0 e0       	ldi	r29, 0x00	; 0
    3292:	91 e0       	ldi	r25, 0x01	; 1
    3294:	e9 2e       	mov	r14, r25
    3296:	f1 2c       	mov	r15, r1
    3298:	00 eb       	ldi	r16, 0xB0	; 176
    329a:	11 e0       	ldi	r17, 0x01	; 1
    329c:	fe 01       	movw	r30, r28
    329e:	e0 0f       	add	r30, r16
    32a0:	f1 1f       	adc	r31, r17
    32a2:	80 ad       	sts	0x60, r24
    32a4:	80 68       	ori	r24, 0x80	; 128
    32a6:	80 af       	sts	0x70, r24
    32a8:	20 91 ef 01 	lds	r18, 0x01EF
    32ac:	c7 01       	movw	r24, r14
    32ae:	0c 2e       	mov	r0, r28
    32b0:	02 c0       	rjmp	.+4      	; 0x32b6 <cube_outline+0xfc>
    32b2:	88 0f       	add	r24, r24
    32b4:	99 1f       	adc	r25, r25
    32b6:	0a 94       	dec	r0
    32b8:	e2 f7       	brpl	.-8      	; 0x32b2 <cube_outline+0xf8>
    32ba:	28 2b       	or	r18, r24
    32bc:	20 93 ef 01 	sts	0x01EF, r18
    32c0:	fe 01       	movw	r30, r28
    32c2:	83 e0       	ldi	r24, 0x03	; 3
    32c4:	ee 0f       	add	r30, r30
    32c6:	ff 1f       	adc	r31, r31
    32c8:	8a 95       	dec	r24
    32ca:	e1 f7       	brne	.-8      	; 0x32c4 <cube_outline+0x10a>
    32cc:	e0 0f       	add	r30, r16
    32ce:	f1 1f       	adc	r31, r17
    32d0:	87 81       	ldd	r24, Z+7	; 0x07
    32d2:	80 68       	ori	r24, 0x80	; 128
    32d4:	87 83       	std	Z+7, r24	; 0x07
    32d6:	86 e0       	ldi	r24, 0x06	; 6
    32d8:	0e 94 c8 3e 	call	0x7d90	; 0x7d90 <cube_show_loop>
    32dc:	21 96       	adiw	r28, 0x01	; 1
    32de:	c8 30       	cpi	r28, 0x08	; 8
    32e0:	d1 05       	cpc	r29, r1
    32e2:	d1 f6       	brne	.-76     	; 0x3298 <cube_outline+0xde>
    32e4:	84 e1       	ldi	r24, 0x14	; 20
    32e6:	0e 94 c8 3e 	call	0x7d90	; 0x7d90 <cube_show_loop>
    32ea:	0e 94 9d 3d 	call	0x7b3a	; 0x7b3a <cube_clear>
    32ee:	8e e7       	ldi	r24, 0x7E	; 126
    32f0:	f8 01       	movw	r30, r16
    32f2:	81 87       	std	Z+9, r24	; 0x09
    32f4:	86 87       	std	Z+14, r24	; 0x0e
    32f6:	81 ab       	sts	0x51, r24
    32f8:	86 ab       	sts	0x56, r24
    32fa:	82 e0       	ldi	r24, 0x02	; 2
    32fc:	90 e0       	ldi	r25, 0x00	; 0
    32fe:	22 e4       	ldi	r18, 0x42	; 66
    3300:	fc 01       	movw	r30, r24
    3302:	e0 55       	subi	r30, 0x50	; 80
    3304:	fe 4f       	sbci	r31, 0xFE	; 254
    3306:	20 87       	std	Z+8, r18	; 0x08
    3308:	20 ab       	sts	0x50, r18
    330a:	fc 01       	movw	r30, r24
    330c:	b3 e0       	ldi	r27, 0x03	; 3
    330e:	ee 0f       	add	r30, r30
    3310:	ff 1f       	adc	r31, r31
    3312:	ba 95       	dec	r27
    3314:	e1 f7       	brne	.-8      	; 0x330e <cube_outline+0x154>
    3316:	e0 55       	subi	r30, 0x50	; 80
    3318:	fe 4f       	sbci	r31, 0xFE	; 254
    331a:	21 83       	std	Z+1, r18	; 0x01
    331c:	26 83       	std	Z+6, r18	; 0x06
    331e:	01 96       	adiw	r24, 0x01	; 1
    3320:	86 30       	cpi	r24, 0x06	; 6
    3322:	91 05       	cpc	r25, r1
    3324:	69 f7       	brne	.-38     	; 0x3300 <cube_outline+0x146>
    3326:	8e e1       	ldi	r24, 0x1E	; 30
    3328:	0e 94 c8 3e 	call	0x7d90	; 0x7d90 <cube_show_loop>
    332c:	88 e0       	ldi	r24, 0x08	; 8
    332e:	0e 94 6c 3f 	call	0x7ed8	; 0x7ed8 <rotate_90_auto>
    3332:	df 91       	pop	r29
    3334:	cf 91       	pop	r28
    3336:	1f 91       	pop	r17
    3338:	0f 91       	pop	r16
    333a:	ff 90       	pop	r15
    333c:	ef 90       	pop	r14
    333e:	08 95       	ret

00003340 <cube_stars>:
    3340:	df 92       	push	r13
    3342:	ef 92       	push	r14
    3344:	ff 92       	push	r15
    3346:	0f 93       	push	r16
    3348:	1f 93       	push	r17
    334a:	cf 93       	push	r28
    334c:	df 93       	push	r29
    334e:	11 e0       	ldi	r17, 0x01	; 1
    3350:	c1 e0       	ldi	r28, 0x01	; 1
    3352:	d0 e0       	ldi	r29, 0x00	; 0
    3354:	2c c0       	rjmp	.+88     	; 0x33ae <cube_stars+0x6e>
    3356:	0e 94 9d 3d 	call	0x7b3a	; 0x7b3a <cube_clear>
    335a:	ff 24       	eor	r15, r15
    335c:	0e 94 72 54 	call	0xa8e4	; 0xa8e4 <rand>
    3360:	e8 2e       	mov	r14, r24
    3362:	0e 94 72 54 	call	0xa8e4	; 0xa8e4 <rand>
    3366:	d8 2e       	mov	r13, r24
    3368:	0e 94 72 54 	call	0xa8e4	; 0xa8e4 <rand>
    336c:	ed 2d       	mov	r30, r13
    336e:	e7 70       	andi	r30, 0x07	; 7
    3370:	f0 e0       	ldi	r31, 0x00	; 0
    3372:	9e 2d       	mov	r25, r14
    3374:	97 70       	andi	r25, 0x07	; 7
    3376:	87 70       	andi	r24, 0x07	; 7
    3378:	9e 01       	movw	r18, r28
    337a:	02 c0       	rjmp	.+4      	; 0x3380 <cube_stars+0x40>
    337c:	22 0f       	add	r18, r18
    337e:	33 1f       	adc	r19, r19
    3380:	8a 95       	dec	r24
    3382:	e2 f7       	brpl	.-8      	; 0x337c <cube_stars+0x3c>
    3384:	43 e0       	ldi	r20, 0x03	; 3
    3386:	ee 0f       	add	r30, r30
    3388:	ff 1f       	adc	r31, r31
    338a:	4a 95       	dec	r20
    338c:	e1 f7       	brne	.-8      	; 0x3386 <cube_stars+0x46>
    338e:	e9 0f       	add	r30, r25
    3390:	f1 1d       	adc	r31, r1
    3392:	e0 55       	subi	r30, 0x50	; 80
    3394:	fe 4f       	sbci	r31, 0xFE	; 254
    3396:	20 83       	st	Z, r18
    3398:	f3 94       	inc	r15
    339a:	f1 16       	cp	r15, r17
    339c:	f8 f2       	brcs	.-66     	; 0x335c <cube_stars+0x1c>
    339e:	84 e0       	ldi	r24, 0x04	; 4
    33a0:	0e 94 c8 3e 	call	0x7d90	; 0x7d90 <cube_show_loop>
    33a4:	01 50       	subi	r16, 0x01	; 1
    33a6:	b9 f6       	brne	.-82     	; 0x3356 <cube_stars+0x16>
    33a8:	1f 5f       	subi	r17, 0xFF	; 255
    33aa:	1e 31       	cpi	r17, 0x1E	; 30
    33ac:	11 f0       	breq	.+4      	; 0x33b2 <cube_stars+0x72>
    33ae:	09 e0       	ldi	r16, 0x09	; 9
    33b0:	d2 cf       	rjmp	.-92     	; 0x3356 <cube_stars+0x16>
    33b2:	df 91       	pop	r29
    33b4:	cf 91       	pop	r28
    33b6:	1f 91       	pop	r17
    33b8:	0f 91       	pop	r16
    33ba:	ff 90       	pop	r15
    33bc:	ef 90       	pop	r14
    33be:	df 90       	pop	r13
    33c0:	08 95       	ret

000033c2 <cube_waves>:
    33c2:	cf 93       	push	r28
    33c4:	df 93       	push	r29
    33c6:	0e 94 9d 3d 	call	0x7b3a	; 0x7b3a <cube_clear>
    33ca:	da e0       	ldi	r29, 0x0A	; 10
    33cc:	cf ef       	ldi	r28, 0xFF	; 255
    33ce:	80 e0       	ldi	r24, 0x00	; 0
    33d0:	60 e0       	ldi	r22, 0x00	; 0
    33d2:	47 e0       	ldi	r20, 0x07	; 7
    33d4:	27 e0       	ldi	r18, 0x07	; 7
    33d6:	0e 94 04 51 	call	0xa208	; 0xa208 <move_x_rev>
    33da:	80 91 cf 01 	lds	r24, 0x01CF
    33de:	c0 93 cf 01 	sts	0x01CF, r28
    33e2:	83 e0       	ldi	r24, 0x03	; 3
    33e4:	0e 94 c8 3e 	call	0x7d90	; 0x7d90 <cube_show_loop>
    33e8:	80 e0       	ldi	r24, 0x00	; 0
    33ea:	60 e0       	ldi	r22, 0x00	; 0
    33ec:	47 e0       	ldi	r20, 0x07	; 7
    33ee:	27 e0       	ldi	r18, 0x07	; 7
    33f0:	0e 94 04 51 	call	0xa208	; 0xa208 <move_x_rev>
    33f4:	80 91 c7 01 	lds	r24, 0x01C7
    33f8:	c0 93 c7 01 	sts	0x01C7, r28
    33fc:	83 e0       	ldi	r24, 0x03	; 3
    33fe:	0e 94 c8 3e 	call	0x7d90	; 0x7d90 <cube_show_loop>
    3402:	80 e0       	ldi	r24, 0x00	; 0
    3404:	60 e0       	ldi	r22, 0x00	; 0
    3406:	47 e0       	ldi	r20, 0x07	; 7
    3408:	27 e0       	ldi	r18, 0x07	; 7
    340a:	0e 94 04 51 	call	0xa208	; 0xa208 <move_x_rev>
    340e:	80 91 bf 01 	lds	r24, 0x01BF
    3412:	c0 93 bf 01 	sts	0x01BF, r28
    3416:	83 e0       	ldi	r24, 0x03	; 3
    3418:	0e 94 c8 3e 	call	0x7d90	; 0x7d90 <cube_show_loop>
    341c:	80 e0       	ldi	r24, 0x00	; 0
    341e:	60 e0       	ldi	r22, 0x00	; 0
    3420:	47 e0       	ldi	r20, 0x07	; 7
    3422:	27 e0       	ldi	r18, 0x07	; 7
    3424:	0e 94 04 51 	call	0xa208	; 0xa208 <move_x_rev>
    3428:	80 91 b7 01 	lds	r24, 0x01B7
    342c:	c0 93 b7 01 	sts	0x01B7, r28
    3430:	83 e0       	ldi	r24, 0x03	; 3
    3432:	0e 94 c8 3e 	call	0x7d90	; 0x7d90 <cube_show_loop>
    3436:	80 e0       	ldi	r24, 0x00	; 0
    3438:	60 e0       	ldi	r22, 0x00	; 0
    343a:	47 e0       	ldi	r20, 0x07	; 7
    343c:	27 e0       	ldi	r18, 0x07	; 7
    343e:	0e 94 04 51 	call	0xa208	; 0xa208 <move_x_rev>
    3442:	80 91 b7 01 	lds	r24, 0x01B7
    3446:	c0 93 b7 01 	sts	0x01B7, r28
    344a:	83 e0       	ldi	r24, 0x03	; 3
    344c:	0e 94 c8 3e 	call	0x7d90	; 0x7d90 <cube_show_loop>
    3450:	80 e0       	ldi	r24, 0x00	; 0
    3452:	60 e0       	ldi	r22, 0x00	; 0
    3454:	47 e0       	ldi	r20, 0x07	; 7
    3456:	27 e0       	ldi	r18, 0x07	; 7
    3458:	0e 94 04 51 	call	0xa208	; 0xa208 <move_x_rev>
    345c:	80 91 bf 01 	lds	r24, 0x01BF
    3460:	c0 93 bf 01 	sts	0x01BF, r28
    3464:	83 e0       	ldi	r24, 0x03	; 3
    3466:	0e 94 c8 3e 	call	0x7d90	; 0x7d90 <cube_show_loop>
    346a:	80 e0       	ldi	r24, 0x00	; 0
    346c:	60 e0       	ldi	r22, 0x00	; 0
    346e:	47 e0       	ldi	r20, 0x07	; 7
    3470:	27 e0       	ldi	r18, 0x07	; 7
    3472:	0e 94 04 51 	call	0xa208	; 0xa208 <move_x_rev>
    3476:	80 91 c7 01 	lds	r24, 0x01C7
    347a:	c0 93 c7 01 	sts	0x01C7, r28
    347e:	83 e0       	ldi	r24, 0x03	; 3
    3480:	0e 94 c8 3e 	call	0x7d90	; 0x7d90 <cube_show_loop>
    3484:	80 e0       	ldi	r24, 0x00	; 0
    3486:	60 e0       	ldi	r22, 0x00	; 0
    3488:	47 e0       	ldi	r20, 0x07	; 7
    348a:	27 e0       	ldi	r18, 0x07	; 7
    348c:	0e 94 04 51 	call	0xa208	; 0xa208 <move_x_rev>
    3490:	80 91 cf 01 	lds	r24, 0x01CF
    3494:	c0 93 cf 01 	sts	0x01CF, r28
    3498:	83 e0       	ldi	r24, 0x03	; 3
    349a:	0e 94 c8 3e 	call	0x7d90	; 0x7d90 <cube_show_loop>
    349e:	80 e0       	ldi	r24, 0x00	; 0
    34a0:	60 e0       	ldi	r22, 0x00	; 0
    34a2:	47 e0       	ldi	r20, 0x07	; 7
    34a4:	27 e0       	ldi	r18, 0x07	; 7
    34a6:	0e 94 04 51 	call	0xa208	; 0xa208 <move_x_rev>
    34aa:	80 91 d7 01 	lds	r24, 0x01D7
    34ae:	c0 93 d7 01 	sts	0x01D7, r28
    34b2:	83 e0       	ldi	r24, 0x03	; 3
    34b4:	0e 94 c8 3e 	call	0x7d90	; 0x7d90 <cube_show_loop>
    34b8:	80 e0       	ldi	r24, 0x00	; 0
    34ba:	60 e0       	ldi	r22, 0x00	; 0
    34bc:	47 e0       	ldi	r20, 0x07	; 7
    34be:	27 e0       	ldi	r18, 0x07	; 7
    34c0:	0e 94 04 51 	call	0xa208	; 0xa208 <move_x_rev>
    34c4:	80 91 df 01 	lds	r24, 0x01DF
    34c8:	c0 93 df 01 	sts	0x01DF, r28
    34cc:	83 e0       	ldi	r24, 0x03	; 3
    34ce:	0e 94 c8 3e 	call	0x7d90	; 0x7d90 <cube_show_loop>
    34d2:	80 e0       	ldi	r24, 0x00	; 0
    34d4:	60 e0       	ldi	r22, 0x00	; 0
    34d6:	47 e0       	ldi	r20, 0x07	; 7
    34d8:	27 e0       	ldi	r18, 0x07	; 7
    34da:	0e 94 04 51 	call	0xa208	; 0xa208 <move_x_rev>
    34de:	80 91 e7 01 	lds	r24, 0x01E7
    34e2:	c0 93 e7 01 	sts	0x01E7, r28
    34e6:	83 e0       	ldi	r24, 0x03	; 3
    34e8:	0e 94 c8 3e 	call	0x7d90	; 0x7d90 <cube_show_loop>
    34ec:	80 e0       	ldi	r24, 0x00	; 0
    34ee:	60 e0       	ldi	r22, 0x00	; 0
    34f0:	47 e0       	ldi	r20, 0x07	; 7
    34f2:	27 e0       	ldi	r18, 0x07	; 7
    34f4:	0e 94 04 51 	call	0xa208	; 0xa208 <move_x_rev>
    34f8:	80 91 ef 01 	lds	r24, 0x01EF
    34fc:	c0 93 ef 01 	sts	0x01EF, r28
    3500:	83 e0       	ldi	r24, 0x03	; 3
    3502:	0e 94 c8 3e 	call	0x7d90	; 0x7d90 <cube_show_loop>
    3506:	80 e0       	ldi	r24, 0x00	; 0
    3508:	60 e0       	ldi	r22, 0x00	; 0
    350a:	47 e0       	ldi	r20, 0x07	; 7
    350c:	27 e0       	ldi	r18, 0x07	; 7
    350e:	0e 94 04 51 	call	0xa208	; 0xa208 <move_x_rev>
    3512:	80 91 ef 01 	lds	r24, 0x01EF
    3516:	c0 93 ef 01 	sts	0x01EF, r28
    351a:	83 e0       	ldi	r24, 0x03	; 3
    351c:	0e 94 c8 3e 	call	0x7d90	; 0x7d90 <cube_show_loop>
    3520:	80 e0       	ldi	r24, 0x00	; 0
    3522:	60 e0       	ldi	r22, 0x00	; 0
    3524:	47 e0       	ldi	r20, 0x07	; 7
    3526:	27 e0       	ldi	r18, 0x07	; 7
    3528:	0e 94 04 51 	call	0xa208	; 0xa208 <move_x_rev>
    352c:	80 91 e7 01 	lds	r24, 0x01E7
    3530:	c0 93 e7 01 	sts	0x01E7, r28
    3534:	83 e0       	ldi	r24, 0x03	; 3
    3536:	0e 94 c8 3e 	call	0x7d90	; 0x7d90 <cube_show_loop>
    353a:	80 e0       	ldi	r24, 0x00	; 0
    353c:	60 e0       	ldi	r22, 0x00	; 0
    353e:	47 e0       	ldi	r20, 0x07	; 7
    3540:	27 e0       	ldi	r18, 0x07	; 7
    3542:	0e 94 04 51 	call	0xa208	; 0xa208 <move_x_rev>
    3546:	80 91 df 01 	lds	r24, 0x01DF
    354a:	c0 93 df 01 	sts	0x01DF, r28
    354e:	83 e0       	ldi	r24, 0x03	; 3
    3550:	0e 94 c8 3e 	call	0x7d90	; 0x7d90 <cube_show_loop>
    3554:	80 e0       	ldi	r24, 0x00	; 0
    3556:	60 e0       	ldi	r22, 0x00	; 0
    3558:	47 e0       	ldi	r20, 0x07	; 7
    355a:	27 e0       	ldi	r18, 0x07	; 7
    355c:	0e 94 04 51 	call	0xa208	; 0xa208 <move_x_rev>
    3560:	80 91 d7 01 	lds	r24, 0x01D7
    3564:	c0 93 d7 01 	sts	0x01D7, r28
    3568:	83 e0       	ldi	r24, 0x03	; 3
    356a:	0e 94 c8 3e 	call	0x7d90	; 0x7d90 <cube_show_loop>
    356e:	d1 50       	subi	r29, 0x01	; 1
    3570:	09 f0       	breq	.+2      	; 0x3574 <cube_waves+0x1b2>
    3572:	2d cf       	rjmp	.-422    	; 0x33ce <cube_waves+0xc>
    3574:	df 91       	pop	r29
    3576:	cf 91       	pop	r28
    3578:	08 95       	ret

0000357a <cube_sonic>:
    357a:	8f 92       	push	r8
    357c:	9f 92       	push	r9
    357e:	af 92       	push	r10
    3580:	bf 92       	push	r11
    3582:	cf 92       	push	r12
    3584:	df 92       	push	r13
    3586:	ef 92       	push	r14
    3588:	ff 92       	push	r15
    358a:	0f 93       	push	r16
    358c:	1f 93       	push	r17
    358e:	cf 93       	push	r28
    3590:	df 93       	push	r29
    3592:	f8 94       	cli
    3594:	ba e0       	ldi	r27, 0x0A	; 10
    3596:	cb 2e       	mov	r12, r27
    3598:	c5 e0       	ldi	r28, 0x05	; 5
    359a:	8c 2e       	mov	r8, r28
    359c:	91 2c       	mov	r9, r1
    359e:	18 e1       	ldi	r17, 0x18	; 24
    35a0:	d4 e2       	ldi	r29, 0x24	; 36
    35a2:	dd 2e       	mov	r13, r29
    35a4:	02 e4       	ldi	r16, 0x42	; 66
    35a6:	86 e6       	ldi	r24, 0x66	; 102
    35a8:	b8 2e       	mov	r11, r24
    35aa:	91 e8       	ldi	r25, 0x81	; 129
    35ac:	f9 2e       	mov	r15, r25
    35ae:	ee 24       	eor	r14, r14
    35b0:	e3 94       	inc	r14
    35b2:	0e 94 9d 3d 	call	0x7b3a	; 0x7b3a <cube_clear>
    35b6:	84 e1       	ldi	r24, 0x14	; 20
    35b8:	0e 94 c8 3e 	call	0x7d90	; 0x7d90 <cube_show_loop>
    35bc:	0e 94 72 54 	call	0xa8e4	; 0xa8e4 <rand>
    35c0:	b4 01       	movw	r22, r8
    35c2:	0e 94 f6 53 	call	0xa7ec	; 0xa7ec <__divmodhi4>
    35c6:	d8 2f       	mov	r29, r24
    35c8:	0e 94 72 54 	call	0xa8e4	; 0xa8e4 <rand>
    35cc:	68 e0       	ldi	r22, 0x08	; 8
    35ce:	70 e0       	ldi	r23, 0x00	; 0
    35d0:	0e 94 f6 53 	call	0xa7ec	; 0xa7ec <__divmodhi4>
    35d4:	c8 2f       	mov	r28, r24
    35d6:	cf 5f       	subi	r28, 0xFF	; 255
    35d8:	d4 30       	cpi	r29, 0x04	; 4
    35da:	08 f0       	brcs	.+2      	; 0x35de <cube_sonic+0x64>
    35dc:	63 c1       	rjmp	.+710    	; 0x38a4 <cube_sonic+0x32a>
    35de:	0e 94 9d 3d 	call	0x7b3a	; 0x7b3a <cube_clear>
    35e2:	80 e0       	ldi	r24, 0x00	; 0
    35e4:	90 e0       	ldi	r25, 0x00	; 0
    35e6:	20 e8       	ldi	r18, 0x80	; 128
    35e8:	0a c0       	rjmp	.+20     	; 0x35fe <cube_sonic+0x84>
    35ea:	fc 01       	movw	r30, r24
    35ec:	a3 e0       	ldi	r26, 0x03	; 3
    35ee:	ee 0f       	add	r30, r30
    35f0:	ff 1f       	adc	r31, r31
    35f2:	aa 95       	dec	r26
    35f4:	e1 f7       	brne	.-8      	; 0x35ee <cube_sonic+0x74>
    35f6:	e0 55       	subi	r30, 0x50	; 80
    35f8:	fe 4f       	sbci	r31, 0xFE	; 254
    35fa:	20 83       	st	Z, r18
    35fc:	01 96       	adiw	r24, 0x01	; 1
    35fe:	8c 17       	cp	r24, r28
    3600:	a0 f3       	brcs	.-24     	; 0x35ea <cube_sonic+0x70>
    3602:	aa 24       	eor	r10, r10
    3604:	03 c0       	rjmp	.+6      	; 0x360c <cube_sonic+0x92>
    3606:	0e 94 fe 4e 	call	0x9dfc	; 0x9dfc <rotate_90_deg>
    360a:	a3 94       	inc	r10
    360c:	ad 16       	cp	r10, r29
    360e:	d8 f3       	brcs	.-10     	; 0x3606 <cube_sonic+0x8c>
    3610:	84 e0       	ldi	r24, 0x04	; 4
    3612:	0e 94 da 3e 	call	0x7db4	; 0x7db4 <cube_show_loop_wo_int>
    3616:	0e 94 9d 3d 	call	0x7b3a	; 0x7b3a <cube_clear>
    361a:	80 e0       	ldi	r24, 0x00	; 0
    361c:	90 e0       	ldi	r25, 0x00	; 0
    361e:	30 e4       	ldi	r19, 0x40	; 64
    3620:	20 e8       	ldi	r18, 0x80	; 128
    3622:	0b c0       	rjmp	.+22     	; 0x363a <cube_sonic+0xc0>
    3624:	fc 01       	movw	r30, r24
    3626:	73 e0       	ldi	r23, 0x03	; 3
    3628:	ee 0f       	add	r30, r30
    362a:	ff 1f       	adc	r31, r31
    362c:	7a 95       	dec	r23
    362e:	e1 f7       	brne	.-8      	; 0x3628 <cube_sonic+0xae>
    3630:	e0 55       	subi	r30, 0x50	; 80
    3632:	fe 4f       	sbci	r31, 0xFE	; 254
    3634:	30 83       	st	Z, r19
    3636:	21 83       	std	Z+1, r18	; 0x01
    3638:	01 96       	adiw	r24, 0x01	; 1
    363a:	8c 17       	cp	r24, r28
    363c:	98 f3       	brcs	.-26     	; 0x3624 <cube_sonic+0xaa>
    363e:	aa 24       	eor	r10, r10
    3640:	03 c0       	rjmp	.+6      	; 0x3648 <cube_sonic+0xce>
    3642:	0e 94 fe 4e 	call	0x9dfc	; 0x9dfc <rotate_90_deg>
    3646:	a3 94       	inc	r10
    3648:	ad 16       	cp	r10, r29
    364a:	d8 f3       	brcs	.-10     	; 0x3642 <cube_sonic+0xc8>
    364c:	84 e0       	ldi	r24, 0x04	; 4
    364e:	0e 94 da 3e 	call	0x7db4	; 0x7db4 <cube_show_loop_wo_int>
    3652:	0e 94 9d 3d 	call	0x7b3a	; 0x7b3a <cube_clear>
    3656:	80 e0       	ldi	r24, 0x00	; 0
    3658:	90 e0       	ldi	r25, 0x00	; 0
    365a:	20 e2       	ldi	r18, 0x20	; 32
    365c:	30 ec       	ldi	r19, 0xC0	; 192
    365e:	0c c0       	rjmp	.+24     	; 0x3678 <cube_sonic+0xfe>
    3660:	fc 01       	movw	r30, r24
    3662:	63 e0       	ldi	r22, 0x03	; 3
    3664:	ee 0f       	add	r30, r30
    3666:	ff 1f       	adc	r31, r31
    3668:	6a 95       	dec	r22
    366a:	e1 f7       	brne	.-8      	; 0x3664 <cube_sonic+0xea>
    366c:	e0 55       	subi	r30, 0x50	; 80
    366e:	fe 4f       	sbci	r31, 0xFE	; 254
    3670:	20 83       	st	Z, r18
    3672:	21 83       	std	Z+1, r18	; 0x01
    3674:	32 83       	std	Z+2, r19	; 0x02
    3676:	01 96       	adiw	r24, 0x01	; 1
    3678:	8c 17       	cp	r24, r28
    367a:	90 f3       	brcs	.-28     	; 0x3660 <cube_sonic+0xe6>
    367c:	aa 24       	eor	r10, r10
    367e:	03 c0       	rjmp	.+6      	; 0x3686 <cube_sonic+0x10c>
    3680:	0e 94 fe 4e 	call	0x9dfc	; 0x9dfc <rotate_90_deg>
    3684:	a3 94       	inc	r10
    3686:	ad 16       	cp	r10, r29
    3688:	d8 f3       	brcs	.-10     	; 0x3680 <cube_sonic+0x106>
    368a:	84 e0       	ldi	r24, 0x04	; 4
    368c:	0e 94 da 3e 	call	0x7db4	; 0x7db4 <cube_show_loop_wo_int>
    3690:	0e 94 9d 3d 	call	0x7b3a	; 0x7b3a <cube_clear>
    3694:	80 e0       	ldi	r24, 0x00	; 0
    3696:	90 e0       	ldi	r25, 0x00	; 0
    3698:	20 e1       	ldi	r18, 0x10	; 16
    369a:	40 e2       	ldi	r20, 0x20	; 32
    369c:	30 ec       	ldi	r19, 0xC0	; 192
    369e:	0d c0       	rjmp	.+26     	; 0x36ba <cube_sonic+0x140>
    36a0:	fc 01       	movw	r30, r24
    36a2:	53 e0       	ldi	r21, 0x03	; 3
    36a4:	ee 0f       	add	r30, r30
    36a6:	ff 1f       	adc	r31, r31
    36a8:	5a 95       	dec	r21
    36aa:	e1 f7       	brne	.-8      	; 0x36a4 <cube_sonic+0x12a>
    36ac:	e0 55       	subi	r30, 0x50	; 80
    36ae:	fe 4f       	sbci	r31, 0xFE	; 254
    36b0:	20 83       	st	Z, r18
    36b2:	21 83       	std	Z+1, r18	; 0x01
    36b4:	42 83       	std	Z+2, r20	; 0x02
    36b6:	33 83       	std	Z+3, r19	; 0x03
    36b8:	01 96       	adiw	r24, 0x01	; 1
    36ba:	8c 17       	cp	r24, r28
    36bc:	88 f3       	brcs	.-30     	; 0x36a0 <cube_sonic+0x126>
    36be:	aa 24       	eor	r10, r10
    36c0:	03 c0       	rjmp	.+6      	; 0x36c8 <cube_sonic+0x14e>
    36c2:	0e 94 fe 4e 	call	0x9dfc	; 0x9dfc <rotate_90_deg>
    36c6:	a3 94       	inc	r10
    36c8:	ad 16       	cp	r10, r29
    36ca:	d8 f3       	brcs	.-10     	; 0x36c2 <cube_sonic+0x148>
    36cc:	84 e0       	ldi	r24, 0x04	; 4
    36ce:	0e 94 da 3e 	call	0x7db4	; 0x7db4 <cube_show_loop_wo_int>
    36d2:	0e 94 9d 3d 	call	0x7b3a	; 0x7b3a <cube_clear>
    36d6:	80 e0       	ldi	r24, 0x00	; 0
    36d8:	90 e0       	ldi	r25, 0x00	; 0
    36da:	28 e0       	ldi	r18, 0x08	; 8
    36dc:	50 e1       	ldi	r21, 0x10	; 16
    36de:	40 e3       	ldi	r20, 0x30	; 48
    36e0:	30 ec       	ldi	r19, 0xC0	; 192
    36e2:	0e c0       	rjmp	.+28     	; 0x3700 <cube_sonic+0x186>
    36e4:	fc 01       	movw	r30, r24
    36e6:	b3 e0       	ldi	r27, 0x03	; 3
    36e8:	ee 0f       	add	r30, r30
    36ea:	ff 1f       	adc	r31, r31
    36ec:	ba 95       	dec	r27
    36ee:	e1 f7       	brne	.-8      	; 0x36e8 <cube_sonic+0x16e>
    36f0:	e0 55       	subi	r30, 0x50	; 80
    36f2:	fe 4f       	sbci	r31, 0xFE	; 254
    36f4:	20 83       	st	Z, r18
    36f6:	21 83       	std	Z+1, r18	; 0x01
    36f8:	52 83       	std	Z+2, r21	; 0x02
    36fa:	43 83       	std	Z+3, r20	; 0x03
    36fc:	34 83       	std	Z+4, r19	; 0x04
    36fe:	01 96       	adiw	r24, 0x01	; 1
    3700:	8c 17       	cp	r24, r28
    3702:	80 f3       	brcs	.-32     	; 0x36e4 <cube_sonic+0x16a>
    3704:	aa 24       	eor	r10, r10
    3706:	03 c0       	rjmp	.+6      	; 0x370e <cube_sonic+0x194>
    3708:	0e 94 fe 4e 	call	0x9dfc	; 0x9dfc <rotate_90_deg>
    370c:	a3 94       	inc	r10
    370e:	ad 16       	cp	r10, r29
    3710:	d8 f3       	brcs	.-10     	; 0x3708 <cube_sonic+0x18e>
    3712:	84 e0       	ldi	r24, 0x04	; 4
    3714:	0e 94 da 3e 	call	0x7db4	; 0x7db4 <cube_show_loop_wo_int>
    3718:	0e 94 9d 3d 	call	0x7b3a	; 0x7b3a <cube_clear>
    371c:	80 e0       	ldi	r24, 0x00	; 0
    371e:	90 e0       	ldi	r25, 0x00	; 0
    3720:	24 e0       	ldi	r18, 0x04	; 4
    3722:	58 e0       	ldi	r21, 0x08	; 8
    3724:	40 e1       	ldi	r20, 0x10	; 16
    3726:	30 ee       	ldi	r19, 0xE0	; 224
    3728:	0f c0       	rjmp	.+30     	; 0x3748 <cube_sonic+0x1ce>
    372a:	fc 01       	movw	r30, r24
    372c:	a3 e0       	ldi	r26, 0x03	; 3
    372e:	ee 0f       	add	r30, r30
    3730:	ff 1f       	adc	r31, r31
    3732:	aa 95       	dec	r26
    3734:	e1 f7       	brne	.-8      	; 0x372e <cube_sonic+0x1b4>
    3736:	e0 55       	subi	r30, 0x50	; 80
    3738:	fe 4f       	sbci	r31, 0xFE	; 254
    373a:	20 83       	st	Z, r18
    373c:	21 83       	std	Z+1, r18	; 0x01
    373e:	22 83       	std	Z+2, r18	; 0x02
    3740:	53 83       	std	Z+3, r21	; 0x03
    3742:	44 83       	std	Z+4, r20	; 0x04
    3744:	35 83       	std	Z+5, r19	; 0x05
    3746:	01 96       	adiw	r24, 0x01	; 1
    3748:	8c 17       	cp	r24, r28
    374a:	78 f3       	brcs	.-34     	; 0x372a <cube_sonic+0x1b0>
    374c:	aa 24       	eor	r10, r10
    374e:	03 c0       	rjmp	.+6      	; 0x3756 <cube_sonic+0x1dc>
    3750:	0e 94 fe 4e 	call	0x9dfc	; 0x9dfc <rotate_90_deg>
    3754:	a3 94       	inc	r10
    3756:	ad 16       	cp	r10, r29
    3758:	d8 f3       	brcs	.-10     	; 0x3750 <cube_sonic+0x1d6>
    375a:	84 e0       	ldi	r24, 0x04	; 4
    375c:	0e 94 da 3e 	call	0x7db4	; 0x7db4 <cube_show_loop_wo_int>
    3760:	0e 94 9d 3d 	call	0x7b3a	; 0x7b3a <cube_clear>
    3764:	80 e0       	ldi	r24, 0x00	; 0
    3766:	90 e0       	ldi	r25, 0x00	; 0
    3768:	22 e0       	ldi	r18, 0x02	; 2
    376a:	64 e0       	ldi	r22, 0x04	; 4
    376c:	58 e0       	ldi	r21, 0x08	; 8
    376e:	40 e1       	ldi	r20, 0x10	; 16
    3770:	30 ee       	ldi	r19, 0xE0	; 224
    3772:	10 c0       	rjmp	.+32     	; 0x3794 <cube_sonic+0x21a>
    3774:	fc 01       	movw	r30, r24
    3776:	73 e0       	ldi	r23, 0x03	; 3
    3778:	ee 0f       	add	r30, r30
    377a:	ff 1f       	adc	r31, r31
    377c:	7a 95       	dec	r23
    377e:	e1 f7       	brne	.-8      	; 0x3778 <cube_sonic+0x1fe>
    3780:	e0 55       	subi	r30, 0x50	; 80
    3782:	fe 4f       	sbci	r31, 0xFE	; 254
    3784:	20 83       	st	Z, r18
    3786:	21 83       	std	Z+1, r18	; 0x01
    3788:	22 83       	std	Z+2, r18	; 0x02
    378a:	63 83       	std	Z+3, r22	; 0x03
    378c:	54 83       	std	Z+4, r21	; 0x04
    378e:	45 83       	std	Z+5, r20	; 0x05
    3790:	36 83       	std	Z+6, r19	; 0x06
    3792:	01 96       	adiw	r24, 0x01	; 1
    3794:	8c 17       	cp	r24, r28
    3796:	70 f3       	brcs	.-36     	; 0x3774 <cube_sonic+0x1fa>
    3798:	aa 24       	eor	r10, r10
    379a:	03 c0       	rjmp	.+6      	; 0x37a2 <cube_sonic+0x228>
    379c:	0e 94 fe 4e 	call	0x9dfc	; 0x9dfc <rotate_90_deg>
    37a0:	a3 94       	inc	r10
    37a2:	ad 16       	cp	r10, r29
    37a4:	d8 f3       	brcs	.-10     	; 0x379c <cube_sonic+0x222>
    37a6:	84 e0       	ldi	r24, 0x04	; 4
    37a8:	0e 94 da 3e 	call	0x7db4	; 0x7db4 <cube_show_loop_wo_int>
    37ac:	0e 94 9d 3d 	call	0x7b3a	; 0x7b3a <cube_clear>
    37b0:	80 e0       	ldi	r24, 0x00	; 0
    37b2:	90 e0       	ldi	r25, 0x00	; 0
    37b4:	22 e0       	ldi	r18, 0x02	; 2
    37b6:	44 e0       	ldi	r20, 0x04	; 4
    37b8:	30 ee       	ldi	r19, 0xE0	; 224
    37ba:	11 c0       	rjmp	.+34     	; 0x37de <cube_sonic+0x264>
    37bc:	fc 01       	movw	r30, r24
    37be:	63 e0       	ldi	r22, 0x03	; 3
    37c0:	ee 0f       	add	r30, r30
    37c2:	ff 1f       	adc	r31, r31
    37c4:	6a 95       	dec	r22
    37c6:	e1 f7       	brne	.-8      	; 0x37c0 <cube_sonic+0x246>
    37c8:	e0 55       	subi	r30, 0x50	; 80
    37ca:	fe 4f       	sbci	r31, 0xFE	; 254
    37cc:	e0 82       	st	Z, r14
    37ce:	e1 82       	std	Z+1, r14	; 0x01
    37d0:	e2 82       	std	Z+2, r14	; 0x02
    37d2:	23 83       	std	Z+3, r18	; 0x03
    37d4:	24 83       	std	Z+4, r18	; 0x04
    37d6:	45 83       	std	Z+5, r20	; 0x05
    37d8:	16 83       	std	Z+6, r17	; 0x06
    37da:	37 83       	std	Z+7, r19	; 0x07
    37dc:	01 96       	adiw	r24, 0x01	; 1
    37de:	8c 17       	cp	r24, r28
    37e0:	68 f3       	brcs	.-38     	; 0x37bc <cube_sonic+0x242>
    37e2:	aa 24       	eor	r10, r10
    37e4:	03 c0       	rjmp	.+6      	; 0x37ec <cube_sonic+0x272>
    37e6:	0e 94 fe 4e 	call	0x9dfc	; 0x9dfc <rotate_90_deg>
    37ea:	a3 94       	inc	r10
    37ec:	ad 16       	cp	r10, r29
    37ee:	d8 f3       	brcs	.-10     	; 0x37e6 <cube_sonic+0x26c>
    37f0:	84 e0       	ldi	r24, 0x04	; 4
    37f2:	0e 94 da 3e 	call	0x7db4	; 0x7db4 <cube_show_loop_wo_int>
    37f6:	0e 94 9d 3d 	call	0x7b3a	; 0x7b3a <cube_clear>
    37fa:	80 e0       	ldi	r24, 0x00	; 0
    37fc:	90 e0       	ldi	r25, 0x00	; 0
    37fe:	42 e0       	ldi	r20, 0x02	; 2
    3800:	34 e0       	ldi	r19, 0x04	; 4
    3802:	28 e0       	ldi	r18, 0x08	; 8
    3804:	0d c0       	rjmp	.+26     	; 0x3820 <cube_sonic+0x2a6>
    3806:	fc 01       	movw	r30, r24
    3808:	53 e0       	ldi	r21, 0x03	; 3
    380a:	ee 0f       	add	r30, r30
    380c:	ff 1f       	adc	r31, r31
    380e:	5a 95       	dec	r21
    3810:	e1 f7       	brne	.-8      	; 0x380a <cube_sonic+0x290>
    3812:	e0 55       	subi	r30, 0x50	; 80
    3814:	fe 4f       	sbci	r31, 0xFE	; 254
    3816:	e4 82       	std	Z+4, r14	; 0x04
    3818:	45 83       	std	Z+5, r20	; 0x05
    381a:	36 83       	std	Z+6, r19	; 0x06
    381c:	27 83       	std	Z+7, r18	; 0x07
    381e:	01 96       	adiw	r24, 0x01	; 1
    3820:	8c 17       	cp	r24, r28
    3822:	88 f3       	brcs	.-30     	; 0x3806 <cube_sonic+0x28c>
    3824:	aa 24       	eor	r10, r10
    3826:	03 c0       	rjmp	.+6      	; 0x382e <cube_sonic+0x2b4>
    3828:	0e 94 fe 4e 	call	0x9dfc	; 0x9dfc <rotate_90_deg>
    382c:	a3 94       	inc	r10
    382e:	ad 16       	cp	r10, r29
    3830:	d8 f3       	brcs	.-10     	; 0x3828 <cube_sonic+0x2ae>
    3832:	84 e0       	ldi	r24, 0x04	; 4
    3834:	0e 94 da 3e 	call	0x7db4	; 0x7db4 <cube_show_loop_wo_int>
    3838:	0e 94 9d 3d 	call	0x7b3a	; 0x7b3a <cube_clear>
    383c:	80 e0       	ldi	r24, 0x00	; 0
    383e:	90 e0       	ldi	r25, 0x00	; 0
    3840:	22 e0       	ldi	r18, 0x02	; 2
    3842:	0b c0       	rjmp	.+22     	; 0x385a <cube_sonic+0x2e0>
    3844:	fc 01       	movw	r30, r24
    3846:	33 e0       	ldi	r19, 0x03	; 3
    3848:	ee 0f       	add	r30, r30
    384a:	ff 1f       	adc	r31, r31
    384c:	3a 95       	dec	r19
    384e:	e1 f7       	brne	.-8      	; 0x3848 <cube_sonic+0x2ce>
    3850:	e0 55       	subi	r30, 0x50	; 80
    3852:	fe 4f       	sbci	r31, 0xFE	; 254
    3854:	e6 82       	std	Z+6, r14	; 0x06
    3856:	27 83       	std	Z+7, r18	; 0x07
    3858:	01 96       	adiw	r24, 0x01	; 1
    385a:	8c 17       	cp	r24, r28
    385c:	98 f3       	brcs	.-26     	; 0x3844 <cube_sonic+0x2ca>
    385e:	aa 24       	eor	r10, r10
    3860:	03 c0       	rjmp	.+6      	; 0x3868 <cube_sonic+0x2ee>
    3862:	0e 94 fe 4e 	call	0x9dfc	; 0x9dfc <rotate_90_deg>
    3866:	a3 94       	inc	r10
    3868:	ad 16       	cp	r10, r29
    386a:	d8 f3       	brcs	.-10     	; 0x3862 <cube_sonic+0x2e8>
    386c:	84 e0       	ldi	r24, 0x04	; 4
    386e:	0e 94 da 3e 	call	0x7db4	; 0x7db4 <cube_show_loop_wo_int>
    3872:	0e 94 9d 3d 	call	0x7b3a	; 0x7b3a <cube_clear>
    3876:	80 e0       	ldi	r24, 0x00	; 0
    3878:	90 e0       	ldi	r25, 0x00	; 0
    387a:	0a c0       	rjmp	.+20     	; 0x3890 <cube_sonic+0x316>
    387c:	fc 01       	movw	r30, r24
    387e:	23 e0       	ldi	r18, 0x03	; 3
    3880:	ee 0f       	add	r30, r30
    3882:	ff 1f       	adc	r31, r31
    3884:	2a 95       	dec	r18
    3886:	e1 f7       	brne	.-8      	; 0x3880 <cube_sonic+0x306>
    3888:	e0 55       	subi	r30, 0x50	; 80
    388a:	fe 4f       	sbci	r31, 0xFE	; 254
    388c:	e7 82       	std	Z+7, r14	; 0x07
    388e:	01 96       	adiw	r24, 0x01	; 1
    3890:	8c 17       	cp	r24, r28
    3892:	a0 f3       	brcs	.-24     	; 0x387c <cube_sonic+0x302>
    3894:	c0 e0       	ldi	r28, 0x00	; 0
    3896:	03 c0       	rjmp	.+6      	; 0x389e <cube_sonic+0x324>
    3898:	0e 94 fe 4e 	call	0x9dfc	; 0x9dfc <rotate_90_deg>
    389c:	cf 5f       	subi	r28, 0xFF	; 255
    389e:	cd 17       	cp	r28, r29
    38a0:	d8 f3       	brcs	.-10     	; 0x3898 <cube_sonic+0x31e>
    38a2:	89 c0       	rjmp	.+274    	; 0x39b6 <cube_sonic+0x43c>
    38a4:	0e 94 9d 3d 	call	0x7b3a	; 0x7b3a <cube_clear>
    38a8:	80 e0       	ldi	r24, 0x00	; 0
    38aa:	90 e0       	ldi	r25, 0x00	; 0
    38ac:	0b c0       	rjmp	.+22     	; 0x38c4 <cube_sonic+0x34a>
    38ae:	fc 01       	movw	r30, r24
    38b0:	d3 e0       	ldi	r29, 0x03	; 3
    38b2:	ee 0f       	add	r30, r30
    38b4:	ff 1f       	adc	r31, r31
    38b6:	da 95       	dec	r29
    38b8:	e1 f7       	brne	.-8      	; 0x38b2 <cube_sonic+0x338>
    38ba:	e0 55       	subi	r30, 0x50	; 80
    38bc:	fe 4f       	sbci	r31, 0xFE	; 254
    38be:	13 83       	std	Z+3, r17	; 0x03
    38c0:	14 83       	std	Z+4, r17	; 0x04
    38c2:	01 96       	adiw	r24, 0x01	; 1
    38c4:	8c 17       	cp	r24, r28
    38c6:	98 f3       	brcs	.-26     	; 0x38ae <cube_sonic+0x334>
    38c8:	84 e0       	ldi	r24, 0x04	; 4
    38ca:	0e 94 da 3e 	call	0x7db4	; 0x7db4 <cube_show_loop_wo_int>
    38ce:	0e 94 9d 3d 	call	0x7b3a	; 0x7b3a <cube_clear>
    38d2:	80 e0       	ldi	r24, 0x00	; 0
    38d4:	90 e0       	ldi	r25, 0x00	; 0
    38d6:	0d c0       	rjmp	.+26     	; 0x38f2 <cube_sonic+0x378>
    38d8:	fc 01       	movw	r30, r24
    38da:	b3 e0       	ldi	r27, 0x03	; 3
    38dc:	ee 0f       	add	r30, r30
    38de:	ff 1f       	adc	r31, r31
    38e0:	ba 95       	dec	r27
    38e2:	e1 f7       	brne	.-8      	; 0x38dc <cube_sonic+0x362>
    38e4:	e0 55       	subi	r30, 0x50	; 80
    38e6:	fe 4f       	sbci	r31, 0xFE	; 254
    38e8:	12 83       	std	Z+2, r17	; 0x02
    38ea:	d3 82       	std	Z+3, r13	; 0x03
    38ec:	d4 82       	std	Z+4, r13	; 0x04
    38ee:	15 83       	std	Z+5, r17	; 0x05
    38f0:	01 96       	adiw	r24, 0x01	; 1
    38f2:	8c 17       	cp	r24, r28
    38f4:	88 f3       	brcs	.-30     	; 0x38d8 <cube_sonic+0x35e>
    38f6:	84 e0       	ldi	r24, 0x04	; 4
    38f8:	0e 94 da 3e 	call	0x7db4	; 0x7db4 <cube_show_loop_wo_int>
    38fc:	0e 94 9d 3d 	call	0x7b3a	; 0x7b3a <cube_clear>
    3900:	80 e0       	ldi	r24, 0x00	; 0
    3902:	90 e0       	ldi	r25, 0x00	; 0
    3904:	0f c0       	rjmp	.+30     	; 0x3924 <cube_sonic+0x3aa>
    3906:	fc 01       	movw	r30, r24
    3908:	a3 e0       	ldi	r26, 0x03	; 3
    390a:	ee 0f       	add	r30, r30
    390c:	ff 1f       	adc	r31, r31
    390e:	aa 95       	dec	r26
    3910:	e1 f7       	brne	.-8      	; 0x390a <cube_sonic+0x390>
    3912:	e0 55       	subi	r30, 0x50	; 80
    3914:	fe 4f       	sbci	r31, 0xFE	; 254
    3916:	11 83       	std	Z+1, r17	; 0x01
    3918:	d2 82       	std	Z+2, r13	; 0x02
    391a:	03 83       	std	Z+3, r16	; 0x03
    391c:	04 83       	std	Z+4, r16	; 0x04
    391e:	d5 82       	std	Z+5, r13	; 0x05
    3920:	16 83       	std	Z+6, r17	; 0x06
    3922:	01 96       	adiw	r24, 0x01	; 1
    3924:	8c 17       	cp	r24, r28
    3926:	78 f3       	brcs	.-34     	; 0x3906 <cube_sonic+0x38c>
    3928:	84 e0       	ldi	r24, 0x04	; 4
    392a:	0e 94 da 3e 	call	0x7db4	; 0x7db4 <cube_show_loop_wo_int>
    392e:	0e 94 9d 3d 	call	0x7b3a	; 0x7b3a <cube_clear>
    3932:	80 e0       	ldi	r24, 0x00	; 0
    3934:	90 e0       	ldi	r25, 0x00	; 0
    3936:	11 c0       	rjmp	.+34     	; 0x395a <cube_sonic+0x3e0>
    3938:	fc 01       	movw	r30, r24
    393a:	73 e0       	ldi	r23, 0x03	; 3
    393c:	ee 0f       	add	r30, r30
    393e:	ff 1f       	adc	r31, r31
    3940:	7a 95       	dec	r23
    3942:	e1 f7       	brne	.-8      	; 0x393c <cube_sonic+0x3c2>
    3944:	e0 55       	subi	r30, 0x50	; 80
    3946:	fe 4f       	sbci	r31, 0xFE	; 254
    3948:	10 83       	st	Z, r17
    394a:	b1 82       	std	Z+1, r11	; 0x01
    394c:	02 83       	std	Z+2, r16	; 0x02
    394e:	f3 82       	std	Z+3, r15	; 0x03
    3950:	f4 82       	std	Z+4, r15	; 0x04
    3952:	05 83       	std	Z+5, r16	; 0x05
    3954:	b6 82       	std	Z+6, r11	; 0x06
    3956:	17 83       	std	Z+7, r17	; 0x07
    3958:	01 96       	adiw	r24, 0x01	; 1
    395a:	8c 17       	cp	r24, r28
    395c:	68 f3       	brcs	.-38     	; 0x3938 <cube_sonic+0x3be>
    395e:	84 e0       	ldi	r24, 0x04	; 4
    3960:	0e 94 da 3e 	call	0x7db4	; 0x7db4 <cube_show_loop_wo_int>
    3964:	0e 94 9d 3d 	call	0x7b3a	; 0x7b3a <cube_clear>
    3968:	80 e0       	ldi	r24, 0x00	; 0
    396a:	90 e0       	ldi	r25, 0x00	; 0
    396c:	0d c0       	rjmp	.+26     	; 0x3988 <cube_sonic+0x40e>
    396e:	fc 01       	movw	r30, r24
    3970:	63 e0       	ldi	r22, 0x03	; 3
    3972:	ee 0f       	add	r30, r30
    3974:	ff 1f       	adc	r31, r31
    3976:	6a 95       	dec	r22
    3978:	e1 f7       	brne	.-8      	; 0x3972 <cube_sonic+0x3f8>
    397a:	e0 55       	subi	r30, 0x50	; 80
    397c:	fe 4f       	sbci	r31, 0xFE	; 254
    397e:	00 83       	st	Z, r16
    3980:	f1 82       	std	Z+1, r15	; 0x01
    3982:	f6 82       	std	Z+6, r15	; 0x06
    3984:	07 83       	std	Z+7, r16	; 0x07
    3986:	01 96       	adiw	r24, 0x01	; 1
    3988:	8c 17       	cp	r24, r28
    398a:	88 f3       	brcs	.-30     	; 0x396e <cube_sonic+0x3f4>
    398c:	84 e0       	ldi	r24, 0x04	; 4
    398e:	0e 94 da 3e 	call	0x7db4	; 0x7db4 <cube_show_loop_wo_int>
    3992:	0e 94 9d 3d 	call	0x7b3a	; 0x7b3a <cube_clear>
    3996:	80 e0       	ldi	r24, 0x00	; 0
    3998:	90 e0       	ldi	r25, 0x00	; 0
    399a:	0b c0       	rjmp	.+22     	; 0x39b2 <cube_sonic+0x438>
    399c:	fc 01       	movw	r30, r24
    399e:	53 e0       	ldi	r21, 0x03	; 3
    39a0:	ee 0f       	add	r30, r30
    39a2:	ff 1f       	adc	r31, r31
    39a4:	5a 95       	dec	r21
    39a6:	e1 f7       	brne	.-8      	; 0x39a0 <cube_sonic+0x426>
    39a8:	e0 55       	subi	r30, 0x50	; 80
    39aa:	fe 4f       	sbci	r31, 0xFE	; 254
    39ac:	f0 82       	st	Z, r15
    39ae:	f7 82       	std	Z+7, r15	; 0x07
    39b0:	01 96       	adiw	r24, 0x01	; 1
    39b2:	8c 17       	cp	r24, r28
    39b4:	98 f3       	brcs	.-26     	; 0x399c <cube_sonic+0x422>
    39b6:	84 e0       	ldi	r24, 0x04	; 4
    39b8:	0e 94 da 3e 	call	0x7db4	; 0x7db4 <cube_show_loop_wo_int>
    39bc:	ca 94       	dec	r12
    39be:	09 f0       	breq	.+2      	; 0x39c2 <cube_sonic+0x448>
    39c0:	f8 cd       	rjmp	.-1040   	; 0x35b2 <cube_sonic+0x38>
    39c2:	78 94       	sei
    39c4:	df 91       	pop	r29
    39c6:	cf 91       	pop	r28
    39c8:	1f 91       	pop	r17
    39ca:	0f 91       	pop	r16
    39cc:	ff 90       	pop	r15
    39ce:	ef 90       	pop	r14
    39d0:	df 90       	pop	r13
    39d2:	cf 90       	pop	r12
    39d4:	bf 90       	pop	r11
    39d6:	af 90       	pop	r10
    39d8:	9f 90       	pop	r9
    39da:	8f 90       	pop	r8
    39dc:	08 95       	ret

000039de <cube_block_wipe>:
    39de:	cf 93       	push	r28
    39e0:	df 93       	push	r29
    39e2:	c8 e0       	ldi	r28, 0x08	; 8
    39e4:	df ef       	ldi	r29, 0xFF	; 255
    39e6:	80 e0       	ldi	r24, 0x00	; 0
    39e8:	60 e0       	ldi	r22, 0x00	; 0
    39ea:	47 e0       	ldi	r20, 0x07	; 7
    39ec:	27 e0       	ldi	r18, 0x07	; 7
    39ee:	0e 94 ad 50 	call	0xa15a	; 0xa15a <move_x_fwd>
    39f2:	80 e0       	ldi	r24, 0x00	; 0
    39f4:	90 e0       	ldi	r25, 0x00	; 0
    39f6:	fc 01       	movw	r30, r24
    39f8:	33 e0       	ldi	r19, 0x03	; 3
    39fa:	ee 0f       	add	r30, r30
    39fc:	ff 1f       	adc	r31, r31
    39fe:	3a 95       	dec	r19
    3a00:	e1 f7       	brne	.-8      	; 0x39fa <cube_block_wipe+0x1c>
    3a02:	e0 55       	subi	r30, 0x50	; 80
    3a04:	fe 4f       	sbci	r31, 0xFE	; 254
    3a06:	20 81       	ld	r18, Z
    3a08:	d0 83       	st	Z, r29
    3a0a:	01 96       	adiw	r24, 0x01	; 1
    3a0c:	88 30       	cpi	r24, 0x08	; 8
    3a0e:	91 05       	cpc	r25, r1
    3a10:	91 f7       	brne	.-28     	; 0x39f6 <cube_block_wipe+0x18>
    3a12:	85 e0       	ldi	r24, 0x05	; 5
    3a14:	0e 94 c8 3e 	call	0x7d90	; 0x7d90 <cube_show_loop>
    3a18:	c1 50       	subi	r28, 0x01	; 1
    3a1a:	29 f7       	brne	.-54     	; 0x39e6 <cube_block_wipe+0x8>
    3a1c:	85 e0       	ldi	r24, 0x05	; 5
    3a1e:	0e 94 c8 3e 	call	0x7d90	; 0x7d90 <cube_show_loop>
    3a22:	c7 e0       	ldi	r28, 0x07	; 7
    3a24:	d0 e0       	ldi	r29, 0x00	; 0
    3a26:	17 c0       	rjmp	.+46     	; 0x3a56 <cube_block_wipe+0x78>
    3a28:	fc 01       	movw	r30, r24
    3a2a:	23 e0       	ldi	r18, 0x03	; 3
    3a2c:	ee 0f       	add	r30, r30
    3a2e:	ff 1f       	adc	r31, r31
    3a30:	2a 95       	dec	r18
    3a32:	e1 f7       	brne	.-8      	; 0x3a2c <cube_block_wipe+0x4e>
    3a34:	ec 0f       	add	r30, r28
    3a36:	fd 1f       	adc	r31, r29
    3a38:	e0 55       	subi	r30, 0x50	; 80
    3a3a:	fe 4f       	sbci	r31, 0xFE	; 254
    3a3c:	10 82       	st	Z, r1
    3a3e:	01 96       	adiw	r24, 0x01	; 1
    3a40:	88 30       	cpi	r24, 0x08	; 8
    3a42:	91 05       	cpc	r25, r1
    3a44:	89 f7       	brne	.-30     	; 0x3a28 <cube_block_wipe+0x4a>
    3a46:	85 e0       	ldi	r24, 0x05	; 5
    3a48:	0e 94 c8 3e 	call	0x7d90	; 0x7d90 <cube_show_loop>
    3a4c:	21 97       	sbiw	r28, 0x01	; 1
    3a4e:	8f ef       	ldi	r24, 0xFF	; 255
    3a50:	cf 3f       	cpi	r28, 0xFF	; 255
    3a52:	d8 07       	cpc	r29, r24
    3a54:	19 f0       	breq	.+6      	; 0x3a5c <cube_block_wipe+0x7e>
    3a56:	80 e0       	ldi	r24, 0x00	; 0
    3a58:	90 e0       	ldi	r25, 0x00	; 0
    3a5a:	e6 cf       	rjmp	.-52     	; 0x3a28 <cube_block_wipe+0x4a>
    3a5c:	df 91       	pop	r29
    3a5e:	cf 91       	pop	r28
    3a60:	08 95       	ret

00003a62 <cube_belt_wipe>:
    3a62:	1f 93       	push	r17
    3a64:	cf 93       	push	r28
    3a66:	df 93       	push	r29
    3a68:	c7 e0       	ldi	r28, 0x07	; 7
    3a6a:	d0 e0       	ldi	r29, 0x00	; 0
    3a6c:	1f ef       	ldi	r17, 0xFF	; 255
    3a6e:	9e 01       	movw	r18, r28
    3a70:	53 e0       	ldi	r21, 0x03	; 3
    3a72:	22 0f       	add	r18, r18
    3a74:	33 1f       	adc	r19, r19
    3a76:	5a 95       	dec	r21
    3a78:	e1 f7       	brne	.-8      	; 0x3a72 <cube_belt_wipe+0x10>
    3a7a:	f9 01       	movw	r30, r18
    3a7c:	e0 55       	subi	r30, 0x50	; 80
    3a7e:	fe 4f       	sbci	r31, 0xFE	; 254
    3a80:	80 81       	ld	r24, Z
    3a82:	10 83       	st	Z, r17
    3a84:	87 81       	ldd	r24, Z+7	; 0x07
    3a86:	17 83       	std	Z+7, r17	; 0x07
    3a88:	81 e0       	ldi	r24, 0x01	; 1
    3a8a:	90 e0       	ldi	r25, 0x00	; 0
    3a8c:	f9 01       	movw	r30, r18
    3a8e:	e8 0f       	add	r30, r24
    3a90:	f9 1f       	adc	r31, r25
    3a92:	e0 55       	subi	r30, 0x50	; 80
    3a94:	fe 4f       	sbci	r31, 0xFE	; 254
    3a96:	40 81       	ld	r20, Z
    3a98:	41 68       	ori	r20, 0x81	; 129
    3a9a:	40 83       	st	Z, r20
    3a9c:	01 96       	adiw	r24, 0x01	; 1
    3a9e:	87 30       	cpi	r24, 0x07	; 7
    3aa0:	91 05       	cpc	r25, r1
    3aa2:	a1 f7       	brne	.-24     	; 0x3a8c <cube_belt_wipe+0x2a>
    3aa4:	85 e0       	ldi	r24, 0x05	; 5
    3aa6:	0e 94 c8 3e 	call	0x7d90	; 0x7d90 <cube_show_loop>
    3aaa:	21 97       	sbiw	r28, 0x01	; 1
    3aac:	8f ef       	ldi	r24, 0xFF	; 255
    3aae:	cf 3f       	cpi	r28, 0xFF	; 255
    3ab0:	d8 07       	cpc	r29, r24
    3ab2:	e9 f6       	brne	.-70     	; 0x3a6e <cube_belt_wipe+0xc>
    3ab4:	c7 e0       	ldi	r28, 0x07	; 7
    3ab6:	d0 e0       	ldi	r29, 0x00	; 0
    3ab8:	13 c0       	rjmp	.+38     	; 0x3ae0 <cube_belt_wipe+0x7e>
    3aba:	fc 01       	movw	r30, r24
    3abc:	e2 0f       	add	r30, r18
    3abe:	f3 1f       	adc	r31, r19
    3ac0:	e0 55       	subi	r30, 0x50	; 80
    3ac2:	fe 4f       	sbci	r31, 0xFE	; 254
    3ac4:	10 82       	st	Z, r1
    3ac6:	2f 5f       	subi	r18, 0xFF	; 255
    3ac8:	3f 4f       	sbci	r19, 0xFF	; 255
    3aca:	28 30       	cpi	r18, 0x08	; 8
    3acc:	31 05       	cpc	r19, r1
    3ace:	a9 f7       	brne	.-22     	; 0x3aba <cube_belt_wipe+0x58>
    3ad0:	85 e0       	ldi	r24, 0x05	; 5
    3ad2:	0e 94 c8 3e 	call	0x7d90	; 0x7d90 <cube_show_loop>
    3ad6:	21 97       	sbiw	r28, 0x01	; 1
    3ad8:	8f ef       	ldi	r24, 0xFF	; 255
    3ada:	cf 3f       	cpi	r28, 0xFF	; 255
    3adc:	d8 07       	cpc	r29, r24
    3ade:	49 f0       	breq	.+18     	; 0x3af2 <cube_belt_wipe+0x90>
    3ae0:	20 e0       	ldi	r18, 0x00	; 0
    3ae2:	30 e0       	ldi	r19, 0x00	; 0
    3ae4:	ce 01       	movw	r24, r28
    3ae6:	43 e0       	ldi	r20, 0x03	; 3
    3ae8:	88 0f       	add	r24, r24
    3aea:	99 1f       	adc	r25, r25
    3aec:	4a 95       	dec	r20
    3aee:	e1 f7       	brne	.-8      	; 0x3ae8 <cube_belt_wipe+0x86>
    3af0:	e4 cf       	rjmp	.-56     	; 0x3aba <cube_belt_wipe+0x58>
    3af2:	df 91       	pop	r29
    3af4:	cf 91       	pop	r28
    3af6:	1f 91       	pop	r17
    3af8:	08 95       	ret

00003afa <cube_flash>:
    3afa:	70 c0       	rjmp	.+224    	; 0x3bdc <cube_flash+0xe2>
    3afc:	f8 94       	cli
    3afe:	18 b8       	out	0x08, r1	; 8
	#else
		//round up by default
		__ticks_dc = (uint32_t)(ceil(fabs(__tmp)));
	#endif

	__builtin_avr_delay_cycles(__ticks_dc);
    3b00:	2f e5       	ldi	r18, 0x5F	; 95
    3b02:	3a ee       	ldi	r19, 0xEA	; 234
    3b04:	40 e0       	ldi	r20, 0x00	; 0
    3b06:	21 50       	subi	r18, 0x01	; 1
    3b08:	30 40       	sbci	r19, 0x00	; 0
    3b0a:	40 40       	sbci	r20, 0x00	; 0
    3b0c:	e1 f7       	brne	.-8      	; 0x3b06 <cube_flash+0xc>
    3b0e:	00 c0       	rjmp	.+0      	; 0x3b10 <cube_flash+0x16>
    3b10:	00 00       	nop
    3b12:	2f e5       	ldi	r18, 0x5F	; 95
    3b14:	3a ee       	ldi	r19, 0xEA	; 234
    3b16:	40 e0       	ldi	r20, 0x00	; 0
    3b18:	21 50       	subi	r18, 0x01	; 1
    3b1a:	30 40       	sbci	r19, 0x00	; 0
    3b1c:	40 40       	sbci	r20, 0x00	; 0
    3b1e:	e1 f7       	brne	.-8      	; 0x3b18 <cube_flash+0x1e>
    3b20:	00 c0       	rjmp	.+0      	; 0x3b22 <cube_flash+0x28>
    3b22:	00 00       	nop
    3b24:	2f e5       	ldi	r18, 0x5F	; 95
    3b26:	3a ee       	ldi	r19, 0xEA	; 234
    3b28:	40 e0       	ldi	r20, 0x00	; 0
    3b2a:	21 50       	subi	r18, 0x01	; 1
    3b2c:	30 40       	sbci	r19, 0x00	; 0
    3b2e:	40 40       	sbci	r20, 0x00	; 0
    3b30:	e1 f7       	brne	.-8      	; 0x3b2a <cube_flash+0x30>
    3b32:	00 c0       	rjmp	.+0      	; 0x3b34 <cube_flash+0x3a>
    3b34:	00 00       	nop
    3b36:	2f e5       	ldi	r18, 0x5F	; 95
    3b38:	3a ee       	ldi	r19, 0xEA	; 234
    3b3a:	40 e0       	ldi	r20, 0x00	; 0
    3b3c:	21 50       	subi	r18, 0x01	; 1
    3b3e:	30 40       	sbci	r19, 0x00	; 0
    3b40:	40 40       	sbci	r20, 0x00	; 0
    3b42:	e1 f7       	brne	.-8      	; 0x3b3c <cube_flash+0x42>
    3b44:	00 c0       	rjmp	.+0      	; 0x3b46 <cube_flash+0x4c>
    3b46:	00 00       	nop
    3b48:	2f e5       	ldi	r18, 0x5F	; 95
    3b4a:	3a ee       	ldi	r19, 0xEA	; 234
    3b4c:	40 e0       	ldi	r20, 0x00	; 0
    3b4e:	21 50       	subi	r18, 0x01	; 1
    3b50:	30 40       	sbci	r19, 0x00	; 0
    3b52:	40 40       	sbci	r20, 0x00	; 0
    3b54:	e1 f7       	brne	.-8      	; 0x3b4e <cube_flash+0x54>
    3b56:	00 c0       	rjmp	.+0      	; 0x3b58 <cube_flash+0x5e>
    3b58:	00 00       	nop
    3b5a:	2f e5       	ldi	r18, 0x5F	; 95
    3b5c:	3a ee       	ldi	r19, 0xEA	; 234
    3b5e:	40 e0       	ldi	r20, 0x00	; 0
    3b60:	21 50       	subi	r18, 0x01	; 1
    3b62:	30 40       	sbci	r19, 0x00	; 0
    3b64:	40 40       	sbci	r20, 0x00	; 0
    3b66:	e1 f7       	brne	.-8      	; 0x3b60 <cube_flash+0x66>
    3b68:	00 c0       	rjmp	.+0      	; 0x3b6a <cube_flash+0x70>
    3b6a:	00 00       	nop
    3b6c:	78 94       	sei
    3b6e:	2f e5       	ldi	r18, 0x5F	; 95
    3b70:	3a ee       	ldi	r19, 0xEA	; 234
    3b72:	40 e0       	ldi	r20, 0x00	; 0
    3b74:	21 50       	subi	r18, 0x01	; 1
    3b76:	30 40       	sbci	r19, 0x00	; 0
    3b78:	40 40       	sbci	r20, 0x00	; 0
    3b7a:	e1 f7       	brne	.-8      	; 0x3b74 <cube_flash+0x7a>
    3b7c:	00 c0       	rjmp	.+0      	; 0x3b7e <cube_flash+0x84>
    3b7e:	00 00       	nop
    3b80:	2f e5       	ldi	r18, 0x5F	; 95
    3b82:	3a ee       	ldi	r19, 0xEA	; 234
    3b84:	40 e0       	ldi	r20, 0x00	; 0
    3b86:	21 50       	subi	r18, 0x01	; 1
    3b88:	30 40       	sbci	r19, 0x00	; 0
    3b8a:	40 40       	sbci	r20, 0x00	; 0
    3b8c:	e1 f7       	brne	.-8      	; 0x3b86 <cube_flash+0x8c>
    3b8e:	00 c0       	rjmp	.+0      	; 0x3b90 <cube_flash+0x96>
    3b90:	00 00       	nop
    3b92:	2f e5       	ldi	r18, 0x5F	; 95
    3b94:	3a ee       	ldi	r19, 0xEA	; 234
    3b96:	40 e0       	ldi	r20, 0x00	; 0
    3b98:	21 50       	subi	r18, 0x01	; 1
    3b9a:	30 40       	sbci	r19, 0x00	; 0
    3b9c:	40 40       	sbci	r20, 0x00	; 0
    3b9e:	e1 f7       	brne	.-8      	; 0x3b98 <cube_flash+0x9e>
    3ba0:	00 c0       	rjmp	.+0      	; 0x3ba2 <cube_flash+0xa8>
    3ba2:	00 00       	nop
    3ba4:	2f e5       	ldi	r18, 0x5F	; 95
    3ba6:	3a ee       	ldi	r19, 0xEA	; 234
    3ba8:	40 e0       	ldi	r20, 0x00	; 0
    3baa:	21 50       	subi	r18, 0x01	; 1
    3bac:	30 40       	sbci	r19, 0x00	; 0
    3bae:	40 40       	sbci	r20, 0x00	; 0
    3bb0:	e1 f7       	brne	.-8      	; 0x3baa <cube_flash+0xb0>
    3bb2:	00 c0       	rjmp	.+0      	; 0x3bb4 <cube_flash+0xba>
    3bb4:	00 00       	nop
    3bb6:	2f e5       	ldi	r18, 0x5F	; 95
    3bb8:	3a ee       	ldi	r19, 0xEA	; 234
    3bba:	40 e0       	ldi	r20, 0x00	; 0
    3bbc:	21 50       	subi	r18, 0x01	; 1
    3bbe:	30 40       	sbci	r19, 0x00	; 0
    3bc0:	40 40       	sbci	r20, 0x00	; 0
    3bc2:	e1 f7       	brne	.-8      	; 0x3bbc <cube_flash+0xc2>
    3bc4:	00 c0       	rjmp	.+0      	; 0x3bc6 <cube_flash+0xcc>
    3bc6:	00 00       	nop
    3bc8:	2f e5       	ldi	r18, 0x5F	; 95
    3bca:	3a ee       	ldi	r19, 0xEA	; 234
    3bcc:	40 e0       	ldi	r20, 0x00	; 0
    3bce:	21 50       	subi	r18, 0x01	; 1
    3bd0:	30 40       	sbci	r19, 0x00	; 0
    3bd2:	40 40       	sbci	r20, 0x00	; 0
    3bd4:	e1 f7       	brne	.-8      	; 0x3bce <cube_flash+0xd4>
    3bd6:	00 c0       	rjmp	.+0      	; 0x3bd8 <cube_flash+0xde>
    3bd8:	00 00       	nop
    3bda:	81 50       	subi	r24, 0x01	; 1
    3bdc:	88 23       	and	r24, r24
    3bde:	09 f0       	breq	.+2      	; 0x3be2 <cube_flash+0xe8>
    3be0:	8d cf       	rjmp	.-230    	; 0x3afc <cube_flash+0x2>
    3be2:	08 95       	ret

00003be4 <cube_string>:
    3be4:	cf 93       	push	r28
    3be6:	df 93       	push	r29
    3be8:	ec 01       	movw	r28, r24
    3bea:	6b c0       	rjmp	.+214    	; 0x3cc2 <cube_string+0xde>
    3bec:	0e 94 9d 3d 	call	0x7b3a	; 0x7b3a <cube_clear>
    3bf0:	f8 94       	cli
    3bf2:	18 b8       	out	0x08, r1	; 8
    3bf4:	89 91       	ld	r24, Y+
    3bf6:	60 e1       	ldi	r22, 0x10	; 16
    3bf8:	0e 94 0f 01 	call	0x21e	; 0x21e <cube_char>
    3bfc:	0e 94 fe 4e 	call	0x9dfc	; 0x9dfc <rotate_90_deg>
    3c00:	0e 94 fe 4e 	call	0x9dfc	; 0x9dfc <rotate_90_deg>
    3c04:	0e 94 fe 4e 	call	0x9dfc	; 0x9dfc <rotate_90_deg>
    3c08:	81 e0       	ldi	r24, 0x01	; 1
    3c0a:	60 e0       	ldi	r22, 0x00	; 0
    3c0c:	46 e0       	ldi	r20, 0x06	; 6
    3c0e:	27 e0       	ldi	r18, 0x07	; 7
    3c10:	0e 94 04 51 	call	0xa208	; 0xa208 <move_x_rev>
    3c14:	81 e0       	ldi	r24, 0x01	; 1
    3c16:	60 e0       	ldi	r22, 0x00	; 0
    3c18:	46 e0       	ldi	r20, 0x06	; 6
    3c1a:	27 e0       	ldi	r18, 0x07	; 7
    3c1c:	0e 94 04 51 	call	0xa208	; 0xa208 <move_x_rev>
    3c20:	81 e0       	ldi	r24, 0x01	; 1
    3c22:	60 e0       	ldi	r22, 0x00	; 0
    3c24:	46 e0       	ldi	r20, 0x06	; 6
    3c26:	27 e0       	ldi	r18, 0x07	; 7
    3c28:	0e 94 04 51 	call	0xa208	; 0xa208 <move_x_rev>
    3c2c:	78 94       	sei
    3c2e:	85 e0       	ldi	r24, 0x05	; 5
    3c30:	0e 94 c8 3e 	call	0x7d90	; 0x7d90 <cube_show_loop>
    3c34:	81 e0       	ldi	r24, 0x01	; 1
    3c36:	60 e0       	ldi	r22, 0x00	; 0
    3c38:	46 e0       	ldi	r20, 0x06	; 6
    3c3a:	27 e0       	ldi	r18, 0x07	; 7
    3c3c:	0e 94 ad 50 	call	0xa15a	; 0xa15a <move_x_fwd>
    3c40:	85 e0       	ldi	r24, 0x05	; 5
    3c42:	0e 94 c8 3e 	call	0x7d90	; 0x7d90 <cube_show_loop>
    3c46:	81 e0       	ldi	r24, 0x01	; 1
    3c48:	60 e0       	ldi	r22, 0x00	; 0
    3c4a:	46 e0       	ldi	r20, 0x06	; 6
    3c4c:	27 e0       	ldi	r18, 0x07	; 7
    3c4e:	0e 94 ad 50 	call	0xa15a	; 0xa15a <move_x_fwd>
    3c52:	85 e0       	ldi	r24, 0x05	; 5
    3c54:	0e 94 c8 3e 	call	0x7d90	; 0x7d90 <cube_show_loop>
    3c58:	81 e0       	ldi	r24, 0x01	; 1
    3c5a:	60 e0       	ldi	r22, 0x00	; 0
    3c5c:	46 e0       	ldi	r20, 0x06	; 6
    3c5e:	27 e0       	ldi	r18, 0x07	; 7
    3c60:	0e 94 ad 50 	call	0xa15a	; 0xa15a <move_x_fwd>
    3c64:	85 e0       	ldi	r24, 0x05	; 5
    3c66:	0e 94 c8 3e 	call	0x7d90	; 0x7d90 <cube_show_loop>
    3c6a:	81 e0       	ldi	r24, 0x01	; 1
    3c6c:	0e 94 6c 3f 	call	0x7ed8	; 0x7ed8 <rotate_90_auto>
    3c70:	80 e0       	ldi	r24, 0x00	; 0
    3c72:	60 e0       	ldi	r22, 0x00	; 0
    3c74:	47 e0       	ldi	r20, 0x07	; 7
    3c76:	27 e0       	ldi	r18, 0x07	; 7
    3c78:	0e 94 be 4f 	call	0x9f7c	; 0x9f7c <move_z_rev>
    3c7c:	85 e0       	ldi	r24, 0x05	; 5
    3c7e:	0e 94 c8 3e 	call	0x7d90	; 0x7d90 <cube_show_loop>
    3c82:	80 e0       	ldi	r24, 0x00	; 0
    3c84:	60 e0       	ldi	r22, 0x00	; 0
    3c86:	47 e0       	ldi	r20, 0x07	; 7
    3c88:	27 e0       	ldi	r18, 0x07	; 7
    3c8a:	0e 94 be 4f 	call	0x9f7c	; 0x9f7c <move_z_rev>
    3c8e:	85 e0       	ldi	r24, 0x05	; 5
    3c90:	0e 94 c8 3e 	call	0x7d90	; 0x7d90 <cube_show_loop>
    3c94:	80 e0       	ldi	r24, 0x00	; 0
    3c96:	60 e0       	ldi	r22, 0x00	; 0
    3c98:	47 e0       	ldi	r20, 0x07	; 7
    3c9a:	27 e0       	ldi	r18, 0x07	; 7
    3c9c:	0e 94 be 4f 	call	0x9f7c	; 0x9f7c <move_z_rev>
    3ca0:	85 e0       	ldi	r24, 0x05	; 5
    3ca2:	0e 94 c8 3e 	call	0x7d90	; 0x7d90 <cube_show_loop>
    3ca6:	80 e0       	ldi	r24, 0x00	; 0
    3ca8:	60 e0       	ldi	r22, 0x00	; 0
    3caa:	47 e0       	ldi	r20, 0x07	; 7
    3cac:	27 e0       	ldi	r18, 0x07	; 7
    3cae:	0e 94 be 4f 	call	0x9f7c	; 0x9f7c <move_z_rev>
    3cb2:	85 e0       	ldi	r24, 0x05	; 5
    3cb4:	0e 94 c8 3e 	call	0x7d90	; 0x7d90 <cube_show_loop>
    3cb8:	85 e0       	ldi	r24, 0x05	; 5
    3cba:	0e 94 7d 1d 	call	0x3afa	; 0x3afa <cube_flash>
    3cbe:	0e 94 23 16 	call	0x2c46	; 0x2c46 <cube_explosion>
    3cc2:	88 81       	ld	r24, Y
    3cc4:	88 23       	and	r24, r24
    3cc6:	09 f0       	breq	.+2      	; 0x3cca <cube_string+0xe6>
    3cc8:	91 cf       	rjmp	.-222    	; 0x3bec <cube_string+0x8>
    3cca:	0e 94 23 16 	call	0x2c46	; 0x2c46 <cube_explosion>
    3cce:	0e 94 23 16 	call	0x2c46	; 0x2c46 <cube_explosion>
    3cd2:	df 91       	pop	r29
    3cd4:	cf 91       	pop	r28
    3cd6:	08 95       	ret

00003cd8 <invaders_move_right>:
    3cd8:	cf 93       	push	r28
    3cda:	df 93       	push	r29
    3cdc:	eb 01       	movw	r28, r22
    3cde:	33 e0       	ldi	r19, 0x03	; 3
    3ce0:	20 ec       	ldi	r18, 0xC0	; 192
    3ce2:	48 2f       	mov	r20, r24
    3ce4:	50 e0       	ldi	r21, 0x00	; 0
    3ce6:	ba 01       	movw	r22, r20
    3ce8:	e3 e0       	ldi	r30, 0x03	; 3
    3cea:	66 0f       	add	r22, r22
    3cec:	77 1f       	adc	r23, r23
    3cee:	ea 95       	dec	r30
    3cf0:	e1 f7       	brne	.-8      	; 0x3cea <invaders_move_right+0x12>
    3cf2:	41 50       	subi	r20, 0x01	; 1
    3cf4:	50 40       	sbci	r21, 0x00	; 0
    3cf6:	f3 e0       	ldi	r31, 0x03	; 3
    3cf8:	44 0f       	add	r20, r20
    3cfa:	55 1f       	adc	r21, r21
    3cfc:	fa 95       	dec	r31
    3cfe:	e1 f7       	brne	.-8      	; 0x3cf8 <invaders_move_right+0x20>
    3d00:	e8 81       	ld	r30, Y
    3d02:	ff 27       	eor	r31, r31
    3d04:	e7 fd       	sbrc	r30, 7
    3d06:	f0 95       	com	r31
    3d08:	db 01       	movw	r26, r22
    3d0a:	ae 0f       	add	r26, r30
    3d0c:	bf 1f       	adc	r27, r31
    3d0e:	a0 55       	subi	r26, 0x50	; 80
    3d10:	be 4f       	sbci	r27, 0xFE	; 254
    3d12:	8c 91       	ld	r24, X
    3d14:	82 23       	and	r24, r18
    3d16:	69 f1       	breq	.+90     	; 0x3d72 <invaders_move_right+0x9a>
    3d18:	e4 0f       	add	r30, r20
    3d1a:	f5 1f       	adc	r31, r21
    3d1c:	e0 55       	subi	r30, 0x50	; 80
    3d1e:	fe 4f       	sbci	r31, 0xFE	; 254
    3d20:	80 81       	ld	r24, Z
    3d22:	82 23       	and	r24, r18
    3d24:	31 f1       	breq	.+76     	; 0x3d72 <invaders_move_right+0x9a>
    3d26:	8c 91       	ld	r24, X
    3d28:	92 2f       	mov	r25, r18
    3d2a:	90 95       	com	r25
    3d2c:	89 23       	and	r24, r25
    3d2e:	8c 93       	st	X, r24
    3d30:	e8 81       	ld	r30, Y
    3d32:	ff 27       	eor	r31, r31
    3d34:	e7 fd       	sbrc	r30, 7
    3d36:	f0 95       	com	r31
    3d38:	e4 0f       	add	r30, r20
    3d3a:	f5 1f       	adc	r31, r21
    3d3c:	e0 55       	subi	r30, 0x50	; 80
    3d3e:	fe 4f       	sbci	r31, 0xFE	; 254
    3d40:	80 81       	ld	r24, Z
    3d42:	89 23       	and	r24, r25
    3d44:	80 83       	st	Z, r24
    3d46:	e8 81       	ld	r30, Y
    3d48:	ff 27       	eor	r31, r31
    3d4a:	e7 fd       	sbrc	r30, 7
    3d4c:	f0 95       	com	r31
    3d4e:	e6 0f       	add	r30, r22
    3d50:	f7 1f       	adc	r31, r23
    3d52:	ee 54       	subi	r30, 0x4E	; 78
    3d54:	fe 4f       	sbci	r31, 0xFE	; 254
    3d56:	80 81       	ld	r24, Z
    3d58:	82 2b       	or	r24, r18
    3d5a:	80 83       	st	Z, r24
    3d5c:	e8 81       	ld	r30, Y
    3d5e:	ff 27       	eor	r31, r31
    3d60:	e7 fd       	sbrc	r30, 7
    3d62:	f0 95       	com	r31
    3d64:	e4 0f       	add	r30, r20
    3d66:	f5 1f       	adc	r31, r21
    3d68:	ee 54       	subi	r30, 0x4E	; 78
    3d6a:	fe 4f       	sbci	r31, 0xFE	; 254
    3d6c:	80 81       	ld	r24, Z
    3d6e:	82 2b       	or	r24, r18
    3d70:	80 83       	st	Z, r24
    3d72:	88 81       	ld	r24, Y
    3d74:	99 27       	eor	r25, r25
    3d76:	87 fd       	sbrc	r24, 7
    3d78:	90 95       	com	r25
    3d7a:	03 96       	adiw	r24, 0x03	; 3
    3d7c:	fb 01       	movw	r30, r22
    3d7e:	e8 0f       	add	r30, r24
    3d80:	f9 1f       	adc	r31, r25
    3d82:	e0 55       	subi	r30, 0x50	; 80
    3d84:	fe 4f       	sbci	r31, 0xFE	; 254
    3d86:	a0 81       	ld	r26, Z
    3d88:	a2 23       	and	r26, r18
    3d8a:	71 f1       	breq	.+92     	; 0x3de8 <invaders_move_right+0x110>
    3d8c:	84 0f       	add	r24, r20
    3d8e:	95 1f       	adc	r25, r21
    3d90:	80 55       	subi	r24, 0x50	; 80
    3d92:	9e 4f       	sbci	r25, 0xFE	; 254
    3d94:	dc 01       	movw	r26, r24
    3d96:	8c 91       	ld	r24, X
    3d98:	82 23       	and	r24, r18
    3d9a:	31 f1       	breq	.+76     	; 0x3de8 <invaders_move_right+0x110>
    3d9c:	80 81       	ld	r24, Z
    3d9e:	92 2f       	mov	r25, r18
    3da0:	90 95       	com	r25
    3da2:	89 23       	and	r24, r25
    3da4:	80 83       	st	Z, r24
    3da6:	e8 81       	ld	r30, Y
    3da8:	ff 27       	eor	r31, r31
    3daa:	e7 fd       	sbrc	r30, 7
    3dac:	f0 95       	com	r31
    3dae:	e4 0f       	add	r30, r20
    3db0:	f5 1f       	adc	r31, r21
    3db2:	ed 54       	subi	r30, 0x4D	; 77
    3db4:	fe 4f       	sbci	r31, 0xFE	; 254
    3db6:	80 81       	ld	r24, Z
    3db8:	89 23       	and	r24, r25
    3dba:	80 83       	st	Z, r24
    3dbc:	e8 81       	ld	r30, Y
    3dbe:	ff 27       	eor	r31, r31
    3dc0:	e7 fd       	sbrc	r30, 7
    3dc2:	f0 95       	com	r31
    3dc4:	e6 0f       	add	r30, r22
    3dc6:	f7 1f       	adc	r31, r23
    3dc8:	eb 54       	subi	r30, 0x4B	; 75
    3dca:	fe 4f       	sbci	r31, 0xFE	; 254
    3dcc:	80 81       	ld	r24, Z
    3dce:	82 2b       	or	r24, r18
    3dd0:	80 83       	st	Z, r24
    3dd2:	e8 81       	ld	r30, Y
    3dd4:	ff 27       	eor	r31, r31
    3dd6:	e7 fd       	sbrc	r30, 7
    3dd8:	f0 95       	com	r31
    3dda:	e4 0f       	add	r30, r20
    3ddc:	f5 1f       	adc	r31, r21
    3dde:	eb 54       	subi	r30, 0x4B	; 75
    3de0:	fe 4f       	sbci	r31, 0xFE	; 254
    3de2:	80 81       	ld	r24, Z
    3de4:	82 2b       	or	r24, r18
    3de6:	80 83       	st	Z, r24
    3de8:	26 95       	lsr	r18
    3dea:	26 95       	lsr	r18
    3dec:	26 95       	lsr	r18
    3dee:	31 50       	subi	r19, 0x01	; 1
    3df0:	09 f0       	breq	.+2      	; 0x3df4 <invaders_move_right+0x11c>
    3df2:	86 cf       	rjmp	.-244    	; 0x3d00 <invaders_move_right+0x28>
    3df4:	88 81       	ld	r24, Y
    3df6:	8f 5f       	subi	r24, 0xFF	; 255
    3df8:	88 83       	st	Y, r24
    3dfa:	df 91       	pop	r29
    3dfc:	cf 91       	pop	r28
    3dfe:	08 95       	ret

00003e00 <invaders_move_left>:
    3e00:	cf 93       	push	r28
    3e02:	df 93       	push	r29
    3e04:	db 01       	movw	r26, r22
    3e06:	33 e0       	ldi	r19, 0x03	; 3
    3e08:	20 ec       	ldi	r18, 0xC0	; 192
    3e0a:	48 2f       	mov	r20, r24
    3e0c:	50 e0       	ldi	r21, 0x00	; 0
    3e0e:	ba 01       	movw	r22, r20
    3e10:	c3 e0       	ldi	r28, 0x03	; 3
    3e12:	66 0f       	add	r22, r22
    3e14:	77 1f       	adc	r23, r23
    3e16:	ca 95       	dec	r28
    3e18:	e1 f7       	brne	.-8      	; 0x3e12 <invaders_move_left+0x12>
    3e1a:	41 50       	subi	r20, 0x01	; 1
    3e1c:	50 40       	sbci	r21, 0x00	; 0
    3e1e:	d3 e0       	ldi	r29, 0x03	; 3
    3e20:	44 0f       	add	r20, r20
    3e22:	55 1f       	adc	r21, r21
    3e24:	da 95       	dec	r29
    3e26:	e1 f7       	brne	.-8      	; 0x3e20 <invaders_move_left+0x20>
    3e28:	8c 91       	ld	r24, X
    3e2a:	99 27       	eor	r25, r25
    3e2c:	87 fd       	sbrc	r24, 7
    3e2e:	90 95       	com	r25
    3e30:	01 96       	adiw	r24, 0x01	; 1
    3e32:	fb 01       	movw	r30, r22
    3e34:	e8 0f       	add	r30, r24
    3e36:	f9 1f       	adc	r31, r25
    3e38:	e0 55       	subi	r30, 0x50	; 80
    3e3a:	fe 4f       	sbci	r31, 0xFE	; 254
    3e3c:	c0 81       	ld	r28, Z
    3e3e:	c2 23       	and	r28, r18
    3e40:	71 f1       	breq	.+92     	; 0x3e9e <invaders_move_left+0x9e>
    3e42:	84 0f       	add	r24, r20
    3e44:	95 1f       	adc	r25, r21
    3e46:	80 55       	subi	r24, 0x50	; 80
    3e48:	9e 4f       	sbci	r25, 0xFE	; 254
    3e4a:	ec 01       	movw	r28, r24
    3e4c:	88 81       	ld	r24, Y
    3e4e:	82 23       	and	r24, r18
    3e50:	31 f1       	breq	.+76     	; 0x3e9e <invaders_move_left+0x9e>
    3e52:	80 81       	ld	r24, Z
    3e54:	92 2f       	mov	r25, r18
    3e56:	90 95       	com	r25
    3e58:	89 23       	and	r24, r25
    3e5a:	80 83       	st	Z, r24
    3e5c:	ec 91       	ld	r30, X
    3e5e:	ff 27       	eor	r31, r31
    3e60:	e7 fd       	sbrc	r30, 7
    3e62:	f0 95       	com	r31
    3e64:	e4 0f       	add	r30, r20
    3e66:	f5 1f       	adc	r31, r21
    3e68:	ef 54       	subi	r30, 0x4F	; 79
    3e6a:	fe 4f       	sbci	r31, 0xFE	; 254
    3e6c:	80 81       	ld	r24, Z
    3e6e:	89 23       	and	r24, r25
    3e70:	80 83       	st	Z, r24
    3e72:	ec 91       	ld	r30, X
    3e74:	ff 27       	eor	r31, r31
    3e76:	e7 fd       	sbrc	r30, 7
    3e78:	f0 95       	com	r31
    3e7a:	e6 0f       	add	r30, r22
    3e7c:	f7 1f       	adc	r31, r23
    3e7e:	e1 55       	subi	r30, 0x51	; 81
    3e80:	fe 4f       	sbci	r31, 0xFE	; 254
    3e82:	80 81       	ld	r24, Z
    3e84:	82 2b       	or	r24, r18
    3e86:	80 83       	st	Z, r24
    3e88:	ec 91       	ld	r30, X
    3e8a:	ff 27       	eor	r31, r31
    3e8c:	e7 fd       	sbrc	r30, 7
    3e8e:	f0 95       	com	r31
    3e90:	e4 0f       	add	r30, r20
    3e92:	f5 1f       	adc	r31, r21
    3e94:	e1 55       	subi	r30, 0x51	; 81
    3e96:	fe 4f       	sbci	r31, 0xFE	; 254
    3e98:	80 81       	ld	r24, Z
    3e9a:	82 2b       	or	r24, r18
    3e9c:	80 83       	st	Z, r24
    3e9e:	8c 91       	ld	r24, X
    3ea0:	99 27       	eor	r25, r25
    3ea2:	87 fd       	sbrc	r24, 7
    3ea4:	90 95       	com	r25
    3ea6:	04 96       	adiw	r24, 0x04	; 4
    3ea8:	fb 01       	movw	r30, r22
    3eaa:	e8 0f       	add	r30, r24
    3eac:	f9 1f       	adc	r31, r25
    3eae:	e0 55       	subi	r30, 0x50	; 80
    3eb0:	fe 4f       	sbci	r31, 0xFE	; 254
    3eb2:	c0 81       	ld	r28, Z
    3eb4:	c2 23       	and	r28, r18
    3eb6:	71 f1       	breq	.+92     	; 0x3f14 <invaders_move_left+0x114>
    3eb8:	84 0f       	add	r24, r20
    3eba:	95 1f       	adc	r25, r21
    3ebc:	80 55       	subi	r24, 0x50	; 80
    3ebe:	9e 4f       	sbci	r25, 0xFE	; 254
    3ec0:	ec 01       	movw	r28, r24
    3ec2:	88 81       	ld	r24, Y
    3ec4:	82 23       	and	r24, r18
    3ec6:	31 f1       	breq	.+76     	; 0x3f14 <invaders_move_left+0x114>
    3ec8:	80 81       	ld	r24, Z
    3eca:	92 2f       	mov	r25, r18
    3ecc:	90 95       	com	r25
    3ece:	89 23       	and	r24, r25
    3ed0:	80 83       	st	Z, r24
    3ed2:	ec 91       	ld	r30, X
    3ed4:	ff 27       	eor	r31, r31
    3ed6:	e7 fd       	sbrc	r30, 7
    3ed8:	f0 95       	com	r31
    3eda:	e4 0f       	add	r30, r20
    3edc:	f5 1f       	adc	r31, r21
    3ede:	ec 54       	subi	r30, 0x4C	; 76
    3ee0:	fe 4f       	sbci	r31, 0xFE	; 254
    3ee2:	80 81       	ld	r24, Z
    3ee4:	89 23       	and	r24, r25
    3ee6:	80 83       	st	Z, r24
    3ee8:	ec 91       	ld	r30, X
    3eea:	ff 27       	eor	r31, r31
    3eec:	e7 fd       	sbrc	r30, 7
    3eee:	f0 95       	com	r31
    3ef0:	e6 0f       	add	r30, r22
    3ef2:	f7 1f       	adc	r31, r23
    3ef4:	ee 54       	subi	r30, 0x4E	; 78
    3ef6:	fe 4f       	sbci	r31, 0xFE	; 254
    3ef8:	80 81       	ld	r24, Z
    3efa:	82 2b       	or	r24, r18
    3efc:	80 83       	st	Z, r24
    3efe:	ec 91       	ld	r30, X
    3f00:	ff 27       	eor	r31, r31
    3f02:	e7 fd       	sbrc	r30, 7
    3f04:	f0 95       	com	r31
    3f06:	e4 0f       	add	r30, r20
    3f08:	f5 1f       	adc	r31, r21
    3f0a:	ee 54       	subi	r30, 0x4E	; 78
    3f0c:	fe 4f       	sbci	r31, 0xFE	; 254
    3f0e:	80 81       	ld	r24, Z
    3f10:	82 2b       	or	r24, r18
    3f12:	80 83       	st	Z, r24
    3f14:	26 95       	lsr	r18
    3f16:	26 95       	lsr	r18
    3f18:	26 95       	lsr	r18
    3f1a:	31 50       	subi	r19, 0x01	; 1
    3f1c:	09 f0       	breq	.+2      	; 0x3f20 <invaders_move_left+0x120>
    3f1e:	84 cf       	rjmp	.-248    	; 0x3e28 <invaders_move_left+0x28>
    3f20:	8c 91       	ld	r24, X
    3f22:	81 50       	subi	r24, 0x01	; 1
    3f24:	8c 93       	st	X, r24
    3f26:	df 91       	pop	r29
    3f28:	cf 91       	pop	r28
    3f2a:	08 95       	ret

00003f2c <invaders_move_down>:
    3f2c:	0f 93       	push	r16
    3f2e:	1f 93       	push	r17
    3f30:	cf 93       	push	r28
    3f32:	df 93       	push	r29
    3f34:	dc 01       	movw	r26, r24
    3f36:	93 e0       	ldi	r25, 0x03	; 3
    3f38:	80 ec       	ldi	r24, 0xC0	; 192
    3f3a:	77 27       	eor	r23, r23
    3f3c:	67 fd       	sbrc	r22, 7
    3f3e:	70 95       	com	r23
    3f40:	9b 01       	movw	r18, r22
    3f42:	2f 5f       	subi	r18, 0xFF	; 255
    3f44:	3f 4f       	sbci	r19, 0xFF	; 255
    3f46:	ab 01       	movw	r20, r22
    3f48:	4d 5f       	subi	r20, 0xFD	; 253
    3f4a:	5f 4f       	sbci	r21, 0xFF	; 255
    3f4c:	8b 01       	movw	r16, r22
    3f4e:	0c 5f       	subi	r16, 0xFC	; 252
    3f50:	1f 4f       	sbci	r17, 0xFF	; 255
    3f52:	ec 91       	ld	r30, X
    3f54:	f0 e0       	ldi	r31, 0x00	; 0
    3f56:	c3 e0       	ldi	r28, 0x03	; 3
    3f58:	ee 0f       	add	r30, r30
    3f5a:	ff 1f       	adc	r31, r31
    3f5c:	ca 95       	dec	r28
    3f5e:	e1 f7       	brne	.-8      	; 0x3f58 <invaders_move_down+0x2c>
    3f60:	e6 0f       	add	r30, r22
    3f62:	f7 1f       	adc	r31, r23
    3f64:	e0 55       	subi	r30, 0x50	; 80
    3f66:	fe 4f       	sbci	r31, 0xFE	; 254
    3f68:	c0 81       	ld	r28, Z
    3f6a:	c8 23       	and	r28, r24
    3f6c:	89 f1       	breq	.+98     	; 0x3fd0 <invaders_move_down+0xa4>
    3f6e:	d0 81       	ld	r29, Z
    3f70:	c8 2f       	mov	r28, r24
    3f72:	c0 95       	com	r28
    3f74:	dc 23       	and	r29, r28
    3f76:	d0 83       	st	Z, r29
    3f78:	ec 91       	ld	r30, X
    3f7a:	f0 e0       	ldi	r31, 0x00	; 0
    3f7c:	d3 e0       	ldi	r29, 0x03	; 3
    3f7e:	ee 0f       	add	r30, r30
    3f80:	ff 1f       	adc	r31, r31
    3f82:	da 95       	dec	r29
    3f84:	e1 f7       	brne	.-8      	; 0x3f7e <invaders_move_down+0x52>
    3f86:	e2 0f       	add	r30, r18
    3f88:	f3 1f       	adc	r31, r19
    3f8a:	e0 55       	subi	r30, 0x50	; 80
    3f8c:	fe 4f       	sbci	r31, 0xFE	; 254
    3f8e:	d0 81       	ld	r29, Z
    3f90:	dc 23       	and	r29, r28
    3f92:	d0 83       	st	Z, r29
    3f94:	ec 91       	ld	r30, X
    3f96:	f0 e0       	ldi	r31, 0x00	; 0
    3f98:	32 97       	sbiw	r30, 0x02	; 2
    3f9a:	c3 e0       	ldi	r28, 0x03	; 3
    3f9c:	ee 0f       	add	r30, r30
    3f9e:	ff 1f       	adc	r31, r31
    3fa0:	ca 95       	dec	r28
    3fa2:	e1 f7       	brne	.-8      	; 0x3f9c <invaders_move_down+0x70>
    3fa4:	e6 0f       	add	r30, r22
    3fa6:	f7 1f       	adc	r31, r23
    3fa8:	e0 55       	subi	r30, 0x50	; 80
    3faa:	fe 4f       	sbci	r31, 0xFE	; 254
    3fac:	c0 81       	ld	r28, Z
    3fae:	c8 2b       	or	r28, r24
    3fb0:	c0 83       	st	Z, r28
    3fb2:	ec 91       	ld	r30, X
    3fb4:	f0 e0       	ldi	r31, 0x00	; 0
    3fb6:	32 97       	sbiw	r30, 0x02	; 2
    3fb8:	d3 e0       	ldi	r29, 0x03	; 3
    3fba:	ee 0f       	add	r30, r30
    3fbc:	ff 1f       	adc	r31, r31
    3fbe:	da 95       	dec	r29
    3fc0:	e1 f7       	brne	.-8      	; 0x3fba <invaders_move_down+0x8e>
    3fc2:	e2 0f       	add	r30, r18
    3fc4:	f3 1f       	adc	r31, r19
    3fc6:	e0 55       	subi	r30, 0x50	; 80
    3fc8:	fe 4f       	sbci	r31, 0xFE	; 254
    3fca:	c0 81       	ld	r28, Z
    3fcc:	c8 2b       	or	r28, r24
    3fce:	c0 83       	st	Z, r28
    3fd0:	ec 91       	ld	r30, X
    3fd2:	f0 e0       	ldi	r31, 0x00	; 0
    3fd4:	c3 e0       	ldi	r28, 0x03	; 3
    3fd6:	ee 0f       	add	r30, r30
    3fd8:	ff 1f       	adc	r31, r31
    3fda:	ca 95       	dec	r28
    3fdc:	e1 f7       	brne	.-8      	; 0x3fd6 <invaders_move_down+0xaa>
    3fde:	e4 0f       	add	r30, r20
    3fe0:	f5 1f       	adc	r31, r21
    3fe2:	e0 55       	subi	r30, 0x50	; 80
    3fe4:	fe 4f       	sbci	r31, 0xFE	; 254
    3fe6:	c0 81       	ld	r28, Z
    3fe8:	c8 23       	and	r28, r24
    3fea:	89 f1       	breq	.+98     	; 0x404e <invaders_move_down+0x122>
    3fec:	d0 81       	ld	r29, Z
    3fee:	c8 2f       	mov	r28, r24
    3ff0:	c0 95       	com	r28
    3ff2:	dc 23       	and	r29, r28
    3ff4:	d0 83       	st	Z, r29
    3ff6:	ec 91       	ld	r30, X
    3ff8:	f0 e0       	ldi	r31, 0x00	; 0
    3ffa:	d3 e0       	ldi	r29, 0x03	; 3
    3ffc:	ee 0f       	add	r30, r30
    3ffe:	ff 1f       	adc	r31, r31
    4000:	da 95       	dec	r29
    4002:	e1 f7       	brne	.-8      	; 0x3ffc <invaders_move_down+0xd0>
    4004:	e0 0f       	add	r30, r16
    4006:	f1 1f       	adc	r31, r17
    4008:	e0 55       	subi	r30, 0x50	; 80
    400a:	fe 4f       	sbci	r31, 0xFE	; 254
    400c:	d0 81       	ld	r29, Z
    400e:	dc 23       	and	r29, r28
    4010:	d0 83       	st	Z, r29
    4012:	ec 91       	ld	r30, X
    4014:	f0 e0       	ldi	r31, 0x00	; 0
    4016:	32 97       	sbiw	r30, 0x02	; 2
    4018:	c3 e0       	ldi	r28, 0x03	; 3
    401a:	ee 0f       	add	r30, r30
    401c:	ff 1f       	adc	r31, r31
    401e:	ca 95       	dec	r28
    4020:	e1 f7       	brne	.-8      	; 0x401a <invaders_move_down+0xee>
    4022:	e4 0f       	add	r30, r20
    4024:	f5 1f       	adc	r31, r21
    4026:	e0 55       	subi	r30, 0x50	; 80
    4028:	fe 4f       	sbci	r31, 0xFE	; 254
    402a:	c0 81       	ld	r28, Z
    402c:	c8 2b       	or	r28, r24
    402e:	c0 83       	st	Z, r28
    4030:	ec 91       	ld	r30, X
    4032:	f0 e0       	ldi	r31, 0x00	; 0
    4034:	32 97       	sbiw	r30, 0x02	; 2
    4036:	d3 e0       	ldi	r29, 0x03	; 3
    4038:	ee 0f       	add	r30, r30
    403a:	ff 1f       	adc	r31, r31
    403c:	da 95       	dec	r29
    403e:	e1 f7       	brne	.-8      	; 0x4038 <invaders_move_down+0x10c>
    4040:	e0 0f       	add	r30, r16
    4042:	f1 1f       	adc	r31, r17
    4044:	e0 55       	subi	r30, 0x50	; 80
    4046:	fe 4f       	sbci	r31, 0xFE	; 254
    4048:	c0 81       	ld	r28, Z
    404a:	c8 2b       	or	r28, r24
    404c:	c0 83       	st	Z, r28
    404e:	86 95       	lsr	r24
    4050:	86 95       	lsr	r24
    4052:	86 95       	lsr	r24
    4054:	91 50       	subi	r25, 0x01	; 1
    4056:	09 f0       	breq	.+2      	; 0x405a <invaders_move_down+0x12e>
    4058:	7c cf       	rjmp	.-264    	; 0x3f52 <invaders_move_down+0x26>
    405a:	8c 91       	ld	r24, X
    405c:	81 50       	subi	r24, 0x01	; 1
    405e:	8c 93       	st	X, r24
    4060:	df 91       	pop	r29
    4062:	cf 91       	pop	r28
    4064:	1f 91       	pop	r17
    4066:	0f 91       	pop	r16
    4068:	08 95       	ret

0000406a <invader_show_loop>:
    406a:	cf 92       	push	r12
    406c:	df 92       	push	r13
    406e:	ef 92       	push	r14
    4070:	ff 92       	push	r15
    4072:	0f 93       	push	r16
    4074:	1f 93       	push	r17
    4076:	cf 93       	push	r28
    4078:	df 93       	push	r29
    407a:	8c 01       	movw	r16, r24
    407c:	eb 01       	movw	r28, r22
    407e:	6a 01       	movw	r12, r20
    4080:	79 01       	movw	r14, r18
    4082:	dc 01       	movw	r26, r24
    4084:	4c 91       	ld	r20, X
    4086:	47 30       	cpi	r20, 0x07	; 7
    4088:	08 f0       	brcs	.+2      	; 0x408c <invader_show_loop+0x22>
    408a:	0f c1       	rjmp	.+542    	; 0x42aa <__stack+0x1ab>
    408c:	64 2f       	mov	r22, r20
    408e:	6f 5f       	subi	r22, 0xFF	; 255
    4090:	6c 93       	st	X, r22
    4092:	70 e0       	ldi	r23, 0x00	; 0
    4094:	28 81       	ld	r18, Y
    4096:	a2 2f       	mov	r26, r18
    4098:	a2 95       	swap	r26
    409a:	af 70       	andi	r26, 0x0F	; 15
    409c:	b0 e0       	ldi	r27, 0x00	; 0
    409e:	fb 01       	movw	r30, r22
    40a0:	83 e0       	ldi	r24, 0x03	; 3
    40a2:	ee 0f       	add	r30, r30
    40a4:	ff 1f       	adc	r31, r31
    40a6:	8a 95       	dec	r24
    40a8:	e1 f7       	brne	.-8      	; 0x40a2 <invader_show_loop+0x38>
    40aa:	ea 0f       	add	r30, r26
    40ac:	fb 1f       	adc	r31, r27
    40ae:	e0 55       	subi	r30, 0x50	; 80
    40b0:	fe 4f       	sbci	r31, 0xFE	; 254
    40b2:	80 81       	ld	r24, Z
    40b4:	30 e0       	ldi	r19, 0x00	; 0
    40b6:	2f 70       	andi	r18, 0x0F	; 15
    40b8:	30 70       	andi	r19, 0x00	; 0
    40ba:	90 e0       	ldi	r25, 0x00	; 0
    40bc:	02 2e       	mov	r0, r18
    40be:	02 c0       	rjmp	.+4      	; 0x40c4 <invader_show_loop+0x5a>
    40c0:	95 95       	asr	r25
    40c2:	87 95       	ror	r24
    40c4:	0a 94       	dec	r0
    40c6:	e2 f7       	brpl	.-8      	; 0x40c0 <invader_show_loop+0x56>
    40c8:	80 fd       	sbrc	r24, 0
    40ca:	4b c0       	rjmp	.+150    	; 0x4162 <__stack+0x63>
    40cc:	be c0       	rjmp	.+380    	; 0x424a <__stack+0x14b>
    40ce:	88 81       	ld	r24, Y
    40d0:	98 2f       	mov	r25, r24
    40d2:	92 95       	swap	r25
    40d4:	9f 70       	andi	r25, 0x0F	; 15
    40d6:	9f 01       	movw	r18, r30
    40d8:	53 e0       	ldi	r21, 0x03	; 3
    40da:	22 0f       	add	r18, r18
    40dc:	33 1f       	adc	r19, r19
    40de:	5a 95       	dec	r21
    40e0:	e1 f7       	brne	.-8      	; 0x40da <invader_show_loop+0x70>
    40e2:	f9 01       	movw	r30, r18
    40e4:	e9 0f       	add	r30, r25
    40e6:	f1 1d       	adc	r31, r1
    40e8:	ef 54       	subi	r30, 0x4F	; 79
    40ea:	fe 4f       	sbci	r31, 0xFE	; 254
    40ec:	50 81       	ld	r21, Z
    40ee:	90 e0       	ldi	r25, 0x00	; 0
    40f0:	8f 70       	andi	r24, 0x0F	; 15
    40f2:	90 70       	andi	r25, 0x00	; 0
    40f4:	01 97       	sbiw	r24, 0x01	; 1
    40f6:	db 01       	movw	r26, r22
    40f8:	02 c0       	rjmp	.+4      	; 0x40fe <invader_show_loop+0x94>
    40fa:	aa 0f       	add	r26, r26
    40fc:	bb 1f       	adc	r27, r27
    40fe:	8a 95       	dec	r24
    4100:	e2 f7       	brpl	.-8      	; 0x40fa <invader_show_loop+0x90>
    4102:	5a 2b       	or	r21, r26
    4104:	50 83       	st	Z, r21
    4106:	88 81       	ld	r24, Y
    4108:	98 2f       	mov	r25, r24
    410a:	92 95       	swap	r25
    410c:	9f 70       	andi	r25, 0x0F	; 15
    410e:	f9 01       	movw	r30, r18
    4110:	e9 0f       	add	r30, r25
    4112:	f1 1d       	adc	r31, r1
    4114:	e0 55       	subi	r30, 0x50	; 80
    4116:	fe 4f       	sbci	r31, 0xFE	; 254
    4118:	50 81       	ld	r21, Z
    411a:	90 e0       	ldi	r25, 0x00	; 0
    411c:	8f 70       	andi	r24, 0x0F	; 15
    411e:	90 70       	andi	r25, 0x00	; 0
    4120:	01 97       	sbiw	r24, 0x01	; 1
    4122:	db 01       	movw	r26, r22
    4124:	02 c0       	rjmp	.+4      	; 0x412a <__stack+0x2b>
    4126:	aa 0f       	add	r26, r26
    4128:	bb 1f       	adc	r27, r27
    412a:	8a 95       	dec	r24
    412c:	e2 f7       	brpl	.-8      	; 0x4126 <__stack+0x27>
    412e:	5a 2b       	or	r21, r26
    4130:	50 83       	st	Z, r21
    4132:	88 81       	ld	r24, Y
    4134:	98 2f       	mov	r25, r24
    4136:	92 95       	swap	r25
    4138:	9f 70       	andi	r25, 0x0F	; 15
    413a:	f9 01       	movw	r30, r18
    413c:	e9 0f       	add	r30, r25
    413e:	f1 1d       	adc	r31, r1
    4140:	e1 55       	subi	r30, 0x51	; 81
    4142:	fe 4f       	sbci	r31, 0xFE	; 254
    4144:	20 81       	ld	r18, Z
    4146:	90 e0       	ldi	r25, 0x00	; 0
    4148:	8f 70       	andi	r24, 0x0F	; 15
    414a:	90 70       	andi	r25, 0x00	; 0
    414c:	01 97       	sbiw	r24, 0x01	; 1
    414e:	db 01       	movw	r26, r22
    4150:	02 c0       	rjmp	.+4      	; 0x4156 <__stack+0x57>
    4152:	aa 0f       	add	r26, r26
    4154:	bb 1f       	adc	r27, r27
    4156:	8a 95       	dec	r24
    4158:	e2 f7       	brpl	.-8      	; 0x4152 <__stack+0x53>
    415a:	2a 2b       	or	r18, r26
    415c:	20 83       	st	Z, r18
    415e:	4f 5f       	subi	r20, 0xFF	; 255
    4160:	02 c0       	rjmp	.+4      	; 0x4166 <__stack+0x67>
    4162:	67 e0       	ldi	r22, 0x07	; 7
    4164:	70 e0       	ldi	r23, 0x00	; 0
    4166:	e4 2f       	mov	r30, r20
    4168:	f0 e0       	ldi	r31, 0x00	; 0
    416a:	d8 01       	movw	r26, r16
    416c:	8c 91       	ld	r24, X
    416e:	90 e0       	ldi	r25, 0x00	; 0
    4170:	01 96       	adiw	r24, 0x01	; 1
    4172:	8e 17       	cp	r24, r30
    4174:	9f 07       	cpc	r25, r31
    4176:	1c f0       	brlt	.+6      	; 0x417e <__stack+0x7f>
    4178:	48 30       	cpi	r20, 0x08	; 8
    417a:	09 f0       	breq	.+2      	; 0x417e <__stack+0x7f>
    417c:	a8 cf       	rjmp	.-176    	; 0x40ce <invader_show_loop+0x64>
    417e:	84 e0       	ldi	r24, 0x04	; 4
    4180:	0e 94 da 3e 	call	0x7db4	; 0x7db4 <cube_show_loop_wo_int>
    4184:	f8 01       	movw	r30, r16
    4186:	20 81       	ld	r18, Z
    4188:	21 50       	subi	r18, 0x01	; 1
    418a:	67 e0       	ldi	r22, 0x07	; 7
    418c:	70 e0       	ldi	r23, 0x00	; 0
    418e:	4f c0       	rjmp	.+158    	; 0x422e <__stack+0x12f>
    4190:	88 81       	ld	r24, Y
    4192:	98 2f       	mov	r25, r24
    4194:	92 95       	swap	r25
    4196:	9f 70       	andi	r25, 0x0F	; 15
    4198:	af 01       	movw	r20, r30
    419a:	33 e0       	ldi	r19, 0x03	; 3
    419c:	44 0f       	add	r20, r20
    419e:	55 1f       	adc	r21, r21
    41a0:	3a 95       	dec	r19
    41a2:	e1 f7       	brne	.-8      	; 0x419c <__stack+0x9d>
    41a4:	fa 01       	movw	r30, r20
    41a6:	e9 0f       	add	r30, r25
    41a8:	f1 1d       	adc	r31, r1
    41aa:	ef 54       	subi	r30, 0x4F	; 79
    41ac:	fe 4f       	sbci	r31, 0xFE	; 254
    41ae:	30 81       	ld	r19, Z
    41b0:	90 e0       	ldi	r25, 0x00	; 0
    41b2:	8f 70       	andi	r24, 0x0F	; 15
    41b4:	90 70       	andi	r25, 0x00	; 0
    41b6:	01 97       	sbiw	r24, 0x01	; 1
    41b8:	db 01       	movw	r26, r22
    41ba:	02 c0       	rjmp	.+4      	; 0x41c0 <__stack+0xc1>
    41bc:	aa 0f       	add	r26, r26
    41be:	bb 1f       	adc	r27, r27
    41c0:	8a 95       	dec	r24
    41c2:	e2 f7       	brpl	.-8      	; 0x41bc <__stack+0xbd>
    41c4:	cd 01       	movw	r24, r26
    41c6:	80 95       	com	r24
    41c8:	83 23       	and	r24, r19
    41ca:	80 83       	st	Z, r24
    41cc:	88 81       	ld	r24, Y
    41ce:	98 2f       	mov	r25, r24
    41d0:	92 95       	swap	r25
    41d2:	9f 70       	andi	r25, 0x0F	; 15
    41d4:	fa 01       	movw	r30, r20
    41d6:	e9 0f       	add	r30, r25
    41d8:	f1 1d       	adc	r31, r1
    41da:	e0 55       	subi	r30, 0x50	; 80
    41dc:	fe 4f       	sbci	r31, 0xFE	; 254
    41de:	30 81       	ld	r19, Z
    41e0:	90 e0       	ldi	r25, 0x00	; 0
    41e2:	8f 70       	andi	r24, 0x0F	; 15
    41e4:	90 70       	andi	r25, 0x00	; 0
    41e6:	01 97       	sbiw	r24, 0x01	; 1
    41e8:	db 01       	movw	r26, r22
    41ea:	02 c0       	rjmp	.+4      	; 0x41f0 <__stack+0xf1>
    41ec:	aa 0f       	add	r26, r26
    41ee:	bb 1f       	adc	r27, r27
    41f0:	8a 95       	dec	r24
    41f2:	e2 f7       	brpl	.-8      	; 0x41ec <__stack+0xed>
    41f4:	cd 01       	movw	r24, r26
    41f6:	80 95       	com	r24
    41f8:	83 23       	and	r24, r19
    41fa:	80 83       	st	Z, r24
    41fc:	88 81       	ld	r24, Y
    41fe:	98 2f       	mov	r25, r24
    4200:	92 95       	swap	r25
    4202:	9f 70       	andi	r25, 0x0F	; 15
    4204:	fa 01       	movw	r30, r20
    4206:	e9 0f       	add	r30, r25
    4208:	f1 1d       	adc	r31, r1
    420a:	e1 55       	subi	r30, 0x51	; 81
    420c:	fe 4f       	sbci	r31, 0xFE	; 254
    420e:	30 81       	ld	r19, Z
    4210:	90 e0       	ldi	r25, 0x00	; 0
    4212:	8f 70       	andi	r24, 0x0F	; 15
    4214:	90 70       	andi	r25, 0x00	; 0
    4216:	01 97       	sbiw	r24, 0x01	; 1
    4218:	ab 01       	movw	r20, r22
    421a:	02 c0       	rjmp	.+4      	; 0x4220 <__stack+0x121>
    421c:	44 0f       	add	r20, r20
    421e:	55 1f       	adc	r21, r21
    4220:	8a 95       	dec	r24
    4222:	e2 f7       	brpl	.-8      	; 0x421c <__stack+0x11d>
    4224:	ca 01       	movw	r24, r20
    4226:	80 95       	com	r24
    4228:	83 23       	and	r24, r19
    422a:	80 83       	st	Z, r24
    422c:	2f 5f       	subi	r18, 0xFF	; 255
    422e:	e2 2f       	mov	r30, r18
    4230:	f0 e0       	ldi	r31, 0x00	; 0
    4232:	d8 01       	movw	r26, r16
    4234:	8c 91       	ld	r24, X
    4236:	90 e0       	ldi	r25, 0x00	; 0
    4238:	01 96       	adiw	r24, 0x01	; 1
    423a:	8e 17       	cp	r24, r30
    423c:	9f 07       	cpc	r25, r31
    423e:	0c f4       	brge	.+2      	; 0x4242 <__stack+0x143>
    4240:	50 c0       	rjmp	.+160    	; 0x42e2 <__stack+0x1e3>
    4242:	28 30       	cpi	r18, 0x08	; 8
    4244:	08 f4       	brcc	.+2      	; 0x4248 <__stack+0x149>
    4246:	a4 cf       	rjmp	.-184    	; 0x4190 <__stack+0x91>
    4248:	4c c0       	rjmp	.+152    	; 0x42e2 <__stack+0x1e3>
    424a:	fb 01       	movw	r30, r22
    424c:	31 97       	sbiw	r30, 0x01	; 1
    424e:	83 e0       	ldi	r24, 0x03	; 3
    4250:	ee 0f       	add	r30, r30
    4252:	ff 1f       	adc	r31, r31
    4254:	8a 95       	dec	r24
    4256:	e1 f7       	brne	.-8      	; 0x4250 <__stack+0x151>
    4258:	ea 0f       	add	r30, r26
    425a:	fb 1f       	adc	r31, r27
    425c:	e0 55       	subi	r30, 0x50	; 80
    425e:	fe 4f       	sbci	r31, 0xFE	; 254
    4260:	30 81       	ld	r19, Z
    4262:	41 e0       	ldi	r20, 0x01	; 1
    4264:	50 e0       	ldi	r21, 0x00	; 0
    4266:	ca 01       	movw	r24, r20
    4268:	02 c0       	rjmp	.+4      	; 0x426e <__stack+0x16f>
    426a:	88 0f       	add	r24, r24
    426c:	99 1f       	adc	r25, r25
    426e:	2a 95       	dec	r18
    4270:	e2 f7       	brpl	.-8      	; 0x426a <__stack+0x16b>
    4272:	80 95       	com	r24
    4274:	83 23       	and	r24, r19
    4276:	80 83       	st	Z, r24
    4278:	d8 01       	movw	r26, r16
    427a:	ec 91       	ld	r30, X
    427c:	f0 e0       	ldi	r31, 0x00	; 0
    427e:	98 81       	ld	r25, Y
    4280:	89 2f       	mov	r24, r25
    4282:	82 95       	swap	r24
    4284:	8f 70       	andi	r24, 0x0F	; 15
    4286:	23 e0       	ldi	r18, 0x03	; 3
    4288:	ee 0f       	add	r30, r30
    428a:	ff 1f       	adc	r31, r31
    428c:	2a 95       	dec	r18
    428e:	e1 f7       	brne	.-8      	; 0x4288 <__stack+0x189>
    4290:	e8 0f       	add	r30, r24
    4292:	f1 1d       	adc	r31, r1
    4294:	e0 55       	subi	r30, 0x50	; 80
    4296:	fe 4f       	sbci	r31, 0xFE	; 254
    4298:	80 81       	ld	r24, Z
    429a:	9f 70       	andi	r25, 0x0F	; 15
    429c:	02 c0       	rjmp	.+4      	; 0x42a2 <__stack+0x1a3>
    429e:	44 0f       	add	r20, r20
    42a0:	55 1f       	adc	r21, r21
    42a2:	9a 95       	dec	r25
    42a4:	e2 f7       	brpl	.-8      	; 0x429e <__stack+0x19f>
    42a6:	84 2b       	or	r24, r20
    42a8:	18 c0       	rjmp	.+48     	; 0x42da <__stack+0x1db>
    42aa:	47 30       	cpi	r20, 0x07	; 7
    42ac:	b9 f4       	brne	.+46     	; 0x42dc <__stack+0x1dd>
    42ae:	88 81       	ld	r24, Y
    42b0:	e8 2f       	mov	r30, r24
    42b2:	e2 95       	swap	r30
    42b4:	ef 70       	andi	r30, 0x0F	; 15
    42b6:	f0 e0       	ldi	r31, 0x00	; 0
    42b8:	e0 55       	subi	r30, 0x50	; 80
    42ba:	fe 4f       	sbci	r31, 0xFE	; 254
    42bc:	20 ad       	sts	0x60, r18
    42be:	38 2f       	mov	r19, r24
    42c0:	3f 70       	andi	r19, 0x0F	; 15
    42c2:	81 e0       	ldi	r24, 0x01	; 1
    42c4:	90 e0       	ldi	r25, 0x00	; 0
    42c6:	02 c0       	rjmp	.+4      	; 0x42cc <__stack+0x1cd>
    42c8:	88 0f       	add	r24, r24
    42ca:	99 1f       	adc	r25, r25
    42cc:	3a 95       	dec	r19
    42ce:	e2 f7       	brpl	.-8      	; 0x42c8 <__stack+0x1c9>
    42d0:	80 95       	com	r24
    42d2:	82 23       	and	r24, r18
    42d4:	80 af       	sts	0x70, r24
    42d6:	88 e0       	ldi	r24, 0x08	; 8
    42d8:	f8 01       	movw	r30, r16
    42da:	80 83       	st	Z, r24
    42dc:	84 e0       	ldi	r24, 0x04	; 4
    42de:	0e 94 da 3e 	call	0x7db4	; 0x7db4 <cube_show_loop_wo_int>
    42e2:	80 91 0c 01 	lds	r24, 0x010C
    42e6:	66 e0       	ldi	r22, 0x06	; 6
    42e8:	0e 94 ea 53 	call	0xa7d4	; 0xa7d4 <__udivmodqi4>
    42ec:	99 23       	and	r25, r25
    42ee:	29 f5       	brne	.+74     	; 0x433a <__stack+0x23b>
    42f0:	d7 01       	movw	r26, r14
    42f2:	8c 91       	ld	r24, X
    42f4:	83 30       	cpi	r24, 0x03	; 3
    42f6:	64 f4       	brge	.+24     	; 0x4310 <__stack+0x211>
    42f8:	90 91 6e 01 	lds	r25, 0x016E
    42fc:	99 23       	and	r25, r25
    42fe:	31 f4       	brne	.+12     	; 0x430c <__stack+0x20d>
    4300:	f6 01       	movw	r30, r12
    4302:	80 81       	ld	r24, Z
    4304:	b7 01       	movw	r22, r14
    4306:	0e 94 6c 1e 	call	0x3cd8	; 0x3cd8 <invaders_move_right>
    430a:	0b c0       	rjmp	.+22     	; 0x4322 <__stack+0x223>
    430c:	18 16       	cp	r1, r24
    430e:	4c f4       	brge	.+18     	; 0x4322 <__stack+0x223>
    4310:	80 91 6e 01 	lds	r24, 0x016E
    4314:	81 30       	cpi	r24, 0x01	; 1
    4316:	29 f4       	brne	.+10     	; 0x4322 <__stack+0x223>
    4318:	d6 01       	movw	r26, r12
    431a:	8c 91       	ld	r24, X
    431c:	b7 01       	movw	r22, r14
    431e:	0e 94 00 1f 	call	0x3e00	; 0x3e00 <invaders_move_left>
    4322:	f7 01       	movw	r30, r14
    4324:	80 81       	ld	r24, Z
    4326:	83 30       	cpi	r24, 0x03	; 3
    4328:	21 f4       	brne	.+8      	; 0x4332 <__stack+0x233>
    432a:	81 e0       	ldi	r24, 0x01	; 1
    432c:	80 93 6e 01 	sts	0x016E, r24
    4330:	04 c0       	rjmp	.+8      	; 0x433a <__stack+0x23b>
    4332:	88 23       	and	r24, r24
    4334:	11 f4       	brne	.+4      	; 0x433a <__stack+0x23b>
    4336:	10 92 6e 01 	sts	0x016E, r1
    433a:	c0 91 0c 01 	lds	r28, 0x010C
    433e:	8c 2f       	mov	r24, r28
    4340:	8f 77       	andi	r24, 0x7F	; 127
    4342:	49 f4       	brne	.+18     	; 0x4356 <__stack+0x257>
    4344:	d6 01       	movw	r26, r12
    4346:	8c 91       	ld	r24, X
    4348:	83 30       	cpi	r24, 0x03	; 3
    434a:	28 f0       	brcs	.+10     	; 0x4356 <__stack+0x257>
    434c:	c6 01       	movw	r24, r12
    434e:	f7 01       	movw	r30, r14
    4350:	60 81       	ld	r22, Z
    4352:	0e 94 96 1f 	call	0x3f2c	; 0x3f2c <invaders_move_down>
    4356:	cf 3f       	cpi	r28, 0xFF	; 255
    4358:	21 f0       	breq	.+8      	; 0x4362 <__stack+0x263>
    435a:	cf 5f       	subi	r28, 0xFF	; 255
    435c:	c0 93 0c 01 	sts	0x010C, r28
    4360:	02 c0       	rjmp	.+4      	; 0x4366 <__stack+0x267>
    4362:	10 92 0c 01 	sts	0x010C, r1
    4366:	df 91       	pop	r29
    4368:	cf 91       	pop	r28
    436a:	1f 91       	pop	r17
    436c:	0f 91       	pop	r16
    436e:	ff 90       	pop	r15
    4370:	ef 90       	pop	r14
    4372:	df 90       	pop	r13
    4374:	cf 90       	pop	r12
    4376:	08 95       	ret

00004378 <cube_invaders>:
    4378:	af 92       	push	r10
    437a:	bf 92       	push	r11
    437c:	cf 92       	push	r12
    437e:	df 92       	push	r13
    4380:	ff 92       	push	r15
    4382:	0f 93       	push	r16
    4384:	1f 93       	push	r17
    4386:	cf 93       	push	r28
    4388:	df 93       	push	r29
    438a:	00 d0       	rcall	.+0      	; 0x438c <cube_invaders+0x14>
    438c:	00 d0       	rcall	.+0      	; 0x438e <cube_invaders+0x16>
    438e:	cd b7       	in	r28, 0x3d	; 61
    4390:	de b7       	in	r29, 0x3e	; 62
    4392:	f8 94       	cli
    4394:	0e 94 9d 3d 	call	0x7b3a	; 0x7b3a <cube_clear>
    4398:	87 e0       	ldi	r24, 0x07	; 7
    439a:	8c 83       	std	Y+4, r24	; 0x04
    439c:	81 e0       	ldi	r24, 0x01	; 1
    439e:	8b 83       	std	Y+3, r24	; 0x03
    43a0:	1a 82       	std	Y+2, r1	; 0x02
    43a2:	89 e0       	ldi	r24, 0x09	; 9
    43a4:	89 83       	std	Y+1, r24	; 0x01
    43a6:	80 91 b3 01 	lds	r24, 0x01B3
    43aa:	8c 61       	ori	r24, 0x1C	; 28
    43ac:	80 93 b3 01 	sts	0x01B3, r24
    43b0:	80 91 b4 01 	lds	r24, 0x01B4
    43b4:	8c 61       	ori	r24, 0x1C	; 28
    43b6:	80 93 b4 01 	sts	0x01B4, r24
    43ba:	80 91 b5 01 	lds	r24, 0x01B5
    43be:	8c 61       	ori	r24, 0x1C	; 28
    43c0:	80 93 b5 01 	sts	0x01B5, r24
    43c4:	80 91 bc 01 	lds	r24, 0x01BC
    43c8:	88 60       	ori	r24, 0x08	; 8
    43ca:	80 93 bc 01 	sts	0x01BC, r24
    43ce:	80 91 e1 01 	lds	r24, 0x01E1
    43d2:	8b 6d       	ori	r24, 0xDB	; 219
    43d4:	80 93 e1 01 	sts	0x01E1, r24
    43d8:	80 91 e9 01 	lds	r24, 0x01E9
    43dc:	8b 6d       	ori	r24, 0xDB	; 219
    43de:	80 93 e9 01 	sts	0x01E9, r24
    43e2:	80 91 e2 01 	lds	r24, 0x01E2
    43e6:	8b 6d       	ori	r24, 0xDB	; 219
    43e8:	80 93 e2 01 	sts	0x01E2, r24
    43ec:	80 91 ea 01 	lds	r24, 0x01EA
    43f0:	8b 6d       	ori	r24, 0xDB	; 219
    43f2:	80 93 ea 01 	sts	0x01EA, r24
    43f6:	80 91 e4 01 	lds	r24, 0x01E4
    43fa:	8b 6d       	ori	r24, 0xDB	; 219
    43fc:	80 93 e4 01 	sts	0x01E4, r24
    4400:	80 91 ec 01 	lds	r24, 0x01EC
    4404:	8b 6d       	ori	r24, 0xDB	; 219
    4406:	80 93 ec 01 	sts	0x01EC, r24
    440a:	80 91 e5 01 	lds	r24, 0x01E5
    440e:	8b 6d       	ori	r24, 0xDB	; 219
    4410:	80 93 e5 01 	sts	0x01E5, r24
    4414:	80 91 ed 01 	lds	r24, 0x01ED
    4418:	8b 6d       	ori	r24, 0xDB	; 219
    441a:	80 93 ed 01 	sts	0x01ED, r24
    441e:	13 e4       	ldi	r17, 0x43	; 67
    4420:	94 e0       	ldi	r25, 0x04	; 4
    4422:	a9 2e       	mov	r10, r25
    4424:	b1 2c       	mov	r11, r1
    4426:	22 e0       	ldi	r18, 0x02	; 2
    4428:	f2 2e       	mov	r15, r18
    442a:	31 e0       	ldi	r19, 0x01	; 1
    442c:	c3 2e       	mov	r12, r19
    442e:	d1 2c       	mov	r13, r1
    4430:	84 c0       	rjmp	.+264    	; 0x453a <cube_invaders+0x1c2>
    4432:	04 e1       	ldi	r16, 0x14	; 20
    4434:	0e 94 72 54 	call	0xa8e4	; 0xa8e4 <rand>
    4438:	b5 01       	movw	r22, r10
    443a:	0e 94 f6 53 	call	0xa7ec	; 0xa7ec <__divmodhi4>
    443e:	81 30       	cpi	r24, 0x01	; 1
    4440:	91 05       	cpc	r25, r1
    4442:	e1 f0       	breq	.+56     	; 0x447c <cube_invaders+0x104>
    4444:	82 30       	cpi	r24, 0x02	; 2
    4446:	91 05       	cpc	r25, r1
    4448:	1c f4       	brge	.+6      	; 0x4450 <cube_invaders+0xd8>
    444a:	00 97       	sbiw	r24, 0x00	; 0
    444c:	41 f0       	breq	.+16     	; 0x445e <cube_invaders+0xe6>
    444e:	42 c0       	rjmp	.+132    	; 0x44d4 <cube_invaders+0x15c>
    4450:	82 30       	cpi	r24, 0x02	; 2
    4452:	91 05       	cpc	r25, r1
    4454:	11 f1       	breq	.+68     	; 0x449a <cube_invaders+0x122>
    4456:	83 30       	cpi	r24, 0x03	; 3
    4458:	91 05       	cpc	r25, r1
    445a:	e1 f5       	brne	.+120    	; 0x44d4 <cube_invaders+0x15c>
    445c:	2d c0       	rjmp	.+90     	; 0x44b8 <cube_invaders+0x140>
    445e:	81 2f       	mov	r24, r17
    4460:	90 e0       	ldi	r25, 0x00	; 0
    4462:	80 7f       	andi	r24, 0xF0	; 240
    4464:	90 70       	andi	r25, 0x00	; 0
    4466:	80 36       	cpi	r24, 0x60	; 96
    4468:	91 05       	cpc	r25, r1
    446a:	a4 f5       	brge	.+104    	; 0x44d4 <cube_invaders+0x15c>
    446c:	80 e0       	ldi	r24, 0x00	; 0
    446e:	60 e0       	ldi	r22, 0x00	; 0
    4470:	47 e0       	ldi	r20, 0x07	; 7
    4472:	21 e0       	ldi	r18, 0x01	; 1
    4474:	0e 94 ad 50 	call	0xa15a	; 0xa15a <move_x_fwd>
    4478:	10 5f       	subi	r17, 0xF0	; 240
    447a:	2c c0       	rjmp	.+88     	; 0x44d4 <cube_invaders+0x15c>
    447c:	81 2f       	mov	r24, r17
    447e:	90 e0       	ldi	r25, 0x00	; 0
    4480:	80 7f       	andi	r24, 0xF0	; 240
    4482:	90 70       	andi	r25, 0x00	; 0
    4484:	81 31       	cpi	r24, 0x11	; 17
    4486:	91 05       	cpc	r25, r1
    4488:	2c f1       	brlt	.+74     	; 0x44d4 <cube_invaders+0x15c>
    448a:	80 e0       	ldi	r24, 0x00	; 0
    448c:	60 e0       	ldi	r22, 0x00	; 0
    448e:	47 e0       	ldi	r20, 0x07	; 7
    4490:	21 e0       	ldi	r18, 0x01	; 1
    4492:	0e 94 04 51 	call	0xa208	; 0xa208 <move_x_rev>
    4496:	10 51       	subi	r17, 0x10	; 16
    4498:	1d c0       	rjmp	.+58     	; 0x44d4 <cube_invaders+0x15c>
    449a:	81 2f       	mov	r24, r17
    449c:	90 e0       	ldi	r25, 0x00	; 0
    449e:	8f 70       	andi	r24, 0x0F	; 15
    44a0:	90 70       	andi	r25, 0x00	; 0
    44a2:	82 30       	cpi	r24, 0x02	; 2
    44a4:	91 05       	cpc	r25, r1
    44a6:	b4 f0       	brlt	.+44     	; 0x44d4 <cube_invaders+0x15c>
    44a8:	80 e0       	ldi	r24, 0x00	; 0
    44aa:	60 e0       	ldi	r22, 0x00	; 0
    44ac:	41 e0       	ldi	r20, 0x01	; 1
    44ae:	27 e0       	ldi	r18, 0x07	; 7
    44b0:	0e 94 be 4f 	call	0x9f7c	; 0x9f7c <move_z_rev>
    44b4:	11 50       	subi	r17, 0x01	; 1
    44b6:	0e c0       	rjmp	.+28     	; 0x44d4 <cube_invaders+0x15c>
    44b8:	81 2f       	mov	r24, r17
    44ba:	90 e0       	ldi	r25, 0x00	; 0
    44bc:	8f 70       	andi	r24, 0x0F	; 15
    44be:	90 70       	andi	r25, 0x00	; 0
    44c0:	86 30       	cpi	r24, 0x06	; 6
    44c2:	91 05       	cpc	r25, r1
    44c4:	3c f4       	brge	.+14     	; 0x44d4 <cube_invaders+0x15c>
    44c6:	80 e0       	ldi	r24, 0x00	; 0
    44c8:	60 e0       	ldi	r22, 0x00	; 0
    44ca:	41 e0       	ldi	r20, 0x01	; 1
    44cc:	27 e0       	ldi	r18, 0x07	; 7
    44ce:	0e 94 a5 4f 	call	0x9f4a	; 0x9f4a <move_z_fwd>
    44d2:	1f 5f       	subi	r17, 0xFF	; 255
    44d4:	ce 01       	movw	r24, r28
    44d6:	01 96       	adiw	r24, 0x01	; 1
    44d8:	be 01       	movw	r22, r28
    44da:	6e 5f       	subi	r22, 0xFE	; 254
    44dc:	7f 4f       	sbci	r23, 0xFF	; 255
    44de:	ae 01       	movw	r20, r28
    44e0:	4c 5f       	subi	r20, 0xFC	; 252
    44e2:	5f 4f       	sbci	r21, 0xFF	; 255
    44e4:	9e 01       	movw	r18, r28
    44e6:	2d 5f       	subi	r18, 0xFD	; 253
    44e8:	3f 4f       	sbci	r19, 0xFF	; 255
    44ea:	0e 94 35 20 	call	0x406a	; 0x406a <invader_show_loop>
    44ee:	ce 01       	movw	r24, r28
    44f0:	01 96       	adiw	r24, 0x01	; 1
    44f2:	be 01       	movw	r22, r28
    44f4:	6e 5f       	subi	r22, 0xFE	; 254
    44f6:	7f 4f       	sbci	r23, 0xFF	; 255
    44f8:	ae 01       	movw	r20, r28
    44fa:	4c 5f       	subi	r20, 0xFC	; 252
    44fc:	5f 4f       	sbci	r21, 0xFF	; 255
    44fe:	9e 01       	movw	r18, r28
    4500:	2d 5f       	subi	r18, 0xFD	; 253
    4502:	3f 4f       	sbci	r19, 0xFF	; 255
    4504:	0e 94 35 20 	call	0x406a	; 0x406a <invader_show_loop>
    4508:	01 50       	subi	r16, 0x01	; 1
    450a:	09 f0       	breq	.+2      	; 0x450e <cube_invaders+0x196>
    450c:	93 cf       	rjmp	.-218    	; 0x4434 <cube_invaders+0xbc>
    450e:	1a 83       	std	Y+2, r17	; 0x02
    4510:	f9 82       	std	Y+1, r15	; 0x01
    4512:	e1 2f       	mov	r30, r17
    4514:	e2 95       	swap	r30
    4516:	ef 70       	andi	r30, 0x0F	; 15
    4518:	f0 e0       	ldi	r31, 0x00	; 0
    451a:	e0 55       	subi	r30, 0x50	; 80
    451c:	fe 4f       	sbci	r31, 0xFE	; 254
    451e:	20 89       	ldd	r18, Z+16	; 0x10
    4520:	81 2f       	mov	r24, r17
    4522:	8f 70       	andi	r24, 0x0F	; 15
    4524:	a6 01       	movw	r20, r12
    4526:	02 c0       	rjmp	.+4      	; 0x452c <cube_invaders+0x1b4>
    4528:	44 0f       	add	r20, r20
    452a:	55 1f       	adc	r21, r21
    452c:	8a 95       	dec	r24
    452e:	e2 f7       	brpl	.-8      	; 0x4528 <cube_invaders+0x1b0>
    4530:	24 2b       	or	r18, r20
    4532:	20 8b       	std	Z+16, r18	; 0x10
    4534:	84 e0       	ldi	r24, 0x04	; 4
    4536:	0e 94 da 3e 	call	0x7db4	; 0x7db4 <cube_show_loop_wo_int>
    453a:	8c 81       	ldd	r24, Y+4	; 0x04
    453c:	83 30       	cpi	r24, 0x03	; 3
    453e:	08 f0       	brcs	.+2      	; 0x4542 <cube_invaders+0x1ca>
    4540:	78 cf       	rjmp	.-272    	; 0x4432 <cube_invaders+0xba>
    4542:	78 94       	sei
    4544:	0e 94 23 16 	call	0x2c46	; 0x2c46 <cube_explosion>
    4548:	80 e0       	ldi	r24, 0x00	; 0
    454a:	91 e0       	ldi	r25, 0x01	; 1
    454c:	0e 94 54 18 	call	0x30a8	; 0x30a8 <cube_string_belt>
    4550:	0e 94 9d 3d 	call	0x7b3a	; 0x7b3a <cube_clear>
    4554:	0f 90       	pop	r0
    4556:	0f 90       	pop	r0
    4558:	0f 90       	pop	r0
    455a:	0f 90       	pop	r0
    455c:	df 91       	pop	r29
    455e:	cf 91       	pop	r28
    4560:	1f 91       	pop	r17
    4562:	0f 91       	pop	r16
    4564:	ff 90       	pop	r15
    4566:	df 90       	pop	r13
    4568:	cf 90       	pop	r12
    456a:	bf 90       	pop	r11
    456c:	af 90       	pop	r10
    456e:	08 95       	ret

00004570 <inrange>:
    4570:	88 30       	cpi	r24, 0x08	; 8
    4572:	91 05       	cpc	r25, r1
    4574:	58 f4       	brcc	.+22     	; 0x458c <inrange+0x1c>
    4576:	77 fd       	sbrc	r23, 7
    4578:	09 c0       	rjmp	.+18     	; 0x458c <inrange+0x1c>
    457a:	68 30       	cpi	r22, 0x08	; 8
    457c:	71 05       	cpc	r23, r1
    457e:	34 f4       	brge	.+12     	; 0x458c <inrange+0x1c>
    4580:	57 fd       	sbrc	r21, 7
    4582:	06 c0       	rjmp	.+12     	; 0x4590 <inrange+0x20>
    4584:	81 e0       	ldi	r24, 0x01	; 1
    4586:	48 30       	cpi	r20, 0x08	; 8
    4588:	51 05       	cpc	r21, r1
    458a:	1c f0       	brlt	.+6      	; 0x4592 <inrange+0x22>
    458c:	80 e0       	ldi	r24, 0x00	; 0
    458e:	08 95       	ret
    4590:	80 e0       	ldi	r24, 0x00	; 0
    4592:	08 95       	ret

00004594 <tmpclrvoxel>:
    4594:	ef 92       	push	r14
    4596:	ff 92       	push	r15
    4598:	1f 93       	push	r17
    459a:	cf 93       	push	r28
    459c:	df 93       	push	r29
    459e:	18 2f       	mov	r17, r24
    45a0:	7b 01       	movw	r14, r22
    45a2:	ea 01       	movw	r28, r20
    45a4:	0e 94 b8 22 	call	0x4570	; 0x4570 <inrange>
    45a8:	88 23       	and	r24, r24
    45aa:	a1 f0       	breq	.+40     	; 0x45d4 <tmpclrvoxel+0x40>
    45ac:	83 e0       	ldi	r24, 0x03	; 3
    45ae:	cc 0f       	add	r28, r28
    45b0:	dd 1f       	adc	r29, r29
    45b2:	8a 95       	dec	r24
    45b4:	e1 f7       	brne	.-8      	; 0x45ae <tmpclrvoxel+0x1a>
    45b6:	ce 0d       	add	r28, r14
    45b8:	df 1d       	adc	r29, r15
    45ba:	c0 59       	subi	r28, 0x90	; 144
    45bc:	de 4f       	sbci	r29, 0xFE	; 254
    45be:	28 81       	ld	r18, Y
    45c0:	81 e0       	ldi	r24, 0x01	; 1
    45c2:	90 e0       	ldi	r25, 0x00	; 0
    45c4:	02 c0       	rjmp	.+4      	; 0x45ca <tmpclrvoxel+0x36>
    45c6:	88 0f       	add	r24, r24
    45c8:	99 1f       	adc	r25, r25
    45ca:	1a 95       	dec	r17
    45cc:	e2 f7       	brpl	.-8      	; 0x45c6 <tmpclrvoxel+0x32>
    45ce:	80 95       	com	r24
    45d0:	82 23       	and	r24, r18
    45d2:	88 83       	st	Y, r24
    45d4:	df 91       	pop	r29
    45d6:	cf 91       	pop	r28
    45d8:	1f 91       	pop	r17
    45da:	ff 90       	pop	r15
    45dc:	ef 90       	pop	r14
    45de:	08 95       	ret

000045e0 <clrvoxel>:
    45e0:	ef 92       	push	r14
    45e2:	ff 92       	push	r15
    45e4:	1f 93       	push	r17
    45e6:	cf 93       	push	r28
    45e8:	df 93       	push	r29
    45ea:	18 2f       	mov	r17, r24
    45ec:	7b 01       	movw	r14, r22
    45ee:	ea 01       	movw	r28, r20
    45f0:	0e 94 b8 22 	call	0x4570	; 0x4570 <inrange>
    45f4:	88 23       	and	r24, r24
    45f6:	a1 f0       	breq	.+40     	; 0x4620 <clrvoxel+0x40>
    45f8:	93 e0       	ldi	r25, 0x03	; 3
    45fa:	cc 0f       	add	r28, r28
    45fc:	dd 1f       	adc	r29, r29
    45fe:	9a 95       	dec	r25
    4600:	e1 f7       	brne	.-8      	; 0x45fa <clrvoxel+0x1a>
    4602:	ce 0d       	add	r28, r14
    4604:	df 1d       	adc	r29, r15
    4606:	c0 55       	subi	r28, 0x50	; 80
    4608:	de 4f       	sbci	r29, 0xFE	; 254
    460a:	28 81       	ld	r18, Y
    460c:	81 e0       	ldi	r24, 0x01	; 1
    460e:	90 e0       	ldi	r25, 0x00	; 0
    4610:	02 c0       	rjmp	.+4      	; 0x4616 <clrvoxel+0x36>
    4612:	88 0f       	add	r24, r24
    4614:	99 1f       	adc	r25, r25
    4616:	1a 95       	dec	r17
    4618:	e2 f7       	brpl	.-8      	; 0x4612 <clrvoxel+0x32>
    461a:	80 95       	com	r24
    461c:	82 23       	and	r24, r18
    461e:	88 83       	st	Y, r24
    4620:	df 91       	pop	r29
    4622:	cf 91       	pop	r28
    4624:	1f 91       	pop	r17
    4626:	ff 90       	pop	r15
    4628:	ef 90       	pop	r14
    462a:	08 95       	ret

0000462c <tmpsetvoxel>:
    462c:	ef 92       	push	r14
    462e:	ff 92       	push	r15
    4630:	1f 93       	push	r17
    4632:	cf 93       	push	r28
    4634:	df 93       	push	r29
    4636:	18 2f       	mov	r17, r24
    4638:	7b 01       	movw	r14, r22
    463a:	ea 01       	movw	r28, r20
    463c:	0e 94 b8 22 	call	0x4570	; 0x4570 <inrange>
    4640:	88 23       	and	r24, r24
    4642:	99 f0       	breq	.+38     	; 0x466a <tmpsetvoxel+0x3e>
    4644:	23 e0       	ldi	r18, 0x03	; 3
    4646:	cc 0f       	add	r28, r28
    4648:	dd 1f       	adc	r29, r29
    464a:	2a 95       	dec	r18
    464c:	e1 f7       	brne	.-8      	; 0x4646 <tmpsetvoxel+0x1a>
    464e:	ce 0d       	add	r28, r14
    4650:	df 1d       	adc	r29, r15
    4652:	c0 59       	subi	r28, 0x90	; 144
    4654:	de 4f       	sbci	r29, 0xFE	; 254
    4656:	28 81       	ld	r18, Y
    4658:	81 e0       	ldi	r24, 0x01	; 1
    465a:	90 e0       	ldi	r25, 0x00	; 0
    465c:	02 c0       	rjmp	.+4      	; 0x4662 <tmpsetvoxel+0x36>
    465e:	88 0f       	add	r24, r24
    4660:	99 1f       	adc	r25, r25
    4662:	1a 95       	dec	r17
    4664:	e2 f7       	brpl	.-8      	; 0x465e <tmpsetvoxel+0x32>
    4666:	28 2b       	or	r18, r24
    4668:	28 83       	st	Y, r18
    466a:	df 91       	pop	r29
    466c:	cf 91       	pop	r28
    466e:	1f 91       	pop	r17
    4670:	ff 90       	pop	r15
    4672:	ef 90       	pop	r14
    4674:	08 95       	ret

00004676 <setvoxel>:
    4676:	ef 92       	push	r14
    4678:	ff 92       	push	r15
    467a:	1f 93       	push	r17
    467c:	cf 93       	push	r28
    467e:	df 93       	push	r29
    4680:	18 2f       	mov	r17, r24
    4682:	7b 01       	movw	r14, r22
    4684:	ea 01       	movw	r28, r20
    4686:	0e 94 b8 22 	call	0x4570	; 0x4570 <inrange>
    468a:	88 23       	and	r24, r24
    468c:	99 f0       	breq	.+38     	; 0x46b4 <setvoxel+0x3e>
    468e:	33 e0       	ldi	r19, 0x03	; 3
    4690:	cc 0f       	add	r28, r28
    4692:	dd 1f       	adc	r29, r29
    4694:	3a 95       	dec	r19
    4696:	e1 f7       	brne	.-8      	; 0x4690 <setvoxel+0x1a>
    4698:	ce 0d       	add	r28, r14
    469a:	df 1d       	adc	r29, r15
    469c:	c0 55       	subi	r28, 0x50	; 80
    469e:	de 4f       	sbci	r29, 0xFE	; 254
    46a0:	28 81       	ld	r18, Y
    46a2:	81 e0       	ldi	r24, 0x01	; 1
    46a4:	90 e0       	ldi	r25, 0x00	; 0
    46a6:	02 c0       	rjmp	.+4      	; 0x46ac <setvoxel+0x36>
    46a8:	88 0f       	add	r24, r24
    46aa:	99 1f       	adc	r25, r25
    46ac:	1a 95       	dec	r17
    46ae:	e2 f7       	brpl	.-8      	; 0x46a8 <setvoxel+0x32>
    46b0:	28 2b       	or	r18, r24
    46b2:	28 83       	st	Y, r18
    46b4:	df 91       	pop	r29
    46b6:	cf 91       	pop	r28
    46b8:	1f 91       	pop	r17
    46ba:	ff 90       	pop	r15
    46bc:	ef 90       	pop	r14
    46be:	08 95       	ret

000046c0 <getvoxel>:
    46c0:	ef 92       	push	r14
    46c2:	ff 92       	push	r15
    46c4:	1f 93       	push	r17
    46c6:	cf 93       	push	r28
    46c8:	df 93       	push	r29
    46ca:	18 2f       	mov	r17, r24
    46cc:	7b 01       	movw	r14, r22
    46ce:	ea 01       	movw	r28, r20
    46d0:	0e 94 b8 22 	call	0x4570	; 0x4570 <inrange>
    46d4:	88 23       	and	r24, r24
    46d6:	91 f0       	breq	.+36     	; 0x46fc <getvoxel+0x3c>
    46d8:	43 e0       	ldi	r20, 0x03	; 3
    46da:	cc 0f       	add	r28, r28
    46dc:	dd 1f       	adc	r29, r29
    46de:	4a 95       	dec	r20
    46e0:	e1 f7       	brne	.-8      	; 0x46da <getvoxel+0x1a>
    46e2:	ce 0d       	add	r28, r14
    46e4:	df 1d       	adc	r29, r15
    46e6:	c0 55       	subi	r28, 0x50	; 80
    46e8:	de 4f       	sbci	r29, 0xFE	; 254
    46ea:	88 81       	ld	r24, Y
    46ec:	90 e0       	ldi	r25, 0x00	; 0
    46ee:	02 c0       	rjmp	.+4      	; 0x46f4 <getvoxel+0x34>
    46f0:	95 95       	asr	r25
    46f2:	87 95       	ror	r24
    46f4:	1a 95       	dec	r17
    46f6:	e2 f7       	brpl	.-8      	; 0x46f0 <getvoxel+0x30>
    46f8:	81 70       	andi	r24, 0x01	; 1
    46fa:	01 c0       	rjmp	.+2      	; 0x46fe <getvoxel+0x3e>
    46fc:	80 e0       	ldi	r24, 0x00	; 0
    46fe:	df 91       	pop	r29
    4700:	cf 91       	pop	r28
    4702:	1f 91       	pop	r17
    4704:	ff 90       	pop	r15
    4706:	ef 90       	pop	r14
    4708:	08 95       	ret

0000470a <altervoxel>:
    470a:	21 30       	cpi	r18, 0x01	; 1
    470c:	31 05       	cpc	r19, r1
    470e:	19 f4       	brne	.+6      	; 0x4716 <altervoxel+0xc>
    4710:	0e 94 3b 23 	call	0x4676	; 0x4676 <setvoxel>
    4714:	08 95       	ret
    4716:	0e 94 f0 22 	call	0x45e0	; 0x45e0 <clrvoxel>
    471a:	08 95       	ret

0000471c <flpvoxel>:
    471c:	ef 92       	push	r14
    471e:	ff 92       	push	r15
    4720:	1f 93       	push	r17
    4722:	cf 93       	push	r28
    4724:	df 93       	push	r29
    4726:	18 2f       	mov	r17, r24
    4728:	7b 01       	movw	r14, r22
    472a:	ea 01       	movw	r28, r20
    472c:	0e 94 b8 22 	call	0x4570	; 0x4570 <inrange>
    4730:	88 23       	and	r24, r24
    4732:	99 f0       	breq	.+38     	; 0x475a <flpvoxel+0x3e>
    4734:	53 e0       	ldi	r21, 0x03	; 3
    4736:	cc 0f       	add	r28, r28
    4738:	dd 1f       	adc	r29, r29
    473a:	5a 95       	dec	r21
    473c:	e1 f7       	brne	.-8      	; 0x4736 <flpvoxel+0x1a>
    473e:	ce 0d       	add	r28, r14
    4740:	df 1d       	adc	r29, r15
    4742:	c0 55       	subi	r28, 0x50	; 80
    4744:	de 4f       	sbci	r29, 0xFE	; 254
    4746:	28 81       	ld	r18, Y
    4748:	81 e0       	ldi	r24, 0x01	; 1
    474a:	90 e0       	ldi	r25, 0x00	; 0
    474c:	02 c0       	rjmp	.+4      	; 0x4752 <flpvoxel+0x36>
    474e:	88 0f       	add	r24, r24
    4750:	99 1f       	adc	r25, r25
    4752:	1a 95       	dec	r17
    4754:	e2 f7       	brpl	.-8      	; 0x474e <flpvoxel+0x32>
    4756:	28 27       	eor	r18, r24
    4758:	28 83       	st	Y, r18
    475a:	df 91       	pop	r29
    475c:	cf 91       	pop	r28
    475e:	1f 91       	pop	r17
    4760:	ff 90       	pop	r15
    4762:	ef 90       	pop	r14
    4764:	08 95       	ret

00004766 <argorder>:
    4766:	68 17       	cp	r22, r24
    4768:	79 07       	cpc	r23, r25
    476a:	2c f4       	brge	.+10     	; 0x4776 <argorder+0x10>
    476c:	f8 2f       	mov	r31, r24
    476e:	e9 2f       	mov	r30, r25
    4770:	cb 01       	movw	r24, r22
    4772:	6f 2f       	mov	r22, r31
    4774:	7e 2f       	mov	r23, r30
    4776:	fa 01       	movw	r30, r20
    4778:	91 83       	std	Z+1, r25	; 0x01
    477a:	80 83       	st	Z, r24
    477c:	f9 01       	movw	r30, r18
    477e:	71 83       	std	Z+1, r23	; 0x01
    4780:	60 83       	st	Z, r22
    4782:	08 95       	ret

00004784 <setplane_z>:
    4784:	88 30       	cpi	r24, 0x08	; 8
    4786:	91 05       	cpc	r25, r1
    4788:	88 f4       	brcc	.+34     	; 0x47ac <setplane_z+0x28>
    478a:	fc 01       	movw	r30, r24
    478c:	63 e0       	ldi	r22, 0x03	; 3
    478e:	ee 0f       	add	r30, r30
    4790:	ff 1f       	adc	r31, r31
    4792:	6a 95       	dec	r22
    4794:	e1 f7       	brne	.-8      	; 0x478e <setplane_z+0xa>
    4796:	e0 55       	subi	r30, 0x50	; 80
    4798:	fe 4f       	sbci	r31, 0xFE	; 254
    479a:	8f ef       	ldi	r24, 0xFF	; 255
    479c:	80 83       	st	Z, r24
    479e:	81 83       	std	Z+1, r24	; 0x01
    47a0:	82 83       	std	Z+2, r24	; 0x02
    47a2:	83 83       	std	Z+3, r24	; 0x03
    47a4:	84 83       	std	Z+4, r24	; 0x04
    47a6:	85 83       	std	Z+5, r24	; 0x05
    47a8:	86 83       	std	Z+6, r24	; 0x06
    47aa:	87 83       	std	Z+7, r24	; 0x07
    47ac:	08 95       	ret

000047ae <clrplane_z>:
    47ae:	88 30       	cpi	r24, 0x08	; 8
    47b0:	91 05       	cpc	r25, r1
    47b2:	80 f4       	brcc	.+32     	; 0x47d4 <clrplane_z+0x26>
    47b4:	fc 01       	movw	r30, r24
    47b6:	73 e0       	ldi	r23, 0x03	; 3
    47b8:	ee 0f       	add	r30, r30
    47ba:	ff 1f       	adc	r31, r31
    47bc:	7a 95       	dec	r23
    47be:	e1 f7       	brne	.-8      	; 0x47b8 <clrplane_z+0xa>
    47c0:	e0 55       	subi	r30, 0x50	; 80
    47c2:	fe 4f       	sbci	r31, 0xFE	; 254
    47c4:	10 82       	st	Z, r1
    47c6:	11 82       	std	Z+1, r1	; 0x01
    47c8:	12 82       	std	Z+2, r1	; 0x02
    47ca:	13 82       	std	Z+3, r1	; 0x03
    47cc:	14 82       	std	Z+4, r1	; 0x04
    47ce:	15 82       	std	Z+5, r1	; 0x05
    47d0:	16 82       	std	Z+6, r1	; 0x06
    47d2:	17 82       	std	Z+7, r1	; 0x07
    47d4:	08 95       	ret

000047d6 <setplane_x>:
    47d6:	88 30       	cpi	r24, 0x08	; 8
    47d8:	91 05       	cpc	r25, r1
    47da:	30 f5       	brcc	.+76     	; 0x4828 <setplane_x+0x52>
    47dc:	21 e0       	ldi	r18, 0x01	; 1
    47de:	30 e0       	ldi	r19, 0x00	; 0
    47e0:	02 c0       	rjmp	.+4      	; 0x47e6 <setplane_x+0x10>
    47e2:	22 0f       	add	r18, r18
    47e4:	33 1f       	adc	r19, r19
    47e6:	8a 95       	dec	r24
    47e8:	e2 f7       	brpl	.-8      	; 0x47e2 <setplane_x+0xc>
    47ea:	72 2f       	mov	r23, r18
    47ec:	40 e0       	ldi	r20, 0x00	; 0
    47ee:	50 e0       	ldi	r21, 0x00	; 0
    47f0:	12 c0       	rjmp	.+36     	; 0x4816 <setplane_x+0x40>
    47f2:	fc 01       	movw	r30, r24
    47f4:	e2 0f       	add	r30, r18
    47f6:	f3 1f       	adc	r31, r19
    47f8:	e0 55       	subi	r30, 0x50	; 80
    47fa:	fe 4f       	sbci	r31, 0xFE	; 254
    47fc:	60 81       	ld	r22, Z
    47fe:	67 2b       	or	r22, r23
    4800:	60 83       	st	Z, r22
    4802:	2f 5f       	subi	r18, 0xFF	; 255
    4804:	3f 4f       	sbci	r19, 0xFF	; 255
    4806:	28 30       	cpi	r18, 0x08	; 8
    4808:	31 05       	cpc	r19, r1
    480a:	99 f7       	brne	.-26     	; 0x47f2 <setplane_x+0x1c>
    480c:	4f 5f       	subi	r20, 0xFF	; 255
    480e:	5f 4f       	sbci	r21, 0xFF	; 255
    4810:	48 30       	cpi	r20, 0x08	; 8
    4812:	51 05       	cpc	r21, r1
    4814:	49 f0       	breq	.+18     	; 0x4828 <setplane_x+0x52>
    4816:	20 e0       	ldi	r18, 0x00	; 0
    4818:	30 e0       	ldi	r19, 0x00	; 0
    481a:	ca 01       	movw	r24, r20
    481c:	e3 e0       	ldi	r30, 0x03	; 3
    481e:	88 0f       	add	r24, r24
    4820:	99 1f       	adc	r25, r25
    4822:	ea 95       	dec	r30
    4824:	e1 f7       	brne	.-8      	; 0x481e <setplane_x+0x48>
    4826:	e5 cf       	rjmp	.-54     	; 0x47f2 <setplane_x+0x1c>
    4828:	08 95       	ret

0000482a <clrplane_x>:
    482a:	88 30       	cpi	r24, 0x08	; 8
    482c:	91 05       	cpc	r25, r1
    482e:	38 f5       	brcc	.+78     	; 0x487e <clrplane_x+0x54>
    4830:	21 e0       	ldi	r18, 0x01	; 1
    4832:	30 e0       	ldi	r19, 0x00	; 0
    4834:	02 c0       	rjmp	.+4      	; 0x483a <clrplane_x+0x10>
    4836:	22 0f       	add	r18, r18
    4838:	33 1f       	adc	r19, r19
    483a:	8a 95       	dec	r24
    483c:	e2 f7       	brpl	.-8      	; 0x4836 <clrplane_x+0xc>
    483e:	72 2f       	mov	r23, r18
    4840:	70 95       	com	r23
    4842:	40 e0       	ldi	r20, 0x00	; 0
    4844:	50 e0       	ldi	r21, 0x00	; 0
    4846:	12 c0       	rjmp	.+36     	; 0x486c <clrplane_x+0x42>
    4848:	fc 01       	movw	r30, r24
    484a:	e2 0f       	add	r30, r18
    484c:	f3 1f       	adc	r31, r19
    484e:	e0 55       	subi	r30, 0x50	; 80
    4850:	fe 4f       	sbci	r31, 0xFE	; 254
    4852:	60 81       	ld	r22, Z
    4854:	67 23       	and	r22, r23
    4856:	60 83       	st	Z, r22
    4858:	2f 5f       	subi	r18, 0xFF	; 255
    485a:	3f 4f       	sbci	r19, 0xFF	; 255
    485c:	28 30       	cpi	r18, 0x08	; 8
    485e:	31 05       	cpc	r19, r1
    4860:	99 f7       	brne	.-26     	; 0x4848 <clrplane_x+0x1e>
    4862:	4f 5f       	subi	r20, 0xFF	; 255
    4864:	5f 4f       	sbci	r21, 0xFF	; 255
    4866:	48 30       	cpi	r20, 0x08	; 8
    4868:	51 05       	cpc	r21, r1
    486a:	49 f0       	breq	.+18     	; 0x487e <clrplane_x+0x54>
    486c:	20 e0       	ldi	r18, 0x00	; 0
    486e:	30 e0       	ldi	r19, 0x00	; 0
    4870:	ca 01       	movw	r24, r20
    4872:	f3 e0       	ldi	r31, 0x03	; 3
    4874:	88 0f       	add	r24, r24
    4876:	99 1f       	adc	r25, r25
    4878:	fa 95       	dec	r31
    487a:	e1 f7       	brne	.-8      	; 0x4874 <clrplane_x+0x4a>
    487c:	e5 cf       	rjmp	.-54     	; 0x4848 <clrplane_x+0x1e>
    487e:	08 95       	ret

00004880 <setplane_y>:
    4880:	88 30       	cpi	r24, 0x08	; 8
    4882:	91 05       	cpc	r25, r1
    4884:	60 f4       	brcc	.+24     	; 0x489e <setplane_y+0x1e>
    4886:	fc 01       	movw	r30, r24
    4888:	e0 55       	subi	r30, 0x50	; 80
    488a:	fe 4f       	sbci	r31, 0xFE	; 254
    488c:	8f ef       	ldi	r24, 0xFF	; 255
    488e:	80 83       	st	Z, r24
    4890:	80 87       	std	Z+8, r24	; 0x08
    4892:	80 8b       	std	Z+16, r24	; 0x10
    4894:	80 8f       	std	Z+24, r24	; 0x18
    4896:	80 a3       	lds	r24, 0x50
    4898:	80 a7       	lds	r24, 0x70
    489a:	80 ab       	sts	0x50, r24
    489c:	80 af       	sts	0x70, r24
    489e:	08 95       	ret

000048a0 <clrplane_y>:
    48a0:	88 30       	cpi	r24, 0x08	; 8
    48a2:	91 05       	cpc	r25, r1
    48a4:	58 f4       	brcc	.+22     	; 0x48bc <clrplane_y+0x1c>
    48a6:	fc 01       	movw	r30, r24
    48a8:	e0 55       	subi	r30, 0x50	; 80
    48aa:	fe 4f       	sbci	r31, 0xFE	; 254
    48ac:	10 82       	st	Z, r1
    48ae:	10 86       	std	Z+8, r1	; 0x08
    48b0:	10 8a       	std	Z+16, r1	; 0x10
    48b2:	10 8e       	std	Z+24, r1	; 0x18
    48b4:	10 a2       	lds	r17, 0x90
    48b6:	10 a6       	lds	r17, 0xb0
    48b8:	10 aa       	sts	0x90, r17
    48ba:	10 ae       	sts	0xb0, r17
    48bc:	08 95       	ret

000048be <setplane>:
    48be:	98 2f       	mov	r25, r24
    48c0:	86 2f       	mov	r24, r22
    48c2:	99 37       	cpi	r25, 0x79	; 121
    48c4:	41 f0       	breq	.+16     	; 0x48d6 <setplane+0x18>
    48c6:	9a 37       	cpi	r25, 0x7A	; 122
    48c8:	51 f0       	breq	.+20     	; 0x48de <setplane+0x20>
    48ca:	98 37       	cpi	r25, 0x78	; 120
    48cc:	59 f4       	brne	.+22     	; 0x48e4 <setplane+0x26>
    48ce:	90 e0       	ldi	r25, 0x00	; 0
    48d0:	0e 94 eb 23 	call	0x47d6	; 0x47d6 <setplane_x>
    48d4:	08 95       	ret
    48d6:	90 e0       	ldi	r25, 0x00	; 0
    48d8:	0e 94 40 24 	call	0x4880	; 0x4880 <setplane_y>
    48dc:	08 95       	ret
    48de:	90 e0       	ldi	r25, 0x00	; 0
    48e0:	0e 94 c2 23 	call	0x4784	; 0x4784 <setplane_z>
    48e4:	08 95       	ret

000048e6 <clrplane>:
    48e6:	98 2f       	mov	r25, r24
    48e8:	86 2f       	mov	r24, r22
    48ea:	99 37       	cpi	r25, 0x79	; 121
    48ec:	41 f0       	breq	.+16     	; 0x48fe <clrplane+0x18>
    48ee:	9a 37       	cpi	r25, 0x7A	; 122
    48f0:	51 f0       	breq	.+20     	; 0x4906 <clrplane+0x20>
    48f2:	98 37       	cpi	r25, 0x78	; 120
    48f4:	59 f4       	brne	.+22     	; 0x490c <clrplane+0x26>
    48f6:	90 e0       	ldi	r25, 0x00	; 0
    48f8:	0e 94 15 24 	call	0x482a	; 0x482a <clrplane_x>
    48fc:	08 95       	ret
    48fe:	90 e0       	ldi	r25, 0x00	; 0
    4900:	0e 94 50 24 	call	0x48a0	; 0x48a0 <clrplane_y>
    4904:	08 95       	ret
    4906:	90 e0       	ldi	r25, 0x00	; 0
    4908:	0e 94 d7 23 	call	0x47ae	; 0x47ae <clrplane_z>
    490c:	08 95       	ret

0000490e <fill>:
    490e:	20 e0       	ldi	r18, 0x00	; 0
    4910:	30 e0       	ldi	r19, 0x00	; 0
    4912:	f9 01       	movw	r30, r18
    4914:	a3 e0       	ldi	r26, 0x03	; 3
    4916:	ee 0f       	add	r30, r30
    4918:	ff 1f       	adc	r31, r31
    491a:	aa 95       	dec	r26
    491c:	e1 f7       	brne	.-8      	; 0x4916 <fill+0x8>
    491e:	e0 55       	subi	r30, 0x50	; 80
    4920:	fe 4f       	sbci	r31, 0xFE	; 254
    4922:	80 83       	st	Z, r24
    4924:	81 83       	std	Z+1, r24	; 0x01
    4926:	82 83       	std	Z+2, r24	; 0x02
    4928:	83 83       	std	Z+3, r24	; 0x03
    492a:	84 83       	std	Z+4, r24	; 0x04
    492c:	85 83       	std	Z+5, r24	; 0x05
    492e:	86 83       	std	Z+6, r24	; 0x06
    4930:	87 83       	std	Z+7, r24	; 0x07
    4932:	2f 5f       	subi	r18, 0xFF	; 255
    4934:	3f 4f       	sbci	r19, 0xFF	; 255
    4936:	28 30       	cpi	r18, 0x08	; 8
    4938:	31 05       	cpc	r19, r1
    493a:	59 f7       	brne	.-42     	; 0x4912 <fill+0x4>
    493c:	08 95       	ret

0000493e <tmpfill>:
    493e:	20 e0       	ldi	r18, 0x00	; 0
    4940:	30 e0       	ldi	r19, 0x00	; 0
    4942:	f9 01       	movw	r30, r18
    4944:	b3 e0       	ldi	r27, 0x03	; 3
    4946:	ee 0f       	add	r30, r30
    4948:	ff 1f       	adc	r31, r31
    494a:	ba 95       	dec	r27
    494c:	e1 f7       	brne	.-8      	; 0x4946 <tmpfill+0x8>
    494e:	e0 59       	subi	r30, 0x90	; 144
    4950:	fe 4f       	sbci	r31, 0xFE	; 254
    4952:	80 83       	st	Z, r24
    4954:	81 83       	std	Z+1, r24	; 0x01
    4956:	82 83       	std	Z+2, r24	; 0x02
    4958:	83 83       	std	Z+3, r24	; 0x03
    495a:	84 83       	std	Z+4, r24	; 0x04
    495c:	85 83       	std	Z+5, r24	; 0x05
    495e:	86 83       	std	Z+6, r24	; 0x06
    4960:	87 83       	std	Z+7, r24	; 0x07
    4962:	2f 5f       	subi	r18, 0xFF	; 255
    4964:	3f 4f       	sbci	r19, 0xFF	; 255
    4966:	28 30       	cpi	r18, 0x08	; 8
    4968:	31 05       	cpc	r19, r1
    496a:	59 f7       	brne	.-42     	; 0x4942 <tmpfill+0x4>
    496c:	08 95       	ret

0000496e <byteline>:
    496e:	6f 5f       	subi	r22, 0xFF	; 255
    4970:	7f 4f       	sbci	r23, 0xFF	; 255
    4972:	2f ef       	ldi	r18, 0xFF	; 255
    4974:	30 e0       	ldi	r19, 0x00	; 0
    4976:	a9 01       	movw	r20, r18
    4978:	02 c0       	rjmp	.+4      	; 0x497e <byteline+0x10>
    497a:	44 0f       	add	r20, r20
    497c:	55 1f       	adc	r21, r21
    497e:	6a 95       	dec	r22
    4980:	e2 f7       	brpl	.-8      	; 0x497a <byteline+0xc>
    4982:	ba 01       	movw	r22, r20
    4984:	60 95       	com	r22
    4986:	02 c0       	rjmp	.+4      	; 0x498c <byteline+0x1e>
    4988:	22 0f       	add	r18, r18
    498a:	33 1f       	adc	r19, r19
    498c:	8a 95       	dec	r24
    498e:	e2 f7       	brpl	.-8      	; 0x4988 <byteline+0x1a>
    4990:	86 2f       	mov	r24, r22
    4992:	82 23       	and	r24, r18
    4994:	08 95       	ret

00004996 <box_wireframe>:
    4996:	6f 92       	push	r6
    4998:	7f 92       	push	r7
    499a:	8f 92       	push	r8
    499c:	9f 92       	push	r9
    499e:	af 92       	push	r10
    49a0:	bf 92       	push	r11
    49a2:	cf 92       	push	r12
    49a4:	df 92       	push	r13
    49a6:	ef 92       	push	r14
    49a8:	ff 92       	push	r15
    49aa:	0f 93       	push	r16
    49ac:	1f 93       	push	r17
    49ae:	cf 93       	push	r28
    49b0:	df 93       	push	r29
    49b2:	4c 01       	movw	r8, r24
    49b4:	5b 01       	movw	r10, r22
    49b6:	3a 01       	movw	r6, r20
    49b8:	69 01       	movw	r12, r18
    49ba:	28 17       	cp	r18, r24
    49bc:	39 07       	cpc	r19, r25
    49be:	2c f4       	brge	.+10     	; 0x49ca <box_wireframe+0x34>
    49c0:	98 2f       	mov	r25, r24
    49c2:	89 2d       	mov	r24, r9
    49c4:	49 01       	movw	r8, r18
    49c6:	c9 2e       	mov	r12, r25
    49c8:	d8 2e       	mov	r13, r24
    49ca:	0a 15       	cp	r16, r10
    49cc:	1b 05       	cpc	r17, r11
    49ce:	2c f4       	brge	.+10     	; 0x49da <box_wireframe+0x44>
    49d0:	9a 2d       	mov	r25, r10
    49d2:	8b 2d       	mov	r24, r11
    49d4:	58 01       	movw	r10, r16
    49d6:	09 2f       	mov	r16, r25
    49d8:	18 2f       	mov	r17, r24
    49da:	e6 14       	cp	r14, r6
    49dc:	f7 04       	cpc	r15, r7
    49de:	2c f4       	brge	.+10     	; 0x49ea <box_wireframe+0x54>
    49e0:	96 2d       	mov	r25, r6
    49e2:	87 2d       	mov	r24, r7
    49e4:	37 01       	movw	r6, r14
    49e6:	e9 2e       	mov	r14, r25
    49e8:	f8 2e       	mov	r15, r24
    49ea:	c4 01       	movw	r24, r8
    49ec:	b6 01       	movw	r22, r12
    49ee:	0e 94 b7 24 	call	0x496e	; 0x496e <byteline>
    49f2:	28 2f       	mov	r18, r24
    49f4:	c3 01       	movw	r24, r6
    49f6:	c3 e0       	ldi	r28, 0x03	; 3
    49f8:	88 0f       	add	r24, r24
    49fa:	99 1f       	adc	r25, r25
    49fc:	ca 95       	dec	r28
    49fe:	e1 f7       	brne	.-8      	; 0x49f8 <box_wireframe+0x62>
    4a00:	fc 01       	movw	r30, r24
    4a02:	ea 0d       	add	r30, r10
    4a04:	fb 1d       	adc	r31, r11
    4a06:	e0 55       	subi	r30, 0x50	; 80
    4a08:	fe 4f       	sbci	r31, 0xFE	; 254
    4a0a:	20 83       	st	Z, r18
    4a0c:	fc 01       	movw	r30, r24
    4a0e:	e0 0f       	add	r30, r16
    4a10:	f1 1f       	adc	r31, r17
    4a12:	e0 55       	subi	r30, 0x50	; 80
    4a14:	fe 4f       	sbci	r31, 0xFE	; 254
    4a16:	20 83       	st	Z, r18
    4a18:	c7 01       	movw	r24, r14
    4a1a:	d3 e0       	ldi	r29, 0x03	; 3
    4a1c:	88 0f       	add	r24, r24
    4a1e:	99 1f       	adc	r25, r25
    4a20:	da 95       	dec	r29
    4a22:	e1 f7       	brne	.-8      	; 0x4a1c <box_wireframe+0x86>
    4a24:	fc 01       	movw	r30, r24
    4a26:	ea 0d       	add	r30, r10
    4a28:	fb 1d       	adc	r31, r11
    4a2a:	e0 55       	subi	r30, 0x50	; 80
    4a2c:	fe 4f       	sbci	r31, 0xFE	; 254
    4a2e:	20 83       	st	Z, r18
    4a30:	fc 01       	movw	r30, r24
    4a32:	e0 0f       	add	r30, r16
    4a34:	f1 1f       	adc	r31, r17
    4a36:	e0 55       	subi	r30, 0x50	; 80
    4a38:	fe 4f       	sbci	r31, 0xFE	; 254
    4a3a:	20 83       	st	Z, r18
    4a3c:	e5 01       	movw	r28, r10
    4a3e:	15 c0       	rjmp	.+42     	; 0x4a6a <box_wireframe+0xd4>
    4a40:	c4 01       	movw	r24, r8
    4a42:	be 01       	movw	r22, r28
    4a44:	a3 01       	movw	r20, r6
    4a46:	0e 94 3b 23 	call	0x4676	; 0x4676 <setvoxel>
    4a4a:	c4 01       	movw	r24, r8
    4a4c:	be 01       	movw	r22, r28
    4a4e:	a7 01       	movw	r20, r14
    4a50:	0e 94 3b 23 	call	0x4676	; 0x4676 <setvoxel>
    4a54:	c6 01       	movw	r24, r12
    4a56:	be 01       	movw	r22, r28
    4a58:	a3 01       	movw	r20, r6
    4a5a:	0e 94 3b 23 	call	0x4676	; 0x4676 <setvoxel>
    4a5e:	c6 01       	movw	r24, r12
    4a60:	be 01       	movw	r22, r28
    4a62:	a7 01       	movw	r20, r14
    4a64:	0e 94 3b 23 	call	0x4676	; 0x4676 <setvoxel>
    4a68:	21 96       	adiw	r28, 0x01	; 1
    4a6a:	0c 17       	cp	r16, r28
    4a6c:	1d 07       	cpc	r17, r29
    4a6e:	44 f7       	brge	.-48     	; 0x4a40 <box_wireframe+0xaa>
    4a70:	e3 01       	movw	r28, r6
    4a72:	15 c0       	rjmp	.+42     	; 0x4a9e <box_wireframe+0x108>
    4a74:	c4 01       	movw	r24, r8
    4a76:	b5 01       	movw	r22, r10
    4a78:	ae 01       	movw	r20, r28
    4a7a:	0e 94 3b 23 	call	0x4676	; 0x4676 <setvoxel>
    4a7e:	c4 01       	movw	r24, r8
    4a80:	b8 01       	movw	r22, r16
    4a82:	ae 01       	movw	r20, r28
    4a84:	0e 94 3b 23 	call	0x4676	; 0x4676 <setvoxel>
    4a88:	c6 01       	movw	r24, r12
    4a8a:	b5 01       	movw	r22, r10
    4a8c:	ae 01       	movw	r20, r28
    4a8e:	0e 94 3b 23 	call	0x4676	; 0x4676 <setvoxel>
    4a92:	c6 01       	movw	r24, r12
    4a94:	b8 01       	movw	r22, r16
    4a96:	ae 01       	movw	r20, r28
    4a98:	0e 94 3b 23 	call	0x4676	; 0x4676 <setvoxel>
    4a9c:	21 96       	adiw	r28, 0x01	; 1
    4a9e:	ec 16       	cp	r14, r28
    4aa0:	fd 06       	cpc	r15, r29
    4aa2:	44 f7       	brge	.-48     	; 0x4a74 <box_wireframe+0xde>
    4aa4:	df 91       	pop	r29
    4aa6:	cf 91       	pop	r28
    4aa8:	1f 91       	pop	r17
    4aaa:	0f 91       	pop	r16
    4aac:	ff 90       	pop	r15
    4aae:	ef 90       	pop	r14
    4ab0:	df 90       	pop	r13
    4ab2:	cf 90       	pop	r12
    4ab4:	bf 90       	pop	r11
    4ab6:	af 90       	pop	r10
    4ab8:	9f 90       	pop	r9
    4aba:	8f 90       	pop	r8
    4abc:	7f 90       	pop	r7
    4abe:	6f 90       	pop	r6
    4ac0:	08 95       	ret

00004ac2 <box_walls>:
    4ac2:	2f 92       	push	r2
    4ac4:	3f 92       	push	r3
    4ac6:	4f 92       	push	r4
    4ac8:	5f 92       	push	r5
    4aca:	6f 92       	push	r6
    4acc:	7f 92       	push	r7
    4ace:	8f 92       	push	r8
    4ad0:	9f 92       	push	r9
    4ad2:	af 92       	push	r10
    4ad4:	bf 92       	push	r11
    4ad6:	cf 92       	push	r12
    4ad8:	df 92       	push	r13
    4ada:	ef 92       	push	r14
    4adc:	ff 92       	push	r15
    4ade:	0f 93       	push	r16
    4ae0:	1f 93       	push	r17
    4ae2:	cf 93       	push	r28
    4ae4:	df 93       	push	r29
    4ae6:	00 d0       	rcall	.+0      	; 0x4ae8 <box_walls+0x26>
    4ae8:	0f 92       	push	r0
    4aea:	cd b7       	in	r28, 0x3d	; 61
    4aec:	de b7       	in	r29, 0x3e	; 62
    4aee:	2c 01       	movw	r4, r24
    4af0:	4b 01       	movw	r8, r22
    4af2:	5a 01       	movw	r10, r20
    4af4:	39 01       	movw	r6, r18
    4af6:	68 01       	movw	r12, r16
    4af8:	28 17       	cp	r18, r24
    4afa:	39 07       	cpc	r19, r25
    4afc:	2c f4       	brge	.+10     	; 0x4b08 <box_walls+0x46>
    4afe:	98 2f       	mov	r25, r24
    4b00:	85 2d       	mov	r24, r5
    4b02:	29 01       	movw	r4, r18
    4b04:	69 2e       	mov	r6, r25
    4b06:	78 2e       	mov	r7, r24
    4b08:	c8 14       	cp	r12, r8
    4b0a:	d9 04       	cpc	r13, r9
    4b0c:	2c f4       	brge	.+10     	; 0x4b18 <box_walls+0x56>
    4b0e:	98 2d       	mov	r25, r8
    4b10:	89 2d       	mov	r24, r9
    4b12:	46 01       	movw	r8, r12
    4b14:	c9 2e       	mov	r12, r25
    4b16:	d8 2e       	mov	r13, r24
    4b18:	ea 14       	cp	r14, r10
    4b1a:	fb 04       	cpc	r15, r11
    4b1c:	2c f4       	brge	.+10     	; 0x4b28 <box_walls+0x66>
    4b1e:	9a 2d       	mov	r25, r10
    4b20:	8b 2d       	mov	r24, r11
    4b22:	57 01       	movw	r10, r14
    4b24:	e9 2e       	mov	r14, r25
    4b26:	f8 2e       	mov	r15, r24
    4b28:	81 e0       	ldi	r24, 0x01	; 1
    4b2a:	90 e0       	ldi	r25, 0x00	; 0
    4b2c:	9c 01       	movw	r18, r24
    4b2e:	06 2c       	mov	r0, r6
    4b30:	02 c0       	rjmp	.+4      	; 0x4b36 <box_walls+0x74>
    4b32:	22 0f       	add	r18, r18
    4b34:	33 1f       	adc	r19, r19
    4b36:	0a 94       	dec	r0
    4b38:	e2 f7       	brpl	.-8      	; 0x4b32 <box_walls+0x70>
    4b3a:	04 2c       	mov	r0, r4
    4b3c:	02 c0       	rjmp	.+4      	; 0x4b42 <box_walls+0x80>
    4b3e:	88 0f       	add	r24, r24
    4b40:	99 1f       	adc	r25, r25
    4b42:	0a 94       	dec	r0
    4b44:	e2 f7       	brpl	.-8      	; 0x4b3e <box_walls+0x7c>
    4b46:	28 2b       	or	r18, r24
    4b48:	85 01       	movw	r16, r10
    4b4a:	2c c0       	rjmp	.+88     	; 0x4ba4 <box_walls+0xe2>
    4b4c:	48 15       	cp	r20, r8
    4b4e:	59 05       	cpc	r21, r9
    4b50:	49 f0       	breq	.+18     	; 0x4b64 <box_walls+0xa2>
    4b52:	4c 15       	cp	r20, r12
    4b54:	5d 05       	cpc	r21, r13
    4b56:	31 f0       	breq	.+12     	; 0x4b64 <box_walls+0xa2>
    4b58:	0a 15       	cp	r16, r10
    4b5a:	1b 05       	cpc	r17, r11
    4b5c:	19 f0       	breq	.+6      	; 0x4b64 <box_walls+0xa2>
    4b5e:	0e 15       	cp	r16, r14
    4b60:	1f 05       	cpc	r17, r15
    4b62:	89 f4       	brne	.+34     	; 0x4b86 <box_walls+0xc4>
    4b64:	c2 01       	movw	r24, r4
    4b66:	b3 01       	movw	r22, r6
    4b68:	2b 83       	std	Y+3, r18	; 0x03
    4b6a:	49 83       	std	Y+1, r20	; 0x01
    4b6c:	5a 83       	std	Y+2, r21	; 0x02
    4b6e:	0e 94 b7 24 	call	0x496e	; 0x496e <byteline>
    4b72:	49 81       	ldd	r20, Y+1	; 0x01
    4b74:	5a 81       	ldd	r21, Y+2	; 0x02
    4b76:	f1 01       	movw	r30, r2
    4b78:	e4 0f       	add	r30, r20
    4b7a:	f5 1f       	adc	r31, r21
    4b7c:	e0 55       	subi	r30, 0x50	; 80
    4b7e:	fe 4f       	sbci	r31, 0xFE	; 254
    4b80:	80 83       	st	Z, r24
    4b82:	2b 81       	ldd	r18, Y+3	; 0x03
    4b84:	08 c0       	rjmp	.+16     	; 0x4b96 <box_walls+0xd4>
    4b86:	f1 01       	movw	r30, r2
    4b88:	e4 0f       	add	r30, r20
    4b8a:	f5 1f       	adc	r31, r21
    4b8c:	e0 55       	subi	r30, 0x50	; 80
    4b8e:	fe 4f       	sbci	r31, 0xFE	; 254
    4b90:	80 81       	ld	r24, Z
    4b92:	82 2b       	or	r24, r18
    4b94:	80 83       	st	Z, r24
    4b96:	4f 5f       	subi	r20, 0xFF	; 255
    4b98:	5f 4f       	sbci	r21, 0xFF	; 255
    4b9a:	c4 16       	cp	r12, r20
    4b9c:	d5 06       	cpc	r13, r21
    4b9e:	b4 f6       	brge	.-84     	; 0x4b4c <box_walls+0x8a>
    4ba0:	0f 5f       	subi	r16, 0xFF	; 255
    4ba2:	1f 4f       	sbci	r17, 0xFF	; 255
    4ba4:	e0 16       	cp	r14, r16
    4ba6:	f1 06       	cpc	r15, r17
    4ba8:	44 f0       	brlt	.+16     	; 0x4bba <box_walls+0xf8>
    4baa:	a4 01       	movw	r20, r8
    4bac:	18 01       	movw	r2, r16
    4bae:	83 e0       	ldi	r24, 0x03	; 3
    4bb0:	22 0c       	add	r2, r2
    4bb2:	33 1c       	adc	r3, r3
    4bb4:	8a 95       	dec	r24
    4bb6:	e1 f7       	brne	.-8      	; 0x4bb0 <box_walls+0xee>
    4bb8:	f0 cf       	rjmp	.-32     	; 0x4b9a <box_walls+0xd8>
    4bba:	0f 90       	pop	r0
    4bbc:	0f 90       	pop	r0
    4bbe:	0f 90       	pop	r0
    4bc0:	df 91       	pop	r29
    4bc2:	cf 91       	pop	r28
    4bc4:	1f 91       	pop	r17
    4bc6:	0f 91       	pop	r16
    4bc8:	ff 90       	pop	r15
    4bca:	ef 90       	pop	r14
    4bcc:	df 90       	pop	r13
    4bce:	cf 90       	pop	r12
    4bd0:	bf 90       	pop	r11
    4bd2:	af 90       	pop	r10
    4bd4:	9f 90       	pop	r9
    4bd6:	8f 90       	pop	r8
    4bd8:	7f 90       	pop	r7
    4bda:	6f 90       	pop	r6
    4bdc:	5f 90       	pop	r5
    4bde:	4f 90       	pop	r4
    4be0:	3f 90       	pop	r3
    4be2:	2f 90       	pop	r2
    4be4:	08 95       	ret

00004be6 <box_filled>:
    4be6:	2f 92       	push	r2
    4be8:	3f 92       	push	r3
    4bea:	4f 92       	push	r4
    4bec:	5f 92       	push	r5
    4bee:	6f 92       	push	r6
    4bf0:	7f 92       	push	r7
    4bf2:	8f 92       	push	r8
    4bf4:	9f 92       	push	r9
    4bf6:	af 92       	push	r10
    4bf8:	bf 92       	push	r11
    4bfa:	cf 92       	push	r12
    4bfc:	df 92       	push	r13
    4bfe:	ef 92       	push	r14
    4c00:	ff 92       	push	r15
    4c02:	0f 93       	push	r16
    4c04:	1f 93       	push	r17
    4c06:	cf 93       	push	r28
    4c08:	df 93       	push	r29
    4c0a:	00 d0       	rcall	.+0      	; 0x4c0c <box_filled+0x26>
    4c0c:	0f 92       	push	r0
    4c0e:	cd b7       	in	r28, 0x3d	; 61
    4c10:	de b7       	in	r29, 0x3e	; 62
    4c12:	1c 01       	movw	r2, r24
    4c14:	2b 01       	movw	r4, r22
    4c16:	39 01       	movw	r6, r18
    4c18:	48 01       	movw	r8, r16
    4c1a:	57 01       	movw	r10, r14
    4c1c:	28 17       	cp	r18, r24
    4c1e:	39 07       	cpc	r19, r25
    4c20:	2c f4       	brge	.+10     	; 0x4c2c <box_filled+0x46>
    4c22:	98 2f       	mov	r25, r24
    4c24:	83 2d       	mov	r24, r3
    4c26:	19 01       	movw	r2, r18
    4c28:	69 2e       	mov	r6, r25
    4c2a:	78 2e       	mov	r7, r24
    4c2c:	84 14       	cp	r8, r4
    4c2e:	95 04       	cpc	r9, r5
    4c30:	2c f4       	brge	.+10     	; 0x4c3c <box_filled+0x56>
    4c32:	94 2d       	mov	r25, r4
    4c34:	85 2d       	mov	r24, r5
    4c36:	24 01       	movw	r4, r8
    4c38:	89 2e       	mov	r8, r25
    4c3a:	98 2e       	mov	r9, r24
    4c3c:	a4 16       	cp	r10, r20
    4c3e:	b5 06       	cpc	r11, r21
    4c40:	2c f4       	brge	.+10     	; 0x4c4c <box_filled+0x66>
    4c42:	94 2f       	mov	r25, r20
    4c44:	85 2f       	mov	r24, r21
    4c46:	a5 01       	movw	r20, r10
    4c48:	a9 2e       	mov	r10, r25
    4c4a:	b8 2e       	mov	r11, r24
    4c4c:	6a 01       	movw	r12, r20
    4c4e:	1d c0       	rjmp	.+58     	; 0x4c8a <box_filled+0xa4>
    4c50:	89 01       	movw	r16, r18
    4c52:	0e 0d       	add	r16, r14
    4c54:	1f 1d       	adc	r17, r15
    4c56:	00 55       	subi	r16, 0x50	; 80
    4c58:	1e 4f       	sbci	r17, 0xFE	; 254
    4c5a:	f8 01       	movw	r30, r16
    4c5c:	40 81       	ld	r20, Z
    4c5e:	c1 01       	movw	r24, r2
    4c60:	b3 01       	movw	r22, r6
    4c62:	2a 83       	std	Y+2, r18	; 0x02
    4c64:	3b 83       	std	Y+3, r19	; 0x03
    4c66:	49 83       	std	Y+1, r20	; 0x01
    4c68:	0e 94 b7 24 	call	0x496e	; 0x496e <byteline>
    4c6c:	49 81       	ldd	r20, Y+1	; 0x01
    4c6e:	84 2b       	or	r24, r20
    4c70:	f8 01       	movw	r30, r16
    4c72:	80 83       	st	Z, r24
    4c74:	08 94       	sec
    4c76:	e1 1c       	adc	r14, r1
    4c78:	f1 1c       	adc	r15, r1
    4c7a:	3b 81       	ldd	r19, Y+3	; 0x03
    4c7c:	2a 81       	ldd	r18, Y+2	; 0x02
    4c7e:	8e 14       	cp	r8, r14
    4c80:	9f 04       	cpc	r9, r15
    4c82:	34 f7       	brge	.-52     	; 0x4c50 <box_filled+0x6a>
    4c84:	08 94       	sec
    4c86:	c1 1c       	adc	r12, r1
    4c88:	d1 1c       	adc	r13, r1
    4c8a:	ac 14       	cp	r10, r12
    4c8c:	bd 04       	cpc	r11, r13
    4c8e:	44 f0       	brlt	.+16     	; 0x4ca0 <box_filled+0xba>
    4c90:	72 01       	movw	r14, r4
    4c92:	96 01       	movw	r18, r12
    4c94:	93 e0       	ldi	r25, 0x03	; 3
    4c96:	22 0f       	add	r18, r18
    4c98:	33 1f       	adc	r19, r19
    4c9a:	9a 95       	dec	r25
    4c9c:	e1 f7       	brne	.-8      	; 0x4c96 <box_filled+0xb0>
    4c9e:	ef cf       	rjmp	.-34     	; 0x4c7e <box_filled+0x98>
    4ca0:	0f 90       	pop	r0
    4ca2:	0f 90       	pop	r0
    4ca4:	0f 90       	pop	r0
    4ca6:	df 91       	pop	r29
    4ca8:	cf 91       	pop	r28
    4caa:	1f 91       	pop	r17
    4cac:	0f 91       	pop	r16
    4cae:	ff 90       	pop	r15
    4cb0:	ef 90       	pop	r14
    4cb2:	df 90       	pop	r13
    4cb4:	cf 90       	pop	r12
    4cb6:	bf 90       	pop	r11
    4cb8:	af 90       	pop	r10
    4cba:	9f 90       	pop	r9
    4cbc:	8f 90       	pop	r8
    4cbe:	7f 90       	pop	r7
    4cc0:	6f 90       	pop	r6
    4cc2:	5f 90       	pop	r5
    4cc4:	4f 90       	pop	r4
    4cc6:	3f 90       	pop	r3
    4cc8:	2f 90       	pop	r2
    4cca:	08 95       	ret

00004ccc <flipbyte>:
    4ccc:	28 2f       	mov	r18, r24
    4cce:	30 e0       	ldi	r19, 0x00	; 0
    4cd0:	98 2f       	mov	r25, r24
    4cd2:	92 95       	swap	r25
    4cd4:	96 95       	lsr	r25
    4cd6:	92 70       	andi	r25, 0x02	; 2
    4cd8:	48 2f       	mov	r20, r24
    4cda:	44 1f       	adc	r20, r20
    4cdc:	44 27       	eor	r20, r20
    4cde:	44 1f       	adc	r20, r20
    4ce0:	94 2b       	or	r25, r20
    4ce2:	48 2f       	mov	r20, r24
    4ce4:	46 95       	lsr	r20
    4ce6:	46 95       	lsr	r20
    4ce8:	46 95       	lsr	r20
    4cea:	44 70       	andi	r20, 0x04	; 4
    4cec:	94 2b       	or	r25, r20
    4cee:	86 95       	lsr	r24
    4cf0:	88 70       	andi	r24, 0x08	; 8
    4cf2:	98 2b       	or	r25, r24
    4cf4:	a9 01       	movw	r20, r18
    4cf6:	44 0f       	add	r20, r20
    4cf8:	55 1f       	adc	r21, r21
    4cfa:	40 71       	andi	r20, 0x10	; 16
    4cfc:	94 2b       	or	r25, r20
    4cfe:	a9 01       	movw	r20, r18
    4d00:	73 e0       	ldi	r23, 0x03	; 3
    4d02:	44 0f       	add	r20, r20
    4d04:	55 1f       	adc	r21, r21
    4d06:	7a 95       	dec	r23
    4d08:	e1 f7       	brne	.-8      	; 0x4d02 <flipbyte+0x36>
    4d0a:	40 72       	andi	r20, 0x20	; 32
    4d0c:	94 2b       	or	r25, r20
    4d0e:	a9 01       	movw	r20, r18
    4d10:	e5 e0       	ldi	r30, 0x05	; 5
    4d12:	44 0f       	add	r20, r20
    4d14:	55 1f       	adc	r21, r21
    4d16:	ea 95       	dec	r30
    4d18:	e1 f7       	brne	.-8      	; 0x4d12 <flipbyte+0x46>
    4d1a:	40 74       	andi	r20, 0x40	; 64
    4d1c:	94 2b       	or	r25, r20
    4d1e:	36 95       	lsr	r19
    4d20:	32 2f       	mov	r19, r18
    4d22:	22 27       	eor	r18, r18
    4d24:	37 95       	ror	r19
    4d26:	27 95       	ror	r18
    4d28:	89 2f       	mov	r24, r25
    4d2a:	82 2b       	or	r24, r18
    4d2c:	08 95       	ret

00004d2e <line>:
    4d2e:	2f 92       	push	r2
    4d30:	3f 92       	push	r3
    4d32:	4f 92       	push	r4
    4d34:	5f 92       	push	r5
    4d36:	6f 92       	push	r6
    4d38:	7f 92       	push	r7
    4d3a:	8f 92       	push	r8
    4d3c:	9f 92       	push	r9
    4d3e:	af 92       	push	r10
    4d40:	bf 92       	push	r11
    4d42:	cf 92       	push	r12
    4d44:	df 92       	push	r13
    4d46:	ef 92       	push	r14
    4d48:	ff 92       	push	r15
    4d4a:	0f 93       	push	r16
    4d4c:	1f 93       	push	r17
    4d4e:	cf 93       	push	r28
    4d50:	df 93       	push	r29
    4d52:	cd b7       	in	r28, 0x3d	; 61
    4d54:	de b7       	in	r29, 0x3e	; 62
    4d56:	62 97       	sbiw	r28, 0x12	; 18
    4d58:	0f b6       	in	r0, 0x3f	; 63
    4d5a:	f8 94       	cli
    4d5c:	de bf       	out	0x3e, r29	; 62
    4d5e:	0f be       	out	0x3f, r0	; 63
    4d60:	cd bf       	out	0x3d, r28	; 61
    4d62:	9a 83       	std	Y+2, r25	; 0x02
    4d64:	89 83       	std	Y+1, r24	; 0x01
    4d66:	2b 01       	movw	r4, r22
    4d68:	5a 01       	movw	r10, r20
    4d6a:	3c 83       	std	Y+4, r19	; 0x04
    4d6c:	2b 83       	std	Y+3, r18	; 0x03
    4d6e:	b8 01       	movw	r22, r16
    4d70:	17 01       	movw	r2, r14
    4d72:	28 17       	cp	r18, r24
    4d74:	39 07       	cpc	r19, r25
    4d76:	7c f4       	brge	.+30     	; 0x4d96 <line+0x68>
    4d78:	8b 2d       	mov	r24, r11
    4d7a:	57 01       	movw	r10, r14
    4d7c:	24 2e       	mov	r2, r20
    4d7e:	38 2e       	mov	r3, r24
    4d80:	94 2d       	mov	r25, r4
    4d82:	85 2d       	mov	r24, r5
    4d84:	28 01       	movw	r4, r16
    4d86:	69 2f       	mov	r22, r25
    4d88:	78 2f       	mov	r23, r24
    4d8a:	99 81       	ldd	r25, Y+1	; 0x01
    4d8c:	8a 81       	ldd	r24, Y+2	; 0x02
    4d8e:	3a 83       	std	Y+2, r19	; 0x02
    4d90:	29 83       	std	Y+1, r18	; 0x01
    4d92:	9b 83       	std	Y+3, r25	; 0x03
    4d94:	8c 83       	std	Y+4, r24	; 0x04
    4d96:	0b 81       	ldd	r16, Y+3	; 0x03
    4d98:	1c 81       	ldd	r17, Y+4	; 0x04
    4d9a:	89 81       	ldd	r24, Y+1	; 0x01
    4d9c:	9a 81       	ldd	r25, Y+2	; 0x02
    4d9e:	08 1b       	sub	r16, r24
    4da0:	19 0b       	sbc	r17, r25
    4da2:	64 15       	cp	r22, r4
    4da4:	75 05       	cpc	r23, r5
    4da6:	2c f4       	brge	.+10     	; 0x4db2 <line+0x84>
    4da8:	d2 01       	movw	r26, r4
    4daa:	a6 1b       	sub	r26, r22
    4dac:	b7 0b       	sbc	r27, r23
    4dae:	bd 01       	movw	r22, r26
    4db0:	02 c0       	rjmp	.+4      	; 0x4db6 <line+0x88>
    4db2:	64 19       	sub	r22, r4
    4db4:	75 09       	sbc	r23, r5
    4db6:	88 27       	eor	r24, r24
    4db8:	77 fd       	sbrc	r23, 7
    4dba:	80 95       	com	r24
    4dbc:	98 2f       	mov	r25, r24
    4dbe:	0e 94 78 52 	call	0xa4f0	; 0xa4f0 <__floatsisf>
    4dc2:	6b 01       	movw	r12, r22
    4dc4:	7c 01       	movw	r14, r24
    4dc6:	b8 01       	movw	r22, r16
    4dc8:	88 27       	eor	r24, r24
    4dca:	77 fd       	sbrc	r23, 7
    4dcc:	80 95       	com	r24
    4dce:	98 2f       	mov	r25, r24
    4dd0:	0e 94 78 52 	call	0xa4f0	; 0xa4f0 <__floatsisf>
    4dd4:	9b 01       	movw	r18, r22
    4dd6:	ac 01       	movw	r20, r24
    4dd8:	c7 01       	movw	r24, r14
    4dda:	b6 01       	movw	r22, r12
    4ddc:	0e 94 dd 51 	call	0xa3ba	; 0xa3ba <__divsf3>
    4de0:	6d 83       	std	Y+5, r22	; 0x05
    4de2:	7e 83       	std	Y+6, r23	; 0x06
    4de4:	8f 83       	std	Y+7, r24	; 0x07
    4de6:	69 2e       	mov	r6, r25
    4de8:	8b 80       	ldd	r8, Y+3	; 0x03
    4dea:	9c 80       	ldd	r9, Y+4	; 0x04
    4dec:	e9 81       	ldd	r30, Y+1	; 0x01
    4dee:	fa 81       	ldd	r31, Y+2	; 0x02
    4df0:	8e 1a       	sub	r8, r30
    4df2:	9f 0a       	sbc	r9, r31
    4df4:	2a 14       	cp	r2, r10
    4df6:	3b 04       	cpc	r3, r11
    4df8:	24 f4       	brge	.+8      	; 0x4e02 <line+0xd4>
    4dfa:	b5 01       	movw	r22, r10
    4dfc:	62 19       	sub	r22, r2
    4dfe:	73 09       	sbc	r23, r3
    4e00:	03 c0       	rjmp	.+6      	; 0x4e08 <line+0xda>
    4e02:	b1 01       	movw	r22, r2
    4e04:	6a 19       	sub	r22, r10
    4e06:	7b 09       	sbc	r23, r11
    4e08:	88 27       	eor	r24, r24
    4e0a:	77 fd       	sbrc	r23, 7
    4e0c:	80 95       	com	r24
    4e0e:	98 2f       	mov	r25, r24
    4e10:	0e 94 78 52 	call	0xa4f0	; 0xa4f0 <__floatsisf>
    4e14:	6b 01       	movw	r12, r22
    4e16:	7c 01       	movw	r14, r24
    4e18:	b4 01       	movw	r22, r8
    4e1a:	88 27       	eor	r24, r24
    4e1c:	77 fd       	sbrc	r23, 7
    4e1e:	80 95       	com	r24
    4e20:	98 2f       	mov	r25, r24
    4e22:	0e 94 78 52 	call	0xa4f0	; 0xa4f0 <__floatsisf>
    4e26:	9b 01       	movw	r18, r22
    4e28:	ac 01       	movw	r20, r24
    4e2a:	c7 01       	movw	r24, r14
    4e2c:	b6 01       	movw	r22, r12
    4e2e:	0e 94 dd 51 	call	0xa3ba	; 0xa3ba <__divsf3>
    4e32:	76 2e       	mov	r7, r22
    4e34:	07 2f       	mov	r16, r23
    4e36:	18 2f       	mov	r17, r24
    4e38:	29 2f       	mov	r18, r25
    4e3a:	f9 81       	ldd	r31, Y+1	; 0x01
    4e3c:	f8 87       	std	Y+8, r31	; 0x08
    4e3e:	22 24       	eor	r2, r2
    4e40:	33 24       	eor	r3, r3
    4e42:	c2 01       	movw	r24, r4
    4e44:	aa 27       	eor	r26, r26
    4e46:	97 fd       	sbrc	r25, 7
    4e48:	a0 95       	com	r26
    4e4a:	ba 2f       	mov	r27, r26
    4e4c:	89 87       	std	Y+9, r24	; 0x09
    4e4e:	9a 87       	std	Y+10, r25	; 0x0a
    4e50:	ab 87       	std	Y+11, r26	; 0x0b
    4e52:	bc 87       	std	Y+12, r27	; 0x0c
    4e54:	c5 01       	movw	r24, r10
    4e56:	aa 27       	eor	r26, r26
    4e58:	97 fd       	sbrc	r25, 7
    4e5a:	a0 95       	com	r26
    4e5c:	ba 2f       	mov	r27, r26
    4e5e:	8d 87       	std	Y+13, r24	; 0x0d
    4e60:	9e 87       	std	Y+14, r25	; 0x0e
    4e62:	af 87       	std	Y+15, r26	; 0x0f
    4e64:	b8 8b       	std	Y+16, r27	; 0x10
    4e66:	2a 8b       	std	Y+18, r18	; 0x12
    4e68:	4d c0       	rjmp	.+154    	; 0x4f04 <line+0x1d6>
    4e6a:	b2 01       	movw	r22, r4
    4e6c:	a9 81       	ldd	r26, Y+1	; 0x01
    4e6e:	ba 81       	ldd	r27, Y+2	; 0x02
    4e70:	6a 1b       	sub	r22, r26
    4e72:	7b 0b       	sbc	r23, r27
    4e74:	88 27       	eor	r24, r24
    4e76:	77 fd       	sbrc	r23, 7
    4e78:	80 95       	com	r24
    4e7a:	98 2f       	mov	r25, r24
    4e7c:	0e 94 78 52 	call	0xa4f0	; 0xa4f0 <__floatsisf>
    4e80:	4b 01       	movw	r8, r22
    4e82:	5c 01       	movw	r10, r24
    4e84:	5d 81       	ldd	r21, Y+5	; 0x05
    4e86:	4e 81       	ldd	r20, Y+6	; 0x06
    4e88:	3f 81       	ldd	r19, Y+7	; 0x07
    4e8a:	85 2f       	mov	r24, r21
    4e8c:	94 2f       	mov	r25, r20
    4e8e:	a3 2f       	mov	r26, r19
    4e90:	b6 2d       	mov	r27, r6
    4e92:	bc 01       	movw	r22, r24
    4e94:	cd 01       	movw	r24, r26
    4e96:	a5 01       	movw	r20, r10
    4e98:	94 01       	movw	r18, r8
    4e9a:	0e 94 3d 53 	call	0xa67a	; 0xa67a <__mulsf3>
    4e9e:	6b 01       	movw	r12, r22
    4ea0:	7c 01       	movw	r14, r24
    4ea2:	69 85       	ldd	r22, Y+9	; 0x09
    4ea4:	7a 85       	ldd	r23, Y+10	; 0x0a
    4ea6:	8b 85       	ldd	r24, Y+11	; 0x0b
    4ea8:	9c 85       	ldd	r25, Y+12	; 0x0c
    4eaa:	0e 94 78 52 	call	0xa4f0	; 0xa4f0 <__floatsisf>
    4eae:	9b 01       	movw	r18, r22
    4eb0:	ac 01       	movw	r20, r24
    4eb2:	c7 01       	movw	r24, r14
    4eb4:	b6 01       	movw	r22, r12
    4eb6:	0e 94 76 51 	call	0xa2ec	; 0xa2ec <__addsf3>
    4eba:	0e 94 4a 52 	call	0xa494	; 0xa494 <__fixunssfsi>
    4ebe:	69 8b       	std	Y+17, r22	; 0x11
    4ec0:	2a 89       	ldd	r18, Y+18	; 0x12
    4ec2:	87 2d       	mov	r24, r7
    4ec4:	90 2f       	mov	r25, r16
    4ec6:	a1 2f       	mov	r26, r17
    4ec8:	b2 2f       	mov	r27, r18
    4eca:	bc 01       	movw	r22, r24
    4ecc:	cd 01       	movw	r24, r26
    4ece:	a5 01       	movw	r20, r10
    4ed0:	94 01       	movw	r18, r8
    4ed2:	0e 94 3d 53 	call	0xa67a	; 0xa67a <__mulsf3>
    4ed6:	6b 01       	movw	r12, r22
    4ed8:	7c 01       	movw	r14, r24
    4eda:	6d 85       	ldd	r22, Y+13	; 0x0d
    4edc:	7e 85       	ldd	r23, Y+14	; 0x0e
    4ede:	8f 85       	ldd	r24, Y+15	; 0x0f
    4ee0:	98 89       	ldd	r25, Y+16	; 0x10
    4ee2:	0e 94 78 52 	call	0xa4f0	; 0xa4f0 <__floatsisf>
    4ee6:	9b 01       	movw	r18, r22
    4ee8:	ac 01       	movw	r20, r24
    4eea:	c7 01       	movw	r24, r14
    4eec:	b6 01       	movw	r22, r12
    4eee:	0e 94 76 51 	call	0xa2ec	; 0xa2ec <__addsf3>
    4ef2:	0e 94 4a 52 	call	0xa494	; 0xa494 <__fixunssfsi>
    4ef6:	46 2f       	mov	r20, r22
    4ef8:	c2 01       	movw	r24, r4
    4efa:	69 89       	ldd	r22, Y+17	; 0x11
    4efc:	70 e0       	ldi	r23, 0x00	; 0
    4efe:	50 e0       	ldi	r21, 0x00	; 0
    4f00:	0e 94 3b 23 	call	0x4676	; 0x4676 <setvoxel>
    4f04:	48 84       	ldd	r4, Y+8	; 0x08
    4f06:	42 0c       	add	r4, r2
    4f08:	55 24       	eor	r5, r5
    4f0a:	08 94       	sec
    4f0c:	21 1c       	adc	r2, r1
    4f0e:	31 1c       	adc	r3, r1
    4f10:	eb 81       	ldd	r30, Y+3	; 0x03
    4f12:	fc 81       	ldd	r31, Y+4	; 0x04
    4f14:	e4 15       	cp	r30, r4
    4f16:	f5 05       	cpc	r31, r5
    4f18:	0c f0       	brlt	.+2      	; 0x4f1c <line+0x1ee>
    4f1a:	a7 cf       	rjmp	.-178    	; 0x4e6a <line+0x13c>
    4f1c:	62 96       	adiw	r28, 0x12	; 18
    4f1e:	0f b6       	in	r0, 0x3f	; 63
    4f20:	f8 94       	cli
    4f22:	de bf       	out	0x3e, r29	; 62
    4f24:	0f be       	out	0x3f, r0	; 63
    4f26:	cd bf       	out	0x3d, r28	; 61
    4f28:	df 91       	pop	r29
    4f2a:	cf 91       	pop	r28
    4f2c:	1f 91       	pop	r17
    4f2e:	0f 91       	pop	r16
    4f30:	ff 90       	pop	r15
    4f32:	ef 90       	pop	r14
    4f34:	df 90       	pop	r13
    4f36:	cf 90       	pop	r12
    4f38:	bf 90       	pop	r11
    4f3a:	af 90       	pop	r10
    4f3c:	9f 90       	pop	r9
    4f3e:	8f 90       	pop	r8
    4f40:	7f 90       	pop	r7
    4f42:	6f 90       	pop	r6
    4f44:	5f 90       	pop	r5
    4f46:	4f 90       	pop	r4
    4f48:	3f 90       	pop	r3
    4f4a:	2f 90       	pop	r2
    4f4c:	08 95       	ret

00004f4e <delay_ms>:
    4f4e:	0a c0       	rjmp	.+20     	; 0x4f64 <delay_ms+0x16>
    4f50:	24 eb       	ldi	r18, 0xB4	; 180
	...
    4f5e:	21 50       	subi	r18, 0x01	; 1
    4f60:	c1 f7       	brne	.-16     	; 0x4f52 <delay_ms+0x4>
    4f62:	01 97       	sbiw	r24, 0x01	; 1
    4f64:	00 97       	sbiw	r24, 0x00	; 0
    4f66:	a1 f7       	brne	.-24     	; 0x4f50 <delay_ms+0x2>
    4f68:	08 95       	ret

00004f6a <tmp2cube>:
    4f6a:	a0 eb       	ldi	r26, 0xB0	; 176
    4f6c:	b1 e0       	ldi	r27, 0x01	; 1
    4f6e:	e0 e7       	ldi	r30, 0x70	; 112
    4f70:	f1 e0       	ldi	r31, 0x01	; 1
    4f72:	80 e4       	ldi	r24, 0x40	; 64
    4f74:	01 90       	ld	r0, Z+
    4f76:	0d 92       	st	X+, r0
    4f78:	81 50       	subi	r24, 0x01	; 1
    4f7a:	e1 f7       	brne	.-8      	; 0x4f74 <tmp2cube+0xa>
    4f7c:	08 95       	ret

00004f7e <shift>:
    4f7e:	4f 92       	push	r4
    4f80:	5f 92       	push	r5
    4f82:	6f 92       	push	r6
    4f84:	7f 92       	push	r7
    4f86:	8f 92       	push	r8
    4f88:	9f 92       	push	r9
    4f8a:	bf 92       	push	r11
    4f8c:	cf 92       	push	r12
    4f8e:	df 92       	push	r13
    4f90:	ef 92       	push	r14
    4f92:	ff 92       	push	r15
    4f94:	0f 93       	push	r16
    4f96:	1f 93       	push	r17
    4f98:	cf 93       	push	r28
    4f9a:	df 93       	push	r29
    4f9c:	c8 2e       	mov	r12, r24
    4f9e:	3b 01       	movw	r6, r22
    4fa0:	88 24       	eor	r8, r8
    4fa2:	99 24       	eor	r9, r9
    4fa4:	b7 e0       	ldi	r27, 0x07	; 7
    4fa6:	4b 2e       	mov	r4, r27
    4fa8:	51 2c       	mov	r5, r1
    4faa:	4f ef       	ldi	r20, 0xFF	; 255
    4fac:	64 16       	cp	r6, r20
    4fae:	4f ef       	ldi	r20, 0xFF	; 255
    4fb0:	74 06       	cpc	r7, r20
    4fb2:	21 f0       	breq	.+8      	; 0x4fbc <shift+0x3e>
    4fb4:	72 01       	movw	r14, r4
    4fb6:	e8 18       	sub	r14, r8
    4fb8:	f9 08       	sbc	r15, r9
    4fba:	01 c0       	rjmp	.+2      	; 0x4fbe <shift+0x40>
    4fbc:	74 01       	movw	r14, r8
    4fbe:	c7 01       	movw	r24, r14
    4fc0:	01 96       	adiw	r24, 0x01	; 1
    4fc2:	97 01       	movw	r18, r14
    4fc4:	21 50       	subi	r18, 0x01	; 1
    4fc6:	30 40       	sbci	r19, 0x00	; 0
    4fc8:	4f ef       	ldi	r20, 0xFF	; 255
    4fca:	64 16       	cp	r6, r20
    4fcc:	4f ef       	ldi	r20, 0xFF	; 255
    4fce:	74 06       	cpc	r7, r20
    4fd0:	19 f4       	brne	.+6      	; 0x4fd8 <shift+0x5a>
    4fd2:	b8 2e       	mov	r11, r24
    4fd4:	d9 2e       	mov	r13, r25
    4fd6:	02 c0       	rjmp	.+4      	; 0x4fdc <shift+0x5e>
    4fd8:	b2 2e       	mov	r11, r18
    4fda:	d3 2e       	mov	r13, r19
    4fdc:	00 e0       	ldi	r16, 0x00	; 0
    4fde:	10 e0       	ldi	r17, 0x00	; 0
    4fe0:	35 c0       	rjmp	.+106    	; 0x504c <shift+0xce>
    4fe2:	8a e7       	ldi	r24, 0x7A	; 122
    4fe4:	c8 16       	cp	r12, r24
    4fe6:	59 f4       	brne	.+22     	; 0x4ffe <shift+0x80>
    4fe8:	c8 01       	movw	r24, r16
    4fea:	be 01       	movw	r22, r28
    4fec:	4b 2d       	mov	r20, r11
    4fee:	5d 2d       	mov	r21, r13
    4ff0:	0e 94 60 23 	call	0x46c0	; 0x46c0 <getvoxel>
    4ff4:	28 2f       	mov	r18, r24
    4ff6:	c8 01       	movw	r24, r16
    4ff8:	be 01       	movw	r22, r28
    4ffa:	a7 01       	movw	r20, r14
    4ffc:	1b c0       	rjmp	.+54     	; 0x5034 <shift+0xb6>
    4ffe:	49 e7       	ldi	r20, 0x79	; 121
    5000:	c4 16       	cp	r12, r20
    5002:	59 f4       	brne	.+22     	; 0x501a <shift+0x9c>
    5004:	c8 01       	movw	r24, r16
    5006:	6b 2d       	mov	r22, r11
    5008:	7d 2d       	mov	r23, r13
    500a:	ae 01       	movw	r20, r28
    500c:	0e 94 60 23 	call	0x46c0	; 0x46c0 <getvoxel>
    5010:	28 2f       	mov	r18, r24
    5012:	c8 01       	movw	r24, r16
    5014:	b7 01       	movw	r22, r14
    5016:	ae 01       	movw	r20, r28
    5018:	0d c0       	rjmp	.+26     	; 0x5034 <shift+0xb6>
    501a:	88 e7       	ldi	r24, 0x78	; 120
    501c:	c8 16       	cp	r12, r24
    501e:	69 f4       	brne	.+26     	; 0x503a <shift+0xbc>
    5020:	8b 2d       	mov	r24, r11
    5022:	9d 2d       	mov	r25, r13
    5024:	be 01       	movw	r22, r28
    5026:	a8 01       	movw	r20, r16
    5028:	0e 94 60 23 	call	0x46c0	; 0x46c0 <getvoxel>
    502c:	28 2f       	mov	r18, r24
    502e:	c7 01       	movw	r24, r14
    5030:	be 01       	movw	r22, r28
    5032:	a8 01       	movw	r20, r16
    5034:	30 e0       	ldi	r19, 0x00	; 0
    5036:	0e 94 85 23 	call	0x470a	; 0x470a <altervoxel>
    503a:	21 96       	adiw	r28, 0x01	; 1
    503c:	c8 30       	cpi	r28, 0x08	; 8
    503e:	d1 05       	cpc	r29, r1
    5040:	81 f6       	brne	.-96     	; 0x4fe2 <shift+0x64>
    5042:	0f 5f       	subi	r16, 0xFF	; 255
    5044:	1f 4f       	sbci	r17, 0xFF	; 255
    5046:	08 30       	cpi	r16, 0x08	; 8
    5048:	11 05       	cpc	r17, r1
    504a:	19 f0       	breq	.+6      	; 0x5052 <shift+0xd4>
    504c:	c0 e0       	ldi	r28, 0x00	; 0
    504e:	d0 e0       	ldi	r29, 0x00	; 0
    5050:	c8 cf       	rjmp	.-112    	; 0x4fe2 <shift+0x64>
    5052:	08 94       	sec
    5054:	81 1c       	adc	r8, r1
    5056:	91 1c       	adc	r9, r1
    5058:	48 e0       	ldi	r20, 0x08	; 8
    505a:	84 16       	cp	r8, r20
    505c:	91 04       	cpc	r9, r1
    505e:	09 f0       	breq	.+2      	; 0x5062 <shift+0xe4>
    5060:	a4 cf       	rjmp	.-184    	; 0x4faa <shift+0x2c>
    5062:	8f ef       	ldi	r24, 0xFF	; 255
    5064:	68 16       	cp	r6, r24
    5066:	8f ef       	ldi	r24, 0xFF	; 255
    5068:	78 06       	cpc	r7, r24
    506a:	21 f4       	brne	.+8      	; 0x5074 <shift+0xf6>
    506c:	a7 e0       	ldi	r26, 0x07	; 7
    506e:	ea 2e       	mov	r14, r26
    5070:	f1 2c       	mov	r15, r1
    5072:	02 c0       	rjmp	.+4      	; 0x5078 <shift+0xfa>
    5074:	ee 24       	eor	r14, r14
    5076:	ff 24       	eor	r15, r15
    5078:	00 e0       	ldi	r16, 0x00	; 0
    507a:	10 e0       	ldi	r17, 0x00	; 0
    507c:	1f c0       	rjmp	.+62     	; 0x50bc <shift+0x13e>
    507e:	4a e7       	ldi	r20, 0x7A	; 122
    5080:	c4 16       	cp	r12, r20
    5082:	21 f4       	brne	.+8      	; 0x508c <shift+0x10e>
    5084:	c8 01       	movw	r24, r16
    5086:	be 01       	movw	r22, r28
    5088:	a7 01       	movw	r20, r14
    508a:	0d c0       	rjmp	.+26     	; 0x50a6 <shift+0x128>
    508c:	89 e7       	ldi	r24, 0x79	; 121
    508e:	c8 16       	cp	r12, r24
    5090:	21 f4       	brne	.+8      	; 0x509a <shift+0x11c>
    5092:	c8 01       	movw	r24, r16
    5094:	b7 01       	movw	r22, r14
    5096:	ae 01       	movw	r20, r28
    5098:	06 c0       	rjmp	.+12     	; 0x50a6 <shift+0x128>
    509a:	48 e7       	ldi	r20, 0x78	; 120
    509c:	c4 16       	cp	r12, r20
    509e:	29 f4       	brne	.+10     	; 0x50aa <shift+0x12c>
    50a0:	c7 01       	movw	r24, r14
    50a2:	be 01       	movw	r22, r28
    50a4:	a8 01       	movw	r20, r16
    50a6:	0e 94 f0 22 	call	0x45e0	; 0x45e0 <clrvoxel>
    50aa:	21 96       	adiw	r28, 0x01	; 1
    50ac:	c8 30       	cpi	r28, 0x08	; 8
    50ae:	d1 05       	cpc	r29, r1
    50b0:	31 f7       	brne	.-52     	; 0x507e <shift+0x100>
    50b2:	0f 5f       	subi	r16, 0xFF	; 255
    50b4:	1f 4f       	sbci	r17, 0xFF	; 255
    50b6:	08 30       	cpi	r16, 0x08	; 8
    50b8:	11 05       	cpc	r17, r1
    50ba:	19 f0       	breq	.+6      	; 0x50c2 <shift+0x144>
    50bc:	c0 e0       	ldi	r28, 0x00	; 0
    50be:	d0 e0       	ldi	r29, 0x00	; 0
    50c0:	de cf       	rjmp	.-68     	; 0x507e <shift+0x100>
    50c2:	df 91       	pop	r29
    50c4:	cf 91       	pop	r28
    50c6:	1f 91       	pop	r17
    50c8:	0f 91       	pop	r16
    50ca:	ff 90       	pop	r15
    50cc:	ef 90       	pop	r14
    50ce:	df 90       	pop	r13
    50d0:	cf 90       	pop	r12
    50d2:	bf 90       	pop	r11
    50d4:	9f 90       	pop	r9
    50d6:	8f 90       	pop	r8
    50d8:	7f 90       	pop	r7
    50da:	6f 90       	pop	r6
    50dc:	5f 90       	pop	r5
    50de:	4f 90       	pop	r4
    50e0:	08 95       	ret

000050e2 <mirror_y>:
    50e2:	4f 92       	push	r4
    50e4:	5f 92       	push	r5
    50e6:	6f 92       	push	r6
    50e8:	7f 92       	push	r7
    50ea:	8f 92       	push	r8
    50ec:	9f 92       	push	r9
    50ee:	af 92       	push	r10
    50f0:	bf 92       	push	r11
    50f2:	cf 92       	push	r12
    50f4:	df 92       	push	r13
    50f6:	ef 92       	push	r14
    50f8:	ff 92       	push	r15
    50fa:	0f 93       	push	r16
    50fc:	1f 93       	push	r17
    50fe:	cf 93       	push	r28
    5100:	df 93       	push	r29
    5102:	cd b7       	in	r28, 0x3d	; 61
    5104:	de b7       	in	r29, 0x3e	; 62
    5106:	c0 54       	subi	r28, 0x40	; 64
    5108:	d0 40       	sbci	r29, 0x00	; 0
    510a:	0f b6       	in	r0, 0x3f	; 63
    510c:	f8 94       	cli
    510e:	de bf       	out	0x3e, r29	; 62
    5110:	0f be       	out	0x3f, r0	; 63
    5112:	cd bf       	out	0x3d, r28	; 61
    5114:	de 01       	movw	r26, r28
    5116:	11 96       	adiw	r26, 0x01	; 1
    5118:	e0 eb       	ldi	r30, 0xB0	; 176
    511a:	f1 e0       	ldi	r31, 0x01	; 1
    511c:	80 e4       	ldi	r24, 0x40	; 64
    511e:	01 90       	ld	r0, Z+
    5120:	0d 92       	st	X+, r0
    5122:	81 50       	subi	r24, 0x01	; 1
    5124:	e1 f7       	brne	.-8      	; 0x511e <mirror_y+0x3c>
    5126:	0e 94 87 24 	call	0x490e	; 0x490e <fill>
    512a:	5e 01       	movw	r10, r28
    512c:	08 94       	sec
    512e:	a1 1c       	adc	r10, r1
    5130:	b1 1c       	adc	r11, r1
    5132:	cc 24       	eor	r12, r12
    5134:	dd 24       	eor	r13, r13
    5136:	17 e0       	ldi	r17, 0x07	; 7
    5138:	61 2e       	mov	r6, r17
    513a:	71 2c       	mov	r7, r1
    513c:	30 c0       	rjmp	.+96     	; 0x519e <mirror_y+0xbc>
    513e:	f2 01       	movw	r30, r4
    5140:	80 81       	ld	r24, Z
    5142:	90 e0       	ldi	r25, 0x00	; 0
    5144:	0e 2c       	mov	r0, r14
    5146:	02 c0       	rjmp	.+4      	; 0x514c <mirror_y+0x6a>
    5148:	95 95       	asr	r25
    514a:	87 95       	ror	r24
    514c:	0a 94       	dec	r0
    514e:	e2 f7       	brpl	.-8      	; 0x5148 <mirror_y+0x66>
    5150:	80 ff       	sbrs	r24, 0
    5152:	05 c0       	rjmp	.+10     	; 0x515e <mirror_y+0x7c>
    5154:	c7 01       	movw	r24, r14
    5156:	b4 01       	movw	r22, r8
    5158:	a6 01       	movw	r20, r12
    515a:	0e 94 3b 23 	call	0x4676	; 0x4676 <setvoxel>
    515e:	08 94       	sec
    5160:	e1 1c       	adc	r14, r1
    5162:	f1 1c       	adc	r15, r1
    5164:	f8 e0       	ldi	r31, 0x08	; 8
    5166:	ef 16       	cp	r14, r31
    5168:	f1 04       	cpc	r15, r1
    516a:	49 f7       	brne	.-46     	; 0x513e <mirror_y+0x5c>
    516c:	0f 5f       	subi	r16, 0xFF	; 255
    516e:	1f 4f       	sbci	r17, 0xFF	; 255
    5170:	08 30       	cpi	r16, 0x08	; 8
    5172:	11 05       	cpc	r17, r1
    5174:	49 f0       	breq	.+18     	; 0x5188 <mirror_y+0xa6>
    5176:	ee 24       	eor	r14, r14
    5178:	ff 24       	eor	r15, r15
    517a:	25 01       	movw	r4, r10
    517c:	40 0e       	add	r4, r16
    517e:	51 1e       	adc	r5, r17
    5180:	43 01       	movw	r8, r6
    5182:	80 1a       	sub	r8, r16
    5184:	91 0a       	sbc	r9, r17
    5186:	db cf       	rjmp	.-74     	; 0x513e <mirror_y+0x5c>
    5188:	08 94       	sec
    518a:	c1 1c       	adc	r12, r1
    518c:	d1 1c       	adc	r13, r1
    518e:	88 e0       	ldi	r24, 0x08	; 8
    5190:	90 e0       	ldi	r25, 0x00	; 0
    5192:	a8 0e       	add	r10, r24
    5194:	b9 1e       	adc	r11, r25
    5196:	98 e0       	ldi	r25, 0x08	; 8
    5198:	c9 16       	cp	r12, r25
    519a:	d1 04       	cpc	r13, r1
    519c:	19 f0       	breq	.+6      	; 0x51a4 <mirror_y+0xc2>
    519e:	00 e0       	ldi	r16, 0x00	; 0
    51a0:	10 e0       	ldi	r17, 0x00	; 0
    51a2:	e9 cf       	rjmp	.-46     	; 0x5176 <mirror_y+0x94>
    51a4:	c0 5c       	subi	r28, 0xC0	; 192
    51a6:	df 4f       	sbci	r29, 0xFF	; 255
    51a8:	0f b6       	in	r0, 0x3f	; 63
    51aa:	f8 94       	cli
    51ac:	de bf       	out	0x3e, r29	; 62
    51ae:	0f be       	out	0x3f, r0	; 63
    51b0:	cd bf       	out	0x3d, r28	; 61
    51b2:	df 91       	pop	r29
    51b4:	cf 91       	pop	r28
    51b6:	1f 91       	pop	r17
    51b8:	0f 91       	pop	r16
    51ba:	ff 90       	pop	r15
    51bc:	ef 90       	pop	r14
    51be:	df 90       	pop	r13
    51c0:	cf 90       	pop	r12
    51c2:	bf 90       	pop	r11
    51c4:	af 90       	pop	r10
    51c6:	9f 90       	pop	r9
    51c8:	8f 90       	pop	r8
    51ca:	7f 90       	pop	r7
    51cc:	6f 90       	pop	r6
    51ce:	5f 90       	pop	r5
    51d0:	4f 90       	pop	r4
    51d2:	08 95       	ret

000051d4 <mirror_x>:
    51d4:	af 92       	push	r10
    51d6:	bf 92       	push	r11
    51d8:	cf 92       	push	r12
    51da:	df 92       	push	r13
    51dc:	ef 92       	push	r14
    51de:	ff 92       	push	r15
    51e0:	0f 93       	push	r16
    51e2:	1f 93       	push	r17
    51e4:	cf 93       	push	r28
    51e6:	df 93       	push	r29
    51e8:	cd b7       	in	r28, 0x3d	; 61
    51ea:	de b7       	in	r29, 0x3e	; 62
    51ec:	c0 54       	subi	r28, 0x40	; 64
    51ee:	d0 40       	sbci	r29, 0x00	; 0
    51f0:	0f b6       	in	r0, 0x3f	; 63
    51f2:	f8 94       	cli
    51f4:	de bf       	out	0x3e, r29	; 62
    51f6:	0f be       	out	0x3f, r0	; 63
    51f8:	cd bf       	out	0x3d, r28	; 61
    51fa:	de 01       	movw	r26, r28
    51fc:	11 96       	adiw	r26, 0x01	; 1
    51fe:	e0 eb       	ldi	r30, 0xB0	; 176
    5200:	f1 e0       	ldi	r31, 0x01	; 1
    5202:	80 e4       	ldi	r24, 0x40	; 64
    5204:	01 90       	ld	r0, Z+
    5206:	0d 92       	st	X+, r0
    5208:	81 50       	subi	r24, 0x01	; 1
    520a:	e1 f7       	brne	.-8      	; 0x5204 <mirror_x+0x30>
    520c:	0e 94 87 24 	call	0x490e	; 0x490e <fill>
    5210:	6e 01       	movw	r12, r28
    5212:	08 94       	sec
    5214:	c1 1c       	adc	r12, r1
    5216:	d1 1c       	adc	r13, r1
    5218:	ee 24       	eor	r14, r14
    521a:	ff 24       	eor	r15, r15
    521c:	1c c0       	rjmp	.+56     	; 0x5256 <mirror_x+0x82>
    521e:	f6 01       	movw	r30, r12
    5220:	e0 0f       	add	r30, r16
    5222:	f1 1f       	adc	r31, r17
    5224:	80 81       	ld	r24, Z
    5226:	0e 94 66 26 	call	0x4ccc	; 0x4ccc <flipbyte>
    522a:	f5 01       	movw	r30, r10
    522c:	e0 0f       	add	r30, r16
    522e:	f1 1f       	adc	r31, r17
    5230:	e0 55       	subi	r30, 0x50	; 80
    5232:	fe 4f       	sbci	r31, 0xFE	; 254
    5234:	80 83       	st	Z, r24
    5236:	0f 5f       	subi	r16, 0xFF	; 255
    5238:	1f 4f       	sbci	r17, 0xFF	; 255
    523a:	08 30       	cpi	r16, 0x08	; 8
    523c:	11 05       	cpc	r17, r1
    523e:	79 f7       	brne	.-34     	; 0x521e <mirror_x+0x4a>
    5240:	08 94       	sec
    5242:	e1 1c       	adc	r14, r1
    5244:	f1 1c       	adc	r15, r1
    5246:	88 e0       	ldi	r24, 0x08	; 8
    5248:	90 e0       	ldi	r25, 0x00	; 0
    524a:	c8 0e       	add	r12, r24
    524c:	d9 1e       	adc	r13, r25
    524e:	98 e0       	ldi	r25, 0x08	; 8
    5250:	e9 16       	cp	r14, r25
    5252:	f1 04       	cpc	r15, r1
    5254:	49 f0       	breq	.+18     	; 0x5268 <mirror_x+0x94>
    5256:	00 e0       	ldi	r16, 0x00	; 0
    5258:	10 e0       	ldi	r17, 0x00	; 0
    525a:	57 01       	movw	r10, r14
    525c:	83 e0       	ldi	r24, 0x03	; 3
    525e:	aa 0c       	add	r10, r10
    5260:	bb 1c       	adc	r11, r11
    5262:	8a 95       	dec	r24
    5264:	e1 f7       	brne	.-8      	; 0x525e <mirror_x+0x8a>
    5266:	db cf       	rjmp	.-74     	; 0x521e <mirror_x+0x4a>
    5268:	c0 5c       	subi	r28, 0xC0	; 192
    526a:	df 4f       	sbci	r29, 0xFF	; 255
    526c:	0f b6       	in	r0, 0x3f	; 63
    526e:	f8 94       	cli
    5270:	de bf       	out	0x3e, r29	; 62
    5272:	0f be       	out	0x3f, r0	; 63
    5274:	cd bf       	out	0x3d, r28	; 61
    5276:	df 91       	pop	r29
    5278:	cf 91       	pop	r28
    527a:	1f 91       	pop	r17
    527c:	0f 91       	pop	r16
    527e:	ff 90       	pop	r15
    5280:	ef 90       	pop	r14
    5282:	df 90       	pop	r13
    5284:	cf 90       	pop	r12
    5286:	bf 90       	pop	r11
    5288:	af 90       	pop	r10
    528a:	08 95       	ret

0000528c <mirror_z>:
    528c:	cf 93       	push	r28
    528e:	df 93       	push	r29
    5290:	cd b7       	in	r28, 0x3d	; 61
    5292:	de b7       	in	r29, 0x3e	; 62
    5294:	c0 54       	subi	r28, 0x40	; 64
    5296:	d0 40       	sbci	r29, 0x00	; 0
    5298:	0f b6       	in	r0, 0x3f	; 63
    529a:	f8 94       	cli
    529c:	de bf       	out	0x3e, r29	; 62
    529e:	0f be       	out	0x3f, r0	; 63
    52a0:	cd bf       	out	0x3d, r28	; 61
    52a2:	de 01       	movw	r26, r28
    52a4:	11 96       	adiw	r26, 0x01	; 1
    52a6:	e0 eb       	ldi	r30, 0xB0	; 176
    52a8:	f1 e0       	ldi	r31, 0x01	; 1
    52aa:	80 e4       	ldi	r24, 0x40	; 64
    52ac:	01 90       	ld	r0, Z+
    52ae:	0d 92       	st	X+, r0
    52b0:	81 50       	subi	r24, 0x01	; 1
    52b2:	e1 f7       	brne	.-8      	; 0x52ac <mirror_z+0x20>
    52b4:	80 e0       	ldi	r24, 0x00	; 0
    52b6:	90 e0       	ldi	r25, 0x00	; 0
    52b8:	1a c0       	rjmp	.+52     	; 0x52ee <mirror_z+0x62>
    52ba:	fb 01       	movw	r30, r22
    52bc:	e2 0f       	add	r30, r18
    52be:	f3 1f       	adc	r31, r19
    52c0:	a0 81       	ld	r26, Z
    52c2:	fa 01       	movw	r30, r20
    52c4:	b3 e0       	ldi	r27, 0x03	; 3
    52c6:	ee 0f       	add	r30, r30
    52c8:	ff 1f       	adc	r31, r31
    52ca:	ba 95       	dec	r27
    52cc:	e1 f7       	brne	.-8      	; 0x52c6 <mirror_z+0x3a>
    52ce:	e8 0f       	add	r30, r24
    52d0:	f9 1f       	adc	r31, r25
    52d2:	e0 55       	subi	r30, 0x50	; 80
    52d4:	fe 4f       	sbci	r31, 0xFE	; 254
    52d6:	a0 83       	st	Z, r26
    52d8:	28 5f       	subi	r18, 0xF8	; 248
    52da:	3f 4f       	sbci	r19, 0xFF	; 255
    52dc:	41 50       	subi	r20, 0x01	; 1
    52de:	50 40       	sbci	r21, 0x00	; 0
    52e0:	20 34       	cpi	r18, 0x40	; 64
    52e2:	31 05       	cpc	r19, r1
    52e4:	51 f7       	brne	.-44     	; 0x52ba <mirror_z+0x2e>
    52e6:	01 96       	adiw	r24, 0x01	; 1
    52e8:	88 30       	cpi	r24, 0x08	; 8
    52ea:	91 05       	cpc	r25, r1
    52ec:	59 f0       	breq	.+22     	; 0x5304 <mirror_z+0x78>
    52ee:	47 e0       	ldi	r20, 0x07	; 7
    52f0:	50 e0       	ldi	r21, 0x00	; 0
    52f2:	20 e0       	ldi	r18, 0x00	; 0
    52f4:	30 e0       	ldi	r19, 0x00	; 0
    52f6:	61 e0       	ldi	r22, 0x01	; 1
    52f8:	70 e0       	ldi	r23, 0x00	; 0
    52fa:	6c 0f       	add	r22, r28
    52fc:	7d 1f       	adc	r23, r29
    52fe:	68 0f       	add	r22, r24
    5300:	79 1f       	adc	r23, r25
    5302:	db cf       	rjmp	.-74     	; 0x52ba <mirror_z+0x2e>
    5304:	c0 5c       	subi	r28, 0xC0	; 192
    5306:	df 4f       	sbci	r29, 0xFF	; 255
    5308:	0f b6       	in	r0, 0x3f	; 63
    530a:	f8 94       	cli
    530c:	de bf       	out	0x3e, r29	; 62
    530e:	0f be       	out	0x3f, r0	; 63
    5310:	cd bf       	out	0x3d, r28	; 61
    5312:	df 91       	pop	r29
    5314:	cf 91       	pop	r28
    5316:	08 95       	ret

00005318 <effect_test>:
    5318:	8f 92       	push	r8
    531a:	9f 92       	push	r9
    531c:	af 92       	push	r10
    531e:	bf 92       	push	r11
    5320:	cf 92       	push	r12
    5322:	df 92       	push	r13
    5324:	ef 92       	push	r14
    5326:	ff 92       	push	r15
    5328:	cf 93       	push	r28
    532a:	df 93       	push	r29
    532c:	c0 e0       	ldi	r28, 0x00	; 0
    532e:	d0 e0       	ldi	r29, 0x00	; 0
    5330:	be 01       	movw	r22, r28
    5332:	83 e0       	ldi	r24, 0x03	; 3
    5334:	75 95       	asr	r23
    5336:	67 95       	ror	r22
    5338:	8a 95       	dec	r24
    533a:	e1 f7       	brne	.-8      	; 0x5334 <effect_test+0x1c>
    533c:	88 27       	eor	r24, r24
    533e:	77 fd       	sbrc	r23, 7
    5340:	80 95       	com	r24
    5342:	98 2f       	mov	r25, r24
    5344:	0e 94 78 52 	call	0xa4f0	; 0xa4f0 <__floatsisf>
    5348:	6b 01       	movw	r12, r22
    534a:	7c 01       	movw	r14, r24
    534c:	0e 94 a0 53 	call	0xa740	; 0xa740 <sin>
    5350:	9b 01       	movw	r18, r22
    5352:	ac 01       	movw	r20, r24
    5354:	0e 94 76 51 	call	0xa2ec	; 0xa2ec <__addsf3>
    5358:	20 e0       	ldi	r18, 0x00	; 0
    535a:	30 e0       	ldi	r19, 0x00	; 0
    535c:	40 e6       	ldi	r20, 0x60	; 96
    535e:	50 e4       	ldi	r21, 0x40	; 64
    5360:	0e 94 76 51 	call	0xa2ec	; 0xa2ec <__addsf3>
    5364:	0e 94 45 52 	call	0xa48a	; 0xa48a <__fixsfsi>
    5368:	4b 01       	movw	r8, r22
    536a:	5c 01       	movw	r10, r24
    536c:	c7 01       	movw	r24, r14
    536e:	b6 01       	movw	r22, r12
    5370:	0e 94 da 51 	call	0xa3b4	; 0xa3b4 <cos>
    5374:	9b 01       	movw	r18, r22
    5376:	ac 01       	movw	r20, r24
    5378:	0e 94 76 51 	call	0xa2ec	; 0xa2ec <__addsf3>
    537c:	20 e0       	ldi	r18, 0x00	; 0
    537e:	30 e0       	ldi	r19, 0x00	; 0
    5380:	40 e6       	ldi	r20, 0x60	; 96
    5382:	50 e4       	ldi	r21, 0x40	; 64
    5384:	0e 94 76 51 	call	0xa2ec	; 0xa2ec <__addsf3>
    5388:	0e 94 45 52 	call	0xa48a	; 0xa48a <__fixsfsi>
    538c:	6b 01       	movw	r12, r22
    538e:	7c 01       	movw	r14, r24
    5390:	c4 01       	movw	r24, r8
    5392:	b6 01       	movw	r22, r12
    5394:	41 e0       	ldi	r20, 0x01	; 1
    5396:	50 e0       	ldi	r21, 0x00	; 0
    5398:	0e 94 3b 23 	call	0x4676	; 0x4676 <setvoxel>
    539c:	c4 01       	movw	r24, r8
    539e:	b6 01       	movw	r22, r12
    53a0:	41 e0       	ldi	r20, 0x01	; 1
    53a2:	50 e0       	ldi	r21, 0x00	; 0
    53a4:	0e 94 3b 23 	call	0x4676	; 0x4676 <setvoxel>
    53a8:	88 ee       	ldi	r24, 0xE8	; 232
    53aa:	93 e0       	ldi	r25, 0x03	; 3
    53ac:	0e 94 a7 27 	call	0x4f4e	; 0x4f4e <delay_ms>
    53b0:	80 e0       	ldi	r24, 0x00	; 0
    53b2:	0e 94 87 24 	call	0x490e	; 0x490e <fill>
    53b6:	21 96       	adiw	r28, 0x01	; 1
    53b8:	83 e0       	ldi	r24, 0x03	; 3
    53ba:	c8 3e       	cpi	r28, 0xE8	; 232
    53bc:	d8 07       	cpc	r29, r24
    53be:	09 f0       	breq	.+2      	; 0x53c2 <effect_test+0xaa>
    53c0:	b7 cf       	rjmp	.-146    	; 0x5330 <effect_test+0x18>
    53c2:	df 91       	pop	r29
    53c4:	cf 91       	pop	r28
    53c6:	ff 90       	pop	r15
    53c8:	ef 90       	pop	r14
    53ca:	df 90       	pop	r13
    53cc:	cf 90       	pop	r12
    53ce:	bf 90       	pop	r11
    53d0:	af 90       	pop	r10
    53d2:	9f 90       	pop	r9
    53d4:	8f 90       	pop	r8
    53d6:	08 95       	ret

000053d8 <effect_stringfly2>:
    53d8:	6f 92       	push	r6
    53da:	7f 92       	push	r7
    53dc:	8f 92       	push	r8
    53de:	9f 92       	push	r9
    53e0:	af 92       	push	r10
    53e2:	bf 92       	push	r11
    53e4:	cf 92       	push	r12
    53e6:	df 92       	push	r13
    53e8:	ef 92       	push	r14
    53ea:	ff 92       	push	r15
    53ec:	0f 93       	push	r16
    53ee:	1f 93       	push	r17
    53f0:	cf 93       	push	r28
    53f2:	df 93       	push	r29
    53f4:	00 d0       	rcall	.+0      	; 0x53f6 <effect_stringfly2+0x1e>
    53f6:	00 d0       	rcall	.+0      	; 0x53f8 <effect_stringfly2+0x20>
    53f8:	0f 92       	push	r0
    53fa:	cd b7       	in	r28, 0x3d	; 61
    53fc:	de b7       	in	r29, 0x3e	; 62
    53fe:	6c 01       	movw	r12, r24
    5400:	30 e8       	ldi	r19, 0x80	; 128
    5402:	a3 2e       	mov	r10, r19
    5404:	b1 2c       	mov	r11, r1
    5406:	46 c0       	rjmp	.+140    	; 0x5494 <effect_stringfly2+0xbc>
    5408:	be 01       	movw	r22, r28
    540a:	6f 5f       	subi	r22, 0xFF	; 255
    540c:	7f 4f       	sbci	r23, 0xFF	; 255
    540e:	0e 94 75 39 	call	0x72ea	; 0x72ea <font_getchar>
    5412:	00 e0       	ldi	r16, 0x00	; 0
    5414:	10 e0       	ldi	r17, 0x00	; 0
    5416:	21 c0       	rjmp	.+66     	; 0x545a <effect_stringfly2+0x82>
    5418:	95 01       	movw	r18, r10
    541a:	0e 2c       	mov	r0, r14
    541c:	02 c0       	rjmp	.+4      	; 0x5422 <effect_stringfly2+0x4a>
    541e:	35 95       	asr	r19
    5420:	27 95       	ror	r18
    5422:	0a 94       	dec	r0
    5424:	e2 f7       	brpl	.-8      	; 0x541e <effect_stringfly2+0x46>
    5426:	f4 01       	movw	r30, r8
    5428:	80 81       	ld	r24, Z
    542a:	90 e0       	ldi	r25, 0x00	; 0
    542c:	28 23       	and	r18, r24
    542e:	39 23       	and	r19, r25
    5430:	21 15       	cp	r18, r1
    5432:	31 05       	cpc	r19, r1
    5434:	31 f0       	breq	.+12     	; 0x5442 <effect_stringfly2+0x6a>
    5436:	87 e0       	ldi	r24, 0x07	; 7
    5438:	90 e0       	ldi	r25, 0x00	; 0
    543a:	b3 01       	movw	r22, r6
    543c:	a7 01       	movw	r20, r14
    543e:	0e 94 3b 23 	call	0x4676	; 0x4676 <setvoxel>
    5442:	08 94       	sec
    5444:	e1 1c       	adc	r14, r1
    5446:	f1 1c       	adc	r15, r1
    5448:	f8 e0       	ldi	r31, 0x08	; 8
    544a:	ef 16       	cp	r14, r31
    544c:	f1 04       	cpc	r15, r1
    544e:	21 f7       	brne	.-56     	; 0x5418 <effect_stringfly2+0x40>
    5450:	0f 5f       	subi	r16, 0xFF	; 255
    5452:	1f 4f       	sbci	r17, 0xFF	; 255
    5454:	05 30       	cpi	r16, 0x05	; 5
    5456:	11 05       	cpc	r17, r1
    5458:	79 f0       	breq	.+30     	; 0x5478 <effect_stringfly2+0xa0>
    545a:	ee 24       	eor	r14, r14
    545c:	ff 24       	eor	r15, r15
    545e:	91 e0       	ldi	r25, 0x01	; 1
    5460:	89 2e       	mov	r8, r25
    5462:	91 2c       	mov	r9, r1
    5464:	8c 0e       	add	r8, r28
    5466:	9d 1e       	adc	r9, r29
    5468:	80 0e       	add	r8, r16
    546a:	91 1e       	adc	r9, r17
    546c:	22 e0       	ldi	r18, 0x02	; 2
    546e:	62 2e       	mov	r6, r18
    5470:	71 2c       	mov	r7, r1
    5472:	60 0e       	add	r6, r16
    5474:	71 1e       	adc	r7, r17
    5476:	d0 cf       	rjmp	.-96     	; 0x5418 <effect_stringfly2+0x40>
    5478:	06 e0       	ldi	r16, 0x06	; 6
    547a:	10 e0       	ldi	r17, 0x00	; 0
    547c:	88 ee       	ldi	r24, 0xE8	; 232
    547e:	93 e0       	ldi	r25, 0x03	; 3
    5480:	0e 94 a7 27 	call	0x4f4e	; 0x4f4e <delay_ms>
    5484:	88 e7       	ldi	r24, 0x78	; 120
    5486:	6f ef       	ldi	r22, 0xFF	; 255
    5488:	7f ef       	ldi	r23, 0xFF	; 255
    548a:	0e 94 bf 27 	call	0x4f7e	; 0x4f7e <shift>
    548e:	01 50       	subi	r16, 0x01	; 1
    5490:	10 40       	sbci	r17, 0x00	; 0
    5492:	a1 f7       	brne	.-24     	; 0x547c <effect_stringfly2+0xa4>
    5494:	f6 01       	movw	r30, r12
    5496:	81 91       	ld	r24, Z+
    5498:	6f 01       	movw	r12, r30
    549a:	88 23       	and	r24, r24
    549c:	09 f0       	breq	.+2      	; 0x54a0 <effect_stringfly2+0xc8>
    549e:	b4 cf       	rjmp	.-152    	; 0x5408 <effect_stringfly2+0x30>
    54a0:	08 e0       	ldi	r16, 0x08	; 8
    54a2:	10 e0       	ldi	r17, 0x00	; 0
    54a4:	88 ee       	ldi	r24, 0xE8	; 232
    54a6:	93 e0       	ldi	r25, 0x03	; 3
    54a8:	0e 94 a7 27 	call	0x4f4e	; 0x4f4e <delay_ms>
    54ac:	88 e7       	ldi	r24, 0x78	; 120
    54ae:	6f ef       	ldi	r22, 0xFF	; 255
    54b0:	7f ef       	ldi	r23, 0xFF	; 255
    54b2:	0e 94 bf 27 	call	0x4f7e	; 0x4f7e <shift>
    54b6:	01 50       	subi	r16, 0x01	; 1
    54b8:	10 40       	sbci	r17, 0x00	; 0
    54ba:	a1 f7       	brne	.-24     	; 0x54a4 <effect_stringfly2+0xcc>
    54bc:	0f 90       	pop	r0
    54be:	0f 90       	pop	r0
    54c0:	0f 90       	pop	r0
    54c2:	0f 90       	pop	r0
    54c4:	0f 90       	pop	r0
    54c6:	df 91       	pop	r29
    54c8:	cf 91       	pop	r28
    54ca:	1f 91       	pop	r17
    54cc:	0f 91       	pop	r16
    54ce:	ff 90       	pop	r15
    54d0:	ef 90       	pop	r14
    54d2:	df 90       	pop	r13
    54d4:	cf 90       	pop	r12
    54d6:	bf 90       	pop	r11
    54d8:	af 90       	pop	r10
    54da:	9f 90       	pop	r9
    54dc:	8f 90       	pop	r8
    54de:	7f 90       	pop	r7
    54e0:	6f 90       	pop	r6
    54e2:	08 95       	ret

000054e4 <effect_planboing>:
    54e4:	0f 93       	push	r16
    54e6:	1f 93       	push	r17
    54e8:	cf 93       	push	r28
    54ea:	df 93       	push	r29
    54ec:	c8 2f       	mov	r28, r24
    54ee:	d6 2f       	mov	r29, r22
    54f0:	07 2f       	mov	r16, r23
    54f2:	10 e0       	ldi	r17, 0x00	; 0
    54f4:	80 e0       	ldi	r24, 0x00	; 0
    54f6:	0e 94 87 24 	call	0x490e	; 0x490e <fill>
    54fa:	8c 2f       	mov	r24, r28
    54fc:	61 2f       	mov	r22, r17
    54fe:	0e 94 5f 24 	call	0x48be	; 0x48be <setplane>
    5502:	8d 2f       	mov	r24, r29
    5504:	90 2f       	mov	r25, r16
    5506:	0e 94 a7 27 	call	0x4f4e	; 0x4f4e <delay_ms>
    550a:	1f 5f       	subi	r17, 0xFF	; 255
    550c:	18 30       	cpi	r17, 0x08	; 8
    550e:	91 f7       	brne	.-28     	; 0x54f4 <effect_planboing+0x10>
    5510:	17 e0       	ldi	r17, 0x07	; 7
    5512:	80 e0       	ldi	r24, 0x00	; 0
    5514:	0e 94 87 24 	call	0x490e	; 0x490e <fill>
    5518:	8c 2f       	mov	r24, r28
    551a:	61 2f       	mov	r22, r17
    551c:	0e 94 5f 24 	call	0x48be	; 0x48be <setplane>
    5520:	8d 2f       	mov	r24, r29
    5522:	90 2f       	mov	r25, r16
    5524:	0e 94 a7 27 	call	0x4f4e	; 0x4f4e <delay_ms>
    5528:	11 50       	subi	r17, 0x01	; 1
    552a:	98 f7       	brcc	.-26     	; 0x5512 <effect_planboing+0x2e>
    552c:	df 91       	pop	r29
    552e:	cf 91       	pop	r28
    5530:	1f 91       	pop	r17
    5532:	0f 91       	pop	r16
    5534:	08 95       	ret

00005536 <effect_blinky2>:
    5536:	af 92       	push	r10
    5538:	bf 92       	push	r11
    553a:	cf 92       	push	r12
    553c:	df 92       	push	r13
    553e:	ef 92       	push	r14
    5540:	ff 92       	push	r15
    5542:	0f 93       	push	r16
    5544:	1f 93       	push	r17
    5546:	cf 93       	push	r28
    5548:	df 93       	push	r29
    554a:	80 e0       	ldi	r24, 0x00	; 0
    554c:	0e 94 87 24 	call	0x490e	; 0x490e <fill>
    5550:	02 e0       	ldi	r16, 0x02	; 2
    5552:	10 e0       	ldi	r17, 0x00	; 0
    5554:	46 ef       	ldi	r20, 0xF6	; 246
    5556:	e4 2e       	mov	r14, r20
    5558:	4f ef       	ldi	r20, 0xFF	; 255
    555a:	f4 2e       	mov	r15, r20
    555c:	58 ee       	ldi	r21, 0xE8	; 232
    555e:	c5 2e       	mov	r12, r21
    5560:	53 e0       	ldi	r21, 0x03	; 3
    5562:	d5 2e       	mov	r13, r21
    5564:	6f ee       	ldi	r22, 0xEF	; 239
    5566:	a6 2e       	mov	r10, r22
    5568:	62 e0       	ldi	r22, 0x02	; 2
    556a:	b6 2e       	mov	r11, r22
    556c:	41 c0       	rjmp	.+130    	; 0x55f0 <effect_blinky2+0xba>
    556e:	80 e0       	ldi	r24, 0x00	; 0
    5570:	0e 94 87 24 	call	0x490e	; 0x490e <fill>
    5574:	ce 01       	movw	r24, r28
    5576:	0e 94 a7 27 	call	0x4f4e	; 0x4f4e <delay_ms>
    557a:	8f ef       	ldi	r24, 0xFF	; 255
    557c:	0e 94 87 24 	call	0x490e	; 0x490e <fill>
    5580:	84 e6       	ldi	r24, 0x64	; 100
    5582:	90 e0       	ldi	r25, 0x00	; 0
    5584:	0e 94 a7 27 	call	0x4f4e	; 0x4f4e <delay_ms>
    5588:	ce 01       	movw	r24, r28
    558a:	b7 01       	movw	r22, r14
    558c:	0e 94 f6 53 	call	0xa7ec	; 0xa7ec <__divmodhi4>
    5590:	c6 01       	movw	r24, r12
    5592:	0e 94 f6 53 	call	0xa7ec	; 0xa7ec <__divmodhi4>
    5596:	6f 50       	subi	r22, 0x0F	; 15
    5598:	70 40       	sbci	r23, 0x00	; 0
    559a:	c6 0f       	add	r28, r22
    559c:	d7 1f       	adc	r29, r23
    559e:	1c 16       	cp	r1, r28
    55a0:	1d 06       	cpc	r1, r29
    55a2:	2c f3       	brlt	.-54     	; 0x556e <effect_blinky2+0x38>
    55a4:	88 ee       	ldi	r24, 0xE8	; 232
    55a6:	93 e0       	ldi	r25, 0x03	; 3
    55a8:	0e 94 a7 27 	call	0x4f4e	; 0x4f4e <delay_ms>
    55ac:	ce ee       	ldi	r28, 0xEE	; 238
    55ae:	d2 e0       	ldi	r29, 0x02	; 2
    55b0:	80 e0       	ldi	r24, 0x00	; 0
    55b2:	0e 94 87 24 	call	0x490e	; 0x490e <fill>
    55b6:	c5 01       	movw	r24, r10
    55b8:	8c 1b       	sub	r24, r28
    55ba:	9d 0b       	sbc	r25, r29
    55bc:	0e 94 a7 27 	call	0x4f4e	; 0x4f4e <delay_ms>
    55c0:	8f ef       	ldi	r24, 0xFF	; 255
    55c2:	0e 94 87 24 	call	0x490e	; 0x490e <fill>
    55c6:	84 e6       	ldi	r24, 0x64	; 100
    55c8:	90 e0       	ldi	r25, 0x00	; 0
    55ca:	0e 94 a7 27 	call	0x4f4e	; 0x4f4e <delay_ms>
    55ce:	ce 01       	movw	r24, r28
    55d0:	b7 01       	movw	r22, r14
    55d2:	0e 94 f6 53 	call	0xa7ec	; 0xa7ec <__divmodhi4>
    55d6:	c6 01       	movw	r24, r12
    55d8:	0e 94 f6 53 	call	0xa7ec	; 0xa7ec <__divmodhi4>
    55dc:	6f 50       	subi	r22, 0x0F	; 15
    55de:	70 40       	sbci	r23, 0x00	; 0
    55e0:	c6 0f       	add	r28, r22
    55e2:	d7 1f       	adc	r29, r23
    55e4:	1c 16       	cp	r1, r28
    55e6:	1d 06       	cpc	r1, r29
    55e8:	1c f3       	brlt	.-58     	; 0x55b0 <effect_blinky2+0x7a>
    55ea:	01 50       	subi	r16, 0x01	; 1
    55ec:	10 40       	sbci	r17, 0x00	; 0
    55ee:	19 f0       	breq	.+6      	; 0x55f6 <effect_blinky2+0xc0>
    55f0:	ce ee       	ldi	r28, 0xEE	; 238
    55f2:	d2 e0       	ldi	r29, 0x02	; 2
    55f4:	bc cf       	rjmp	.-136    	; 0x556e <effect_blinky2+0x38>
    55f6:	df 91       	pop	r29
    55f8:	cf 91       	pop	r28
    55fa:	1f 91       	pop	r17
    55fc:	0f 91       	pop	r16
    55fe:	ff 90       	pop	r15
    5600:	ef 90       	pop	r14
    5602:	df 90       	pop	r13
    5604:	cf 90       	pop	r12
    5606:	bf 90       	pop	r11
    5608:	af 90       	pop	r10
    560a:	08 95       	ret

0000560c <effect_box_shrink_grow>:
    560c:	2f 92       	push	r2
    560e:	3f 92       	push	r3
    5610:	4f 92       	push	r4
    5612:	5f 92       	push	r5
    5614:	6f 92       	push	r6
    5616:	7f 92       	push	r7
    5618:	8f 92       	push	r8
    561a:	9f 92       	push	r9
    561c:	af 92       	push	r10
    561e:	bf 92       	push	r11
    5620:	cf 92       	push	r12
    5622:	df 92       	push	r13
    5624:	ef 92       	push	r14
    5626:	ff 92       	push	r15
    5628:	0f 93       	push	r16
    562a:	1f 93       	push	r17
    562c:	cf 93       	push	r28
    562e:	df 93       	push	r29
    5630:	00 d0       	rcall	.+0      	; 0x5632 <effect_box_shrink_grow+0x26>
    5632:	00 d0       	rcall	.+0      	; 0x5634 <effect_box_shrink_grow+0x28>
    5634:	cd b7       	in	r28, 0x3d	; 61
    5636:	de b7       	in	r29, 0x3e	; 62
    5638:	3c 01       	movw	r6, r24
    563a:	5b 01       	movw	r10, r22
    563c:	2a 01       	movw	r4, r20
    563e:	19 01       	movw	r2, r18
    5640:	cc 24       	eor	r12, r12
    5642:	dd 24       	eor	r13, r13
    5644:	e7 e0       	ldi	r30, 0x07	; 7
    5646:	8e 2e       	mov	r8, r30
    5648:	91 2c       	mov	r9, r1
    564a:	cb 01       	movw	r24, r22
    564c:	02 97       	sbiw	r24, 0x02	; 2
    564e:	9a 83       	std	Y+2, r25	; 0x02
    5650:	89 83       	std	Y+1, r24	; 0x01
    5652:	4e c0       	rjmp	.+156    	; 0x56f0 <effect_box_shrink_grow+0xe4>
    5654:	1c 82       	std	Y+4, r1	; 0x04
    5656:	1b 82       	std	Y+3, r1	; 0x03
    5658:	eb 81       	ldd	r30, Y+3	; 0x03
    565a:	fc 81       	ldd	r31, Y+4	; 0x04
    565c:	e8 30       	cpi	r30, 0x08	; 8
    565e:	f1 05       	cpc	r31, r1
    5660:	24 f4       	brge	.+8      	; 0x566a <effect_box_shrink_grow+0x5e>
    5662:	74 01       	movw	r14, r8
    5664:	ee 1a       	sub	r14, r30
    5666:	ff 0a       	sbc	r15, r31
    5668:	08 c0       	rjmp	.+16     	; 0x567a <effect_box_shrink_grow+0x6e>
    566a:	78 ef       	ldi	r23, 0xF8	; 248
    566c:	e7 2e       	mov	r14, r23
    566e:	7f ef       	ldi	r23, 0xFF	; 255
    5670:	f7 2e       	mov	r15, r23
    5672:	8b 81       	ldd	r24, Y+3	; 0x03
    5674:	9c 81       	ldd	r25, Y+4	; 0x04
    5676:	e8 0e       	add	r14, r24
    5678:	f9 1e       	adc	r15, r25
    567a:	80 e0       	ldi	r24, 0x00	; 0
    567c:	0e 94 87 24 	call	0x490e	; 0x490e <fill>
    5680:	81 e0       	ldi	r24, 0x01	; 1
    5682:	90 e0       	ldi	r25, 0x00	; 0
    5684:	0e 94 a7 27 	call	0x4f4e	; 0x4f4e <delay_ms>
    5688:	f8 94       	cli
    568a:	80 e0       	ldi	r24, 0x00	; 0
    568c:	90 e0       	ldi	r25, 0x00	; 0
    568e:	60 e0       	ldi	r22, 0x00	; 0
    5690:	70 e0       	ldi	r23, 0x00	; 0
    5692:	40 e0       	ldi	r20, 0x00	; 0
    5694:	50 e0       	ldi	r21, 0x00	; 0
    5696:	97 01       	movw	r18, r14
    5698:	87 01       	movw	r16, r14
    569a:	0e 94 cb 24 	call	0x4996	; 0x4996 <box_wireframe>
    569e:	14 14       	cp	r1, r4
    56a0:	15 04       	cpc	r1, r5
    56a2:	14 f4       	brge	.+4      	; 0x56a8 <effect_box_shrink_grow+0x9c>
    56a4:	0e 94 46 29 	call	0x528c	; 0x528c <mirror_z>
    56a8:	91 e0       	ldi	r25, 0x01	; 1
    56aa:	a9 16       	cp	r10, r25
    56ac:	b1 04       	cpc	r11, r1
    56ae:	21 f0       	breq	.+8      	; 0x56b8 <effect_box_shrink_grow+0xac>
    56b0:	e3 e0       	ldi	r30, 0x03	; 3
    56b2:	ae 16       	cp	r10, r30
    56b4:	b1 04       	cpc	r11, r1
    56b6:	11 f4       	brne	.+4      	; 0x56bc <effect_box_shrink_grow+0xb0>
    56b8:	0e 94 71 28 	call	0x50e2	; 0x50e2 <mirror_y>
    56bc:	89 81       	ldd	r24, Y+1	; 0x01
    56be:	9a 81       	ldd	r25, Y+2	; 0x02
    56c0:	82 30       	cpi	r24, 0x02	; 2
    56c2:	91 05       	cpc	r25, r1
    56c4:	10 f4       	brcc	.+4      	; 0x56ca <effect_box_shrink_grow+0xbe>
    56c6:	0e 94 ea 28 	call	0x51d4	; 0x51d4 <mirror_x>
    56ca:	78 94       	sei
    56cc:	c1 01       	movw	r24, r2
    56ce:	0e 94 a7 27 	call	0x4f4e	; 0x4f4e <delay_ms>
    56d2:	80 e0       	ldi	r24, 0x00	; 0
    56d4:	0e 94 87 24 	call	0x490e	; 0x490e <fill>
    56d8:	eb 81       	ldd	r30, Y+3	; 0x03
    56da:	fc 81       	ldd	r31, Y+4	; 0x04
    56dc:	31 96       	adiw	r30, 0x01	; 1
    56de:	fc 83       	std	Y+4, r31	; 0x04
    56e0:	eb 83       	std	Y+3, r30	; 0x03
    56e2:	e0 31       	cpi	r30, 0x10	; 16
    56e4:	f1 05       	cpc	r31, r1
    56e6:	09 f0       	breq	.+2      	; 0x56ea <effect_box_shrink_grow+0xde>
    56e8:	b7 cf       	rjmp	.-146    	; 0x5658 <effect_box_shrink_grow+0x4c>
    56ea:	08 94       	sec
    56ec:	c1 1c       	adc	r12, r1
    56ee:	d1 1c       	adc	r13, r1
    56f0:	c6 14       	cp	r12, r6
    56f2:	d7 04       	cpc	r13, r7
    56f4:	0c f4       	brge	.+2      	; 0x56f8 <effect_box_shrink_grow+0xec>
    56f6:	ae cf       	rjmp	.-164    	; 0x5654 <effect_box_shrink_grow+0x48>
    56f8:	0f 90       	pop	r0
    56fa:	0f 90       	pop	r0
    56fc:	0f 90       	pop	r0
    56fe:	0f 90       	pop	r0
    5700:	df 91       	pop	r29
    5702:	cf 91       	pop	r28
    5704:	1f 91       	pop	r17
    5706:	0f 91       	pop	r16
    5708:	ff 90       	pop	r15
    570a:	ef 90       	pop	r14
    570c:	df 90       	pop	r13
    570e:	cf 90       	pop	r12
    5710:	bf 90       	pop	r11
    5712:	af 90       	pop	r10
    5714:	9f 90       	pop	r9
    5716:	8f 90       	pop	r8
    5718:	7f 90       	pop	r7
    571a:	6f 90       	pop	r6
    571c:	5f 90       	pop	r5
    571e:	4f 90       	pop	r4
    5720:	3f 90       	pop	r3
    5722:	2f 90       	pop	r2
    5724:	08 95       	ret

00005726 <effect_box_woopwoop>:
    5726:	8f 92       	push	r8
    5728:	9f 92       	push	r9
    572a:	af 92       	push	r10
    572c:	bf 92       	push	r11
    572e:	cf 92       	push	r12
    5730:	df 92       	push	r13
    5732:	ef 92       	push	r14
    5734:	ff 92       	push	r15
    5736:	0f 93       	push	r16
    5738:	1f 93       	push	r17
    573a:	cf 93       	push	r28
    573c:	df 93       	push	r29
    573e:	5c 01       	movw	r10, r24
    5740:	4b 01       	movw	r8, r22
    5742:	80 e0       	ldi	r24, 0x00	; 0
    5744:	0e 94 87 24 	call	0x490e	; 0x490e <fill>
    5748:	c0 e0       	ldi	r28, 0x00	; 0
    574a:	d0 e0       	ldi	r29, 0x00	; 0
    574c:	f3 e0       	ldi	r31, 0x03	; 3
    574e:	cf 2e       	mov	r12, r31
    5750:	d1 2c       	mov	r13, r1
    5752:	18 14       	cp	r1, r8
    5754:	19 04       	cpc	r1, r9
    5756:	24 f4       	brge	.+8      	; 0x5760 <effect_box_woopwoop+0x3a>
    5758:	c6 01       	movw	r24, r12
    575a:	8c 1b       	sub	r24, r28
    575c:	9d 0b       	sbc	r25, r29
    575e:	01 c0       	rjmp	.+2      	; 0x5762 <effect_box_woopwoop+0x3c>
    5760:	ce 01       	movw	r24, r28
    5762:	ac 01       	movw	r20, r24
    5764:	4c 5f       	subi	r20, 0xFC	; 252
    5766:	5f 4f       	sbci	r21, 0xFF	; 255
    5768:	76 01       	movw	r14, r12
    576a:	e8 1a       	sub	r14, r24
    576c:	f9 0a       	sbc	r15, r25
    576e:	ca 01       	movw	r24, r20
    5770:	ba 01       	movw	r22, r20
    5772:	97 01       	movw	r18, r14
    5774:	87 01       	movw	r16, r14
    5776:	0e 94 cb 24 	call	0x4996	; 0x4996 <box_wireframe>
    577a:	c5 01       	movw	r24, r10
    577c:	0e 94 a7 27 	call	0x4f4e	; 0x4f4e <delay_ms>
    5780:	80 e0       	ldi	r24, 0x00	; 0
    5782:	0e 94 87 24 	call	0x490e	; 0x490e <fill>
    5786:	21 96       	adiw	r28, 0x01	; 1
    5788:	c4 30       	cpi	r28, 0x04	; 4
    578a:	d1 05       	cpc	r29, r1
    578c:	11 f7       	brne	.-60     	; 0x5752 <effect_box_woopwoop+0x2c>
    578e:	df 91       	pop	r29
    5790:	cf 91       	pop	r28
    5792:	1f 91       	pop	r17
    5794:	0f 91       	pop	r16
    5796:	ff 90       	pop	r15
    5798:	ef 90       	pop	r14
    579a:	df 90       	pop	r13
    579c:	cf 90       	pop	r12
    579e:	bf 90       	pop	r11
    57a0:	af 90       	pop	r10
    57a2:	9f 90       	pop	r9
    57a4:	8f 90       	pop	r8
    57a6:	08 95       	ret

000057a8 <sendvoxel_z>:
    57a8:	6f 92       	push	r6
    57aa:	7f 92       	push	r7
    57ac:	9f 92       	push	r9
    57ae:	af 92       	push	r10
    57b0:	bf 92       	push	r11
    57b2:	cf 92       	push	r12
    57b4:	df 92       	push	r13
    57b6:	ef 92       	push	r14
    57b8:	ff 92       	push	r15
    57ba:	0f 93       	push	r16
    57bc:	1f 93       	push	r17
    57be:	cf 93       	push	r28
    57c0:	df 93       	push	r29
    57c2:	f8 2e       	mov	r15, r24
    57c4:	e6 2e       	mov	r14, r22
    57c6:	94 2e       	mov	r9, r20
    57c8:	39 01       	movw	r6, r18
    57ca:	00 e0       	ldi	r16, 0x00	; 0
    57cc:	10 e0       	ldi	r17, 0x00	; 0
    57ce:	a7 e0       	ldi	r26, 0x07	; 7
    57d0:	ca 2e       	mov	r12, r26
    57d2:	d1 2c       	mov	r13, r1
    57d4:	b8 e0       	ldi	r27, 0x08	; 8
    57d6:	ab 2e       	mov	r10, r27
    57d8:	b1 2c       	mov	r11, r1
    57da:	87 e0       	ldi	r24, 0x07	; 7
    57dc:	98 16       	cp	r9, r24
    57de:	69 f4       	brne	.+26     	; 0x57fa <sendvoxel_z+0x52>
    57e0:	e6 01       	movw	r28, r12
    57e2:	c0 1b       	sub	r28, r16
    57e4:	d1 0b       	sbc	r29, r17
    57e6:	a5 01       	movw	r20, r10
    57e8:	40 1b       	sub	r20, r16
    57ea:	51 0b       	sbc	r21, r17
    57ec:	8f 2d       	mov	r24, r15
    57ee:	90 e0       	ldi	r25, 0x00	; 0
    57f0:	6e 2d       	mov	r22, r14
    57f2:	70 e0       	ldi	r23, 0x00	; 0
    57f4:	0e 94 f0 22 	call	0x45e0	; 0x45e0 <clrvoxel>
    57f8:	0a c0       	rjmp	.+20     	; 0x580e <sendvoxel_z+0x66>
    57fa:	a8 01       	movw	r20, r16
    57fc:	41 50       	subi	r20, 0x01	; 1
    57fe:	50 40       	sbci	r21, 0x00	; 0
    5800:	8f 2d       	mov	r24, r15
    5802:	90 e0       	ldi	r25, 0x00	; 0
    5804:	6e 2d       	mov	r22, r14
    5806:	70 e0       	ldi	r23, 0x00	; 0
    5808:	0e 94 f0 22 	call	0x45e0	; 0x45e0 <clrvoxel>
    580c:	e8 01       	movw	r28, r16
    580e:	8f 2d       	mov	r24, r15
    5810:	90 e0       	ldi	r25, 0x00	; 0
    5812:	6e 2d       	mov	r22, r14
    5814:	70 e0       	ldi	r23, 0x00	; 0
    5816:	ae 01       	movw	r20, r28
    5818:	0e 94 3b 23 	call	0x4676	; 0x4676 <setvoxel>
    581c:	c3 01       	movw	r24, r6
    581e:	0e 94 a7 27 	call	0x4f4e	; 0x4f4e <delay_ms>
    5822:	0f 5f       	subi	r16, 0xFF	; 255
    5824:	1f 4f       	sbci	r17, 0xFF	; 255
    5826:	08 30       	cpi	r16, 0x08	; 8
    5828:	11 05       	cpc	r17, r1
    582a:	b9 f6       	brne	.-82     	; 0x57da <sendvoxel_z+0x32>
    582c:	df 91       	pop	r29
    582e:	cf 91       	pop	r28
    5830:	1f 91       	pop	r17
    5832:	0f 91       	pop	r16
    5834:	ff 90       	pop	r15
    5836:	ef 90       	pop	r14
    5838:	df 90       	pop	r13
    583a:	cf 90       	pop	r12
    583c:	bf 90       	pop	r11
    583e:	af 90       	pop	r10
    5840:	9f 90       	pop	r9
    5842:	7f 90       	pop	r7
    5844:	6f 90       	pop	r6
    5846:	08 95       	ret

00005848 <sendplane_rand_z>:
    5848:	af 92       	push	r10
    584a:	bf 92       	push	r11
    584c:	cf 92       	push	r12
    584e:	df 92       	push	r13
    5850:	ef 92       	push	r14
    5852:	ff 92       	push	r15
    5854:	0f 93       	push	r16
    5856:	1f 93       	push	r17
    5858:	cf 93       	push	r28
    585a:	df 93       	push	r29
    585c:	c8 2f       	mov	r28, r24
    585e:	6b 01       	movw	r12, r22
    5860:	5a 01       	movw	r10, r20
    5862:	80 e0       	ldi	r24, 0x00	; 0
    5864:	0e 94 87 24 	call	0x490e	; 0x490e <fill>
    5868:	8c 2f       	mov	r24, r28
    586a:	90 e0       	ldi	r25, 0x00	; 0
    586c:	0e 94 c2 23 	call	0x4784	; 0x4784 <setplane_z>
    5870:	11 e1       	ldi	r17, 0x11	; 17
    5872:	d4 e0       	ldi	r29, 0x04	; 4
    5874:	ed 2e       	mov	r14, r29
    5876:	f1 2c       	mov	r15, r1
    5878:	1f c0       	rjmp	.+62     	; 0x58b8 <sendplane_rand_z+0x70>
    587a:	0e 94 72 54 	call	0xa8e4	; 0xa8e4 <rand>
    587e:	b7 01       	movw	r22, r14
    5880:	0e 94 f6 53 	call	0xa7ec	; 0xa7ec <__divmodhi4>
    5884:	d8 2f       	mov	r29, r24
    5886:	0e 94 72 54 	call	0xa8e4	; 0xa8e4 <rand>
    588a:	b7 01       	movw	r22, r14
    588c:	0e 94 f6 53 	call	0xa7ec	; 0xa7ec <__divmodhi4>
    5890:	08 2f       	mov	r16, r24
    5892:	8d 2f       	mov	r24, r29
    5894:	90 e0       	ldi	r25, 0x00	; 0
    5896:	60 2f       	mov	r22, r16
    5898:	70 e0       	ldi	r23, 0x00	; 0
    589a:	4c 2f       	mov	r20, r28
    589c:	50 e0       	ldi	r21, 0x00	; 0
    589e:	0e 94 60 23 	call	0x46c0	; 0x46c0 <getvoxel>
    58a2:	88 23       	and	r24, r24
    58a4:	51 f3       	breq	.-44     	; 0x587a <sendplane_rand_z+0x32>
    58a6:	8d 2f       	mov	r24, r29
    58a8:	60 2f       	mov	r22, r16
    58aa:	4c 2f       	mov	r20, r28
    58ac:	96 01       	movw	r18, r12
    58ae:	0e 94 d4 2b 	call	0x57a8	; 0x57a8 <sendvoxel_z>
    58b2:	c5 01       	movw	r24, r10
    58b4:	0e 94 a7 27 	call	0x4f4e	; 0x4f4e <delay_ms>
    58b8:	11 50       	subi	r17, 0x01	; 1
    58ba:	f9 f6       	brne	.-66     	; 0x587a <sendplane_rand_z+0x32>
    58bc:	df 91       	pop	r29
    58be:	cf 91       	pop	r28
    58c0:	1f 91       	pop	r17
    58c2:	0f 91       	pop	r16
    58c4:	ff 90       	pop	r15
    58c6:	ef 90       	pop	r14
    58c8:	df 90       	pop	r13
    58ca:	cf 90       	pop	r12
    58cc:	bf 90       	pop	r11
    58ce:	af 90       	pop	r10
    58d0:	08 95       	ret

000058d2 <sendvoxels_rand_z>:
    58d2:	2f 92       	push	r2
    58d4:	3f 92       	push	r3
    58d6:	4f 92       	push	r4
    58d8:	5f 92       	push	r5
    58da:	6f 92       	push	r6
    58dc:	7f 92       	push	r7
    58de:	8f 92       	push	r8
    58e0:	9f 92       	push	r9
    58e2:	af 92       	push	r10
    58e4:	bf 92       	push	r11
    58e6:	df 92       	push	r13
    58e8:	ef 92       	push	r14
    58ea:	ff 92       	push	r15
    58ec:	0f 93       	push	r16
    58ee:	1f 93       	push	r17
    58f0:	cf 93       	push	r28
    58f2:	df 93       	push	r29
    58f4:	1c 01       	movw	r2, r24
    58f6:	3b 01       	movw	r6, r22
    58f8:	2a 01       	movw	r4, r20
    58fa:	80 e0       	ldi	r24, 0x00	; 0
    58fc:	0e 94 87 24 	call	0x490e	; 0x490e <fill>
    5900:	00 e0       	ldi	r16, 0x00	; 0
    5902:	10 e0       	ldi	r17, 0x00	; 0
    5904:	32 e0       	ldi	r19, 0x02	; 2
    5906:	e3 2e       	mov	r14, r19
    5908:	f1 2c       	mov	r15, r1
    590a:	1a c0       	rjmp	.+52     	; 0x5940 <sendvoxels_rand_z+0x6e>
    590c:	0e 94 72 54 	call	0xa8e4	; 0xa8e4 <rand>
    5910:	b7 01       	movw	r22, r14
    5912:	0e 94 f6 53 	call	0xa7ec	; 0xa7ec <__divmodhi4>
    5916:	ac 01       	movw	r20, r24
    5918:	23 e0       	ldi	r18, 0x03	; 3
    591a:	44 0f       	add	r20, r20
    591c:	55 1f       	adc	r21, r21
    591e:	2a 95       	dec	r18
    5920:	e1 f7       	brne	.-8      	; 0x591a <sendvoxels_rand_z+0x48>
    5922:	48 1b       	sub	r20, r24
    5924:	59 0b       	sbc	r21, r25
    5926:	c8 01       	movw	r24, r16
    5928:	be 01       	movw	r22, r28
    592a:	0e 94 3b 23 	call	0x4676	; 0x4676 <setvoxel>
    592e:	21 96       	adiw	r28, 0x01	; 1
    5930:	c8 30       	cpi	r28, 0x08	; 8
    5932:	d1 05       	cpc	r29, r1
    5934:	59 f7       	brne	.-42     	; 0x590c <sendvoxels_rand_z+0x3a>
    5936:	0f 5f       	subi	r16, 0xFF	; 255
    5938:	1f 4f       	sbci	r17, 0xFF	; 255
    593a:	08 30       	cpi	r16, 0x08	; 8
    593c:	11 05       	cpc	r17, r1
    593e:	89 f1       	breq	.+98     	; 0x59a2 <sendvoxels_rand_z+0xd0>
    5940:	c0 e0       	ldi	r28, 0x00	; 0
    5942:	d0 e0       	ldi	r29, 0x00	; 0
    5944:	e3 cf       	rjmp	.-58     	; 0x590c <sendvoxels_rand_z+0x3a>
    5946:	0e 94 72 54 	call	0xa8e4	; 0xa8e4 <rand>
    594a:	4c 01       	movw	r8, r24
    594c:	0e 94 72 54 	call	0xa8e4	; 0xa8e4 <rand>
    5950:	b5 01       	movw	r22, r10
    5952:	0e 94 f6 53 	call	0xa7ec	; 0xa7ec <__divmodhi4>
    5956:	c8 2f       	mov	r28, r24
    5958:	f8 2e       	mov	r15, r24
    595a:	8e 15       	cp	r24, r14
    595c:	01 f1       	breq	.+64     	; 0x599e <sendvoxels_rand_z+0xcc>
    595e:	c4 01       	movw	r24, r8
    5960:	b5 01       	movw	r22, r10
    5962:	0e 94 f6 53 	call	0xa7ec	; 0xa7ec <__divmodhi4>
    5966:	d8 2f       	mov	r29, r24
    5968:	18 2f       	mov	r17, r24
    596a:	8d 15       	cp	r24, r13
    596c:	c1 f0       	breq	.+48     	; 0x599e <sendvoxels_rand_z+0xcc>
    596e:	90 e0       	ldi	r25, 0x00	; 0
    5970:	6c 2f       	mov	r22, r28
    5972:	70 e0       	ldi	r23, 0x00	; 0
    5974:	40 e0       	ldi	r20, 0x00	; 0
    5976:	50 e0       	ldi	r21, 0x00	; 0
    5978:	0e 94 60 23 	call	0x46c0	; 0x46c0 <getvoxel>
    597c:	88 23       	and	r24, r24
    597e:	21 f0       	breq	.+8      	; 0x5988 <sendvoxels_rand_z+0xb6>
    5980:	8d 2f       	mov	r24, r29
    5982:	6c 2f       	mov	r22, r28
    5984:	40 e0       	ldi	r20, 0x00	; 0
    5986:	03 c0       	rjmp	.+6      	; 0x598e <sendvoxels_rand_z+0xbc>
    5988:	8d 2f       	mov	r24, r29
    598a:	6c 2f       	mov	r22, r28
    598c:	47 e0       	ldi	r20, 0x07	; 7
    598e:	93 01       	movw	r18, r6
    5990:	0e 94 d4 2b 	call	0x57a8	; 0x57a8 <sendvoxel_z>
    5994:	c2 01       	movw	r24, r4
    5996:	0e 94 a7 27 	call	0x4f4e	; 0x4f4e <delay_ms>
    599a:	ef 2c       	mov	r14, r15
    599c:	d1 2e       	mov	r13, r17
    599e:	0f 5f       	subi	r16, 0xFF	; 255
    59a0:	06 c0       	rjmp	.+12     	; 0x59ae <sendvoxels_rand_z+0xdc>
    59a2:	00 e0       	ldi	r16, 0x00	; 0
    59a4:	ee 24       	eor	r14, r14
    59a6:	dd 24       	eor	r13, r13
    59a8:	18 e0       	ldi	r17, 0x08	; 8
    59aa:	a1 2e       	mov	r10, r17
    59ac:	b1 2c       	mov	r11, r1
    59ae:	80 2f       	mov	r24, r16
    59b0:	90 e0       	ldi	r25, 0x00	; 0
    59b2:	82 15       	cp	r24, r2
    59b4:	93 05       	cpc	r25, r3
    59b6:	3c f2       	brlt	.-114    	; 0x5946 <sendvoxels_rand_z+0x74>
    59b8:	df 91       	pop	r29
    59ba:	cf 91       	pop	r28
    59bc:	1f 91       	pop	r17
    59be:	0f 91       	pop	r16
    59c0:	ff 90       	pop	r15
    59c2:	ef 90       	pop	r14
    59c4:	df 90       	pop	r13
    59c6:	bf 90       	pop	r11
    59c8:	af 90       	pop	r10
    59ca:	9f 90       	pop	r9
    59cc:	8f 90       	pop	r8
    59ce:	7f 90       	pop	r7
    59d0:	6f 90       	pop	r6
    59d2:	5f 90       	pop	r5
    59d4:	4f 90       	pop	r4
    59d6:	3f 90       	pop	r3
    59d8:	2f 90       	pop	r2
    59da:	08 95       	ret

000059dc <boingboing>:
    59dc:	2f 92       	push	r2
    59de:	3f 92       	push	r3
    59e0:	4f 92       	push	r4
    59e2:	5f 92       	push	r5
    59e4:	6f 92       	push	r6
    59e6:	7f 92       	push	r7
    59e8:	8f 92       	push	r8
    59ea:	9f 92       	push	r9
    59ec:	af 92       	push	r10
    59ee:	bf 92       	push	r11
    59f0:	cf 92       	push	r12
    59f2:	df 92       	push	r13
    59f4:	ef 92       	push	r14
    59f6:	ff 92       	push	r15
    59f8:	0f 93       	push	r16
    59fa:	1f 93       	push	r17
    59fc:	cf 93       	push	r28
    59fe:	df 93       	push	r29
    5a00:	cd b7       	in	r28, 0x3d	; 61
    5a02:	de b7       	in	r29, 0x3e	; 62
    5a04:	e8 97       	sbiw	r28, 0x38	; 56
    5a06:	0f b6       	in	r0, 0x3f	; 63
    5a08:	f8 94       	cli
    5a0a:	de bf       	out	0x3e, r29	; 62
    5a0c:	0f be       	out	0x3f, r0	; 63
    5a0e:	cd bf       	out	0x3d, r28	; 61
    5a10:	9c ab       	sts	0x5c, r25
    5a12:	8b ab       	sts	0x5b, r24
    5a14:	7e ab       	sts	0x5e, r23
    5a16:	6d ab       	sts	0x5d, r22
    5a18:	62 2e       	mov	r6, r18
    5a1a:	80 e0       	ldi	r24, 0x00	; 0
    5a1c:	0e 94 87 24 	call	0x490e	; 0x490e <fill>
    5a20:	0e 94 72 54 	call	0xa8e4	; 0xa8e4 <rand>
    5a24:	08 e0       	ldi	r16, 0x08	; 8
    5a26:	10 e0       	ldi	r17, 0x00	; 0
    5a28:	b8 01       	movw	r22, r16
    5a2a:	0e 94 f6 53 	call	0xa7ec	; 0xa7ec <__divmodhi4>
    5a2e:	b8 2e       	mov	r11, r24
    5a30:	a9 2e       	mov	r10, r25
    5a32:	48 2e       	mov	r4, r24
    5a34:	59 2e       	mov	r5, r25
    5a36:	0e 94 72 54 	call	0xa8e4	; 0xa8e4 <rand>
    5a3a:	b8 01       	movw	r22, r16
    5a3c:	0e 94 f6 53 	call	0xa7ec	; 0xa7ec <__divmodhi4>
    5a40:	e8 2e       	mov	r14, r24
    5a42:	c9 2e       	mov	r12, r25
    5a44:	28 2e       	mov	r2, r24
    5a46:	39 2e       	mov	r3, r25
    5a48:	0e 94 72 54 	call	0xa8e4	; 0xa8e4 <rand>
    5a4c:	b8 01       	movw	r22, r16
    5a4e:	0e 94 f6 53 	call	0xa7ec	; 0xa7ec <__divmodhi4>
    5a52:	4c 01       	movw	r8, r24
    5a54:	9e 01       	movw	r18, r28
    5a56:	2f 5c       	subi	r18, 0xCF	; 207
    5a58:	3f 4f       	sbci	r19, 0xFF	; 255
    5a5a:	3a ab       	sts	0x5a, r19
    5a5c:	29 ab       	sts	0x59, r18
    5a5e:	fe 01       	movw	r30, r28
    5a60:	31 96       	adiw	r30, 0x01	; 1
    5a62:	e0 82       	st	Z, r14
    5a64:	c1 82       	std	Z+1, r12	; 0x01
    5a66:	b2 82       	std	Z+2, r11	; 0x02
    5a68:	a3 82       	std	Z+3, r10	; 0x03
    5a6a:	84 83       	std	Z+4, r24	; 0x04
    5a6c:	95 83       	std	Z+5, r25	; 0x05
    5a6e:	36 96       	adiw	r30, 0x06	; 6
    5a70:	29 a9       	sts	0x49, r18
    5a72:	3a a9       	sts	0x4a, r19
    5a74:	e2 17       	cp	r30, r18
    5a76:	f3 07       	cpc	r31, r19
    5a78:	a1 f7       	brne	.-24     	; 0x5a62 <boingboing+0x86>
    5a7a:	01 e0       	ldi	r16, 0x01	; 1
    5a7c:	10 e0       	ldi	r17, 0x00	; 0
    5a7e:	81 e0       	ldi	r24, 0x01	; 1
    5a80:	e8 2e       	mov	r14, r24
    5a82:	f1 2c       	mov	r15, r1
    5a84:	91 e0       	ldi	r25, 0x01	; 1
    5a86:	c9 2e       	mov	r12, r25
    5a88:	d1 2c       	mov	r13, r1
    5a8a:	21 e0       	ldi	r18, 0x01	; 1
    5a8c:	30 e0       	ldi	r19, 0x00	; 0
    5a8e:	2c 0f       	add	r18, r28
    5a90:	3d 1f       	adc	r19, r29
    5a92:	2c 50       	subi	r18, 0x0C	; 12
    5a94:	30 40       	sbci	r19, 0x00	; 0
    5a96:	38 af       	sts	0x78, r19
    5a98:	2f ab       	sts	0x5f, r18
    5a9a:	5a c2       	rjmp	.+1204   	; 0x5f50 <boingboing+0x574>
    5a9c:	0e 94 72 54 	call	0xa8e4	; 0xa8e4 <rand>
    5aa0:	63 e0       	ldi	r22, 0x03	; 3
    5aa2:	70 e0       	ldi	r23, 0x00	; 0
    5aa4:	0e 94 f6 53 	call	0xa7ec	; 0xa7ec <__divmodhi4>
    5aa8:	00 97       	sbiw	r24, 0x00	; 0
    5aaa:	69 f5       	brne	.+90     	; 0x5b06 <boingboing+0x12a>
    5aac:	0e 94 72 54 	call	0xa8e4	; 0xa8e4 <rand>
    5ab0:	63 e0       	ldi	r22, 0x03	; 3
    5ab2:	70 e0       	ldi	r23, 0x00	; 0
    5ab4:	0e 94 f6 53 	call	0xa7ec	; 0xa7ec <__divmodhi4>
    5ab8:	00 97       	sbiw	r24, 0x00	; 0
    5aba:	59 f4       	brne	.+22     	; 0x5ad2 <boingboing+0xf6>
    5abc:	0e 94 72 54 	call	0xa8e4	; 0xa8e4 <rand>
    5ac0:	63 e0       	ldi	r22, 0x03	; 3
    5ac2:	70 e0       	ldi	r23, 0x00	; 0
    5ac4:	0e 94 f6 53 	call	0xa7ec	; 0xa7ec <__divmodhi4>
    5ac8:	6c 01       	movw	r12, r24
    5aca:	08 94       	sec
    5acc:	c1 08       	sbc	r12, r1
    5ace:	d1 08       	sbc	r13, r1
    5ad0:	1a c0       	rjmp	.+52     	; 0x5b06 <boingboing+0x12a>
    5ad2:	81 30       	cpi	r24, 0x01	; 1
    5ad4:	91 05       	cpc	r25, r1
    5ad6:	59 f4       	brne	.+22     	; 0x5aee <boingboing+0x112>
    5ad8:	0e 94 72 54 	call	0xa8e4	; 0xa8e4 <rand>
    5adc:	63 e0       	ldi	r22, 0x03	; 3
    5ade:	70 e0       	ldi	r23, 0x00	; 0
    5ae0:	0e 94 f6 53 	call	0xa7ec	; 0xa7ec <__divmodhi4>
    5ae4:	7c 01       	movw	r14, r24
    5ae6:	08 94       	sec
    5ae8:	e1 08       	sbc	r14, r1
    5aea:	f1 08       	sbc	r15, r1
    5aec:	0c c0       	rjmp	.+24     	; 0x5b06 <boingboing+0x12a>
    5aee:	82 30       	cpi	r24, 0x02	; 2
    5af0:	91 05       	cpc	r25, r1
    5af2:	49 f4       	brne	.+18     	; 0x5b06 <boingboing+0x12a>
    5af4:	0e 94 72 54 	call	0xa8e4	; 0xa8e4 <rand>
    5af8:	63 e0       	ldi	r22, 0x03	; 3
    5afa:	70 e0       	ldi	r23, 0x00	; 0
    5afc:	0e 94 f6 53 	call	0xa7ec	; 0xa7ec <__divmodhi4>
    5b00:	8c 01       	movw	r16, r24
    5b02:	01 50       	subi	r16, 0x01	; 1
    5b04:	10 40       	sbci	r17, 0x00	; 0
    5b06:	3f ef       	ldi	r19, 0xFF	; 255
    5b08:	c3 16       	cp	r12, r19
    5b0a:	3f ef       	ldi	r19, 0xFF	; 255
    5b0c:	d3 06       	cpc	r13, r19
    5b0e:	91 f4       	brne	.+36     	; 0x5b34 <boingboing+0x158>
    5b10:	21 14       	cp	r2, r1
    5b12:	31 04       	cpc	r3, r1
    5b14:	79 f4       	brne	.+30     	; 0x5b34 <boingboing+0x158>
    5b16:	0e 94 72 54 	call	0xa8e4	; 0xa8e4 <rand>
    5b1a:	63 e0       	ldi	r22, 0x03	; 3
    5b1c:	70 e0       	ldi	r23, 0x00	; 0
    5b1e:	0e 94 f6 53 	call	0xa7ec	; 0xa7ec <__divmodhi4>
    5b22:	77 24       	eor	r7, r7
    5b24:	73 94       	inc	r7
    5b26:	81 30       	cpi	r24, 0x01	; 1
    5b28:	91 05       	cpc	r25, r1
    5b2a:	31 f4       	brne	.+12     	; 0x5b38 <boingboing+0x15c>
    5b2c:	b1 e0       	ldi	r27, 0x01	; 1
    5b2e:	cb 2e       	mov	r12, r27
    5b30:	d1 2c       	mov	r13, r1
    5b32:	04 c0       	rjmp	.+8      	; 0x5b3c <boingboing+0x160>
    5b34:	77 24       	eor	r7, r7
    5b36:	02 c0       	rjmp	.+4      	; 0x5b3c <boingboing+0x160>
    5b38:	cc 24       	eor	r12, r12
    5b3a:	dd 24       	eor	r13, r13
    5b3c:	8f ef       	ldi	r24, 0xFF	; 255
    5b3e:	e8 16       	cp	r14, r24
    5b40:	8f ef       	ldi	r24, 0xFF	; 255
    5b42:	f8 06       	cpc	r15, r24
    5b44:	91 f4       	brne	.+36     	; 0x5b6a <boingboing+0x18e>
    5b46:	41 14       	cp	r4, r1
    5b48:	51 04       	cpc	r5, r1
    5b4a:	79 f4       	brne	.+30     	; 0x5b6a <boingboing+0x18e>
    5b4c:	0e 94 72 54 	call	0xa8e4	; 0xa8e4 <rand>
    5b50:	63 e0       	ldi	r22, 0x03	; 3
    5b52:	70 e0       	ldi	r23, 0x00	; 0
    5b54:	0e 94 f6 53 	call	0xa7ec	; 0xa7ec <__divmodhi4>
    5b58:	aa 24       	eor	r10, r10
    5b5a:	a3 94       	inc	r10
    5b5c:	81 30       	cpi	r24, 0x01	; 1
    5b5e:	91 05       	cpc	r25, r1
    5b60:	31 f4       	brne	.+12     	; 0x5b6e <boingboing+0x192>
    5b62:	a1 e0       	ldi	r26, 0x01	; 1
    5b64:	ea 2e       	mov	r14, r26
    5b66:	f1 2c       	mov	r15, r1
    5b68:	04 c0       	rjmp	.+8      	; 0x5b72 <boingboing+0x196>
    5b6a:	aa 24       	eor	r10, r10
    5b6c:	02 c0       	rjmp	.+4      	; 0x5b72 <boingboing+0x196>
    5b6e:	ee 24       	eor	r14, r14
    5b70:	ff 24       	eor	r15, r15
    5b72:	9f ef       	ldi	r25, 0xFF	; 255
    5b74:	0f 3f       	cpi	r16, 0xFF	; 255
    5b76:	19 07       	cpc	r17, r25
    5b78:	89 f4       	brne	.+34     	; 0x5b9c <boingboing+0x1c0>
    5b7a:	81 14       	cp	r8, r1
    5b7c:	91 04       	cpc	r9, r1
    5b7e:	71 f4       	brne	.+28     	; 0x5b9c <boingboing+0x1c0>
    5b80:	0e 94 72 54 	call	0xa8e4	; 0xa8e4 <rand>
    5b84:	63 e0       	ldi	r22, 0x03	; 3
    5b86:	70 e0       	ldi	r23, 0x00	; 0
    5b88:	0e 94 f6 53 	call	0xa7ec	; 0xa7ec <__divmodhi4>
    5b8c:	bb 24       	eor	r11, r11
    5b8e:	b3 94       	inc	r11
    5b90:	81 30       	cpi	r24, 0x01	; 1
    5b92:	91 05       	cpc	r25, r1
    5b94:	29 f4       	brne	.+10     	; 0x5ba0 <boingboing+0x1c4>
    5b96:	01 e0       	ldi	r16, 0x01	; 1
    5b98:	10 e0       	ldi	r17, 0x00	; 0
    5b9a:	04 c0       	rjmp	.+8      	; 0x5ba4 <boingboing+0x1c8>
    5b9c:	bb 24       	eor	r11, r11
    5b9e:	02 c0       	rjmp	.+4      	; 0x5ba4 <boingboing+0x1c8>
    5ba0:	00 e0       	ldi	r16, 0x00	; 0
    5ba2:	10 e0       	ldi	r17, 0x00	; 0
    5ba4:	e1 e0       	ldi	r30, 0x01	; 1
    5ba6:	ce 16       	cp	r12, r30
    5ba8:	d1 04       	cpc	r13, r1
    5baa:	a9 f4       	brne	.+42     	; 0x5bd6 <boingboing+0x1fa>
    5bac:	f7 e0       	ldi	r31, 0x07	; 7
    5bae:	2f 16       	cp	r2, r31
    5bb0:	31 04       	cpc	r3, r1
    5bb2:	89 f4       	brne	.+34     	; 0x5bd6 <boingboing+0x1fa>
    5bb4:	0e 94 72 54 	call	0xa8e4	; 0xa8e4 <rand>
    5bb8:	63 e0       	ldi	r22, 0x03	; 3
    5bba:	70 e0       	ldi	r23, 0x00	; 0
    5bbc:	0e 94 f6 53 	call	0xa7ec	; 0xa7ec <__divmodhi4>
    5bc0:	77 24       	eor	r7, r7
    5bc2:	73 94       	inc	r7
    5bc4:	81 30       	cpi	r24, 0x01	; 1
    5bc6:	91 05       	cpc	r25, r1
    5bc8:	21 f4       	brne	.+8      	; 0x5bd2 <boingboing+0x1f6>
    5bca:	cc 24       	eor	r12, r12
    5bcc:	ca 94       	dec	r12
    5bce:	dc 2c       	mov	r13, r12
    5bd0:	02 c0       	rjmp	.+4      	; 0x5bd6 <boingboing+0x1fa>
    5bd2:	cc 24       	eor	r12, r12
    5bd4:	dd 24       	eor	r13, r13
    5bd6:	21 e0       	ldi	r18, 0x01	; 1
    5bd8:	e2 16       	cp	r14, r18
    5bda:	f1 04       	cpc	r15, r1
    5bdc:	a9 f4       	brne	.+42     	; 0x5c08 <boingboing+0x22c>
    5bde:	37 e0       	ldi	r19, 0x07	; 7
    5be0:	43 16       	cp	r4, r19
    5be2:	51 04       	cpc	r5, r1
    5be4:	89 f4       	brne	.+34     	; 0x5c08 <boingboing+0x22c>
    5be6:	0e 94 72 54 	call	0xa8e4	; 0xa8e4 <rand>
    5bea:	63 e0       	ldi	r22, 0x03	; 3
    5bec:	70 e0       	ldi	r23, 0x00	; 0
    5bee:	0e 94 f6 53 	call	0xa7ec	; 0xa7ec <__divmodhi4>
    5bf2:	aa 24       	eor	r10, r10
    5bf4:	a3 94       	inc	r10
    5bf6:	81 30       	cpi	r24, 0x01	; 1
    5bf8:	91 05       	cpc	r25, r1
    5bfa:	21 f4       	brne	.+8      	; 0x5c04 <boingboing+0x228>
    5bfc:	ee 24       	eor	r14, r14
    5bfe:	ea 94       	dec	r14
    5c00:	fe 2c       	mov	r15, r14
    5c02:	02 c0       	rjmp	.+4      	; 0x5c08 <boingboing+0x22c>
    5c04:	ee 24       	eor	r14, r14
    5c06:	ff 24       	eor	r15, r15
    5c08:	01 30       	cpi	r16, 0x01	; 1
    5c0a:	11 05       	cpc	r17, r1
    5c0c:	a1 f4       	brne	.+40     	; 0x5c36 <boingboing+0x25a>
    5c0e:	87 e0       	ldi	r24, 0x07	; 7
    5c10:	88 16       	cp	r8, r24
    5c12:	91 04       	cpc	r9, r1
    5c14:	81 f4       	brne	.+32     	; 0x5c36 <boingboing+0x25a>
    5c16:	0e 94 72 54 	call	0xa8e4	; 0xa8e4 <rand>
    5c1a:	63 e0       	ldi	r22, 0x03	; 3
    5c1c:	70 e0       	ldi	r23, 0x00	; 0
    5c1e:	0e 94 f6 53 	call	0xa7ec	; 0xa7ec <__divmodhi4>
    5c22:	bb 24       	eor	r11, r11
    5c24:	b3 94       	inc	r11
    5c26:	81 30       	cpi	r24, 0x01	; 1
    5c28:	91 05       	cpc	r25, r1
    5c2a:	19 f4       	brne	.+6      	; 0x5c32 <boingboing+0x256>
    5c2c:	0f ef       	ldi	r16, 0xFF	; 255
    5c2e:	1f ef       	ldi	r17, 0xFF	; 255
    5c30:	02 c0       	rjmp	.+4      	; 0x5c36 <boingboing+0x25a>
    5c32:	00 e0       	ldi	r16, 0x00	; 0
    5c34:	10 e0       	ldi	r17, 0x00	; 0
    5c36:	77 20       	and	r7, r7
    5c38:	41 f1       	breq	.+80     	; 0x5c8a <boingboing+0x2ae>
    5c3a:	e1 14       	cp	r14, r1
    5c3c:	f1 04       	cpc	r15, r1
    5c3e:	91 f4       	brne	.+36     	; 0x5c64 <boingboing+0x288>
    5c40:	97 e0       	ldi	r25, 0x07	; 7
    5c42:	49 16       	cp	r4, r25
    5c44:	51 04       	cpc	r5, r1
    5c46:	39 f0       	breq	.+14     	; 0x5c56 <boingboing+0x27a>
    5c48:	41 14       	cp	r4, r1
    5c4a:	51 04       	cpc	r5, r1
    5c4c:	41 f0       	breq	.+16     	; 0x5c5e <boingboing+0x282>
    5c4e:	0e 94 72 54 	call	0xa8e4	; 0xa8e4 <rand>
    5c52:	80 fd       	sbrc	r24, 0
    5c54:	04 c0       	rjmp	.+8      	; 0x5c5e <boingboing+0x282>
    5c56:	ee 24       	eor	r14, r14
    5c58:	ea 94       	dec	r14
    5c5a:	fe 2c       	mov	r15, r14
    5c5c:	03 c0       	rjmp	.+6      	; 0x5c64 <boingboing+0x288>
    5c5e:	f1 e0       	ldi	r31, 0x01	; 1
    5c60:	ef 2e       	mov	r14, r31
    5c62:	f1 2c       	mov	r15, r1
    5c64:	01 15       	cp	r16, r1
    5c66:	11 05       	cpc	r17, r1
    5c68:	81 f4       	brne	.+32     	; 0x5c8a <boingboing+0x2ae>
    5c6a:	e7 e0       	ldi	r30, 0x07	; 7
    5c6c:	8e 16       	cp	r8, r30
    5c6e:	91 04       	cpc	r9, r1
    5c70:	39 f0       	breq	.+14     	; 0x5c80 <boingboing+0x2a4>
    5c72:	81 14       	cp	r8, r1
    5c74:	91 04       	cpc	r9, r1
    5c76:	39 f0       	breq	.+14     	; 0x5c86 <boingboing+0x2aa>
    5c78:	0e 94 72 54 	call	0xa8e4	; 0xa8e4 <rand>
    5c7c:	80 fd       	sbrc	r24, 0
    5c7e:	03 c0       	rjmp	.+6      	; 0x5c86 <boingboing+0x2aa>
    5c80:	0f ef       	ldi	r16, 0xFF	; 255
    5c82:	1f ef       	ldi	r17, 0xFF	; 255
    5c84:	02 c0       	rjmp	.+4      	; 0x5c8a <boingboing+0x2ae>
    5c86:	01 e0       	ldi	r16, 0x01	; 1
    5c88:	10 e0       	ldi	r17, 0x00	; 0
    5c8a:	aa 20       	and	r10, r10
    5c8c:	41 f1       	breq	.+80     	; 0x5cde <boingboing+0x302>
    5c8e:	c1 14       	cp	r12, r1
    5c90:	d1 04       	cpc	r13, r1
    5c92:	91 f4       	brne	.+36     	; 0x5cb8 <boingboing+0x2dc>
    5c94:	f7 e0       	ldi	r31, 0x07	; 7
    5c96:	2f 16       	cp	r2, r31
    5c98:	31 04       	cpc	r3, r1
    5c9a:	39 f0       	breq	.+14     	; 0x5caa <boingboing+0x2ce>
    5c9c:	21 14       	cp	r2, r1
    5c9e:	31 04       	cpc	r3, r1
    5ca0:	41 f0       	breq	.+16     	; 0x5cb2 <boingboing+0x2d6>
    5ca2:	0e 94 72 54 	call	0xa8e4	; 0xa8e4 <rand>
    5ca6:	80 fd       	sbrc	r24, 0
    5ca8:	04 c0       	rjmp	.+8      	; 0x5cb2 <boingboing+0x2d6>
    5caa:	cc 24       	eor	r12, r12
    5cac:	ca 94       	dec	r12
    5cae:	dc 2c       	mov	r13, r12
    5cb0:	03 c0       	rjmp	.+6      	; 0x5cb8 <boingboing+0x2dc>
    5cb2:	e1 e0       	ldi	r30, 0x01	; 1
    5cb4:	ce 2e       	mov	r12, r30
    5cb6:	d1 2c       	mov	r13, r1
    5cb8:	01 15       	cp	r16, r1
    5cba:	11 05       	cpc	r17, r1
    5cbc:	81 f4       	brne	.+32     	; 0x5cde <boingboing+0x302>
    5cbe:	23 e0       	ldi	r18, 0x03	; 3
    5cc0:	82 16       	cp	r8, r18
    5cc2:	91 04       	cpc	r9, r1
    5cc4:	39 f0       	breq	.+14     	; 0x5cd4 <boingboing+0x2f8>
    5cc6:	81 14       	cp	r8, r1
    5cc8:	91 04       	cpc	r9, r1
    5cca:	39 f0       	breq	.+14     	; 0x5cda <boingboing+0x2fe>
    5ccc:	0e 94 72 54 	call	0xa8e4	; 0xa8e4 <rand>
    5cd0:	80 fd       	sbrc	r24, 0
    5cd2:	03 c0       	rjmp	.+6      	; 0x5cda <boingboing+0x2fe>
    5cd4:	0f ef       	ldi	r16, 0xFF	; 255
    5cd6:	1f ef       	ldi	r17, 0xFF	; 255
    5cd8:	02 c0       	rjmp	.+4      	; 0x5cde <boingboing+0x302>
    5cda:	01 e0       	ldi	r16, 0x01	; 1
    5cdc:	10 e0       	ldi	r17, 0x00	; 0
    5cde:	bb 20       	and	r11, r11
    5ce0:	21 f1       	breq	.+72     	; 0x5d2a <boingboing+0x34e>
    5ce2:	e1 14       	cp	r14, r1
    5ce4:	f1 04       	cpc	r15, r1
    5ce6:	91 f4       	brne	.+36     	; 0x5d0c <boingboing+0x330>
    5ce8:	37 e0       	ldi	r19, 0x07	; 7
    5cea:	43 16       	cp	r4, r19
    5cec:	51 04       	cpc	r5, r1
    5cee:	39 f0       	breq	.+14     	; 0x5cfe <boingboing+0x322>
    5cf0:	41 14       	cp	r4, r1
    5cf2:	51 04       	cpc	r5, r1
    5cf4:	41 f0       	breq	.+16     	; 0x5d06 <boingboing+0x32a>
    5cf6:	0e 94 72 54 	call	0xa8e4	; 0xa8e4 <rand>
    5cfa:	80 fd       	sbrc	r24, 0
    5cfc:	04 c0       	rjmp	.+8      	; 0x5d06 <boingboing+0x32a>
    5cfe:	ee 24       	eor	r14, r14
    5d00:	ea 94       	dec	r14
    5d02:	fe 2c       	mov	r15, r14
    5d04:	03 c0       	rjmp	.+6      	; 0x5d0c <boingboing+0x330>
    5d06:	71 e0       	ldi	r23, 0x01	; 1
    5d08:	e7 2e       	mov	r14, r23
    5d0a:	f1 2c       	mov	r15, r1
    5d0c:	c1 14       	cp	r12, r1
    5d0e:	d1 04       	cpc	r13, r1
    5d10:	61 f4       	brne	.+24     	; 0x5d2a <boingboing+0x34e>
    5d12:	87 e0       	ldi	r24, 0x07	; 7
    5d14:	28 16       	cp	r2, r24
    5d16:	31 04       	cpc	r3, r1
    5d18:	69 f1       	breq	.+90     	; 0x5d74 <boingboing+0x398>
    5d1a:	21 14       	cp	r2, r1
    5d1c:	31 04       	cpc	r3, r1
    5d1e:	49 f0       	breq	.+18     	; 0x5d32 <boingboing+0x356>
    5d20:	0e 94 72 54 	call	0xa8e4	; 0xa8e4 <rand>
    5d24:	80 ff       	sbrs	r24, 0
    5d26:	1a c1       	rjmp	.+564    	; 0x5f5c <boingboing+0x580>
    5d28:	5d c0       	rjmp	.+186    	; 0x5de4 <boingboing+0x408>
    5d2a:	21 14       	cp	r2, r1
    5d2c:	31 04       	cpc	r3, r1
    5d2e:	e9 f4       	brne	.+58     	; 0x5d6a <boingboing+0x38e>
    5d30:	03 c0       	rjmp	.+6      	; 0x5d38 <boingboing+0x35c>
    5d32:	61 e0       	ldi	r22, 0x01	; 1
    5d34:	c6 2e       	mov	r12, r22
    5d36:	d1 2c       	mov	r13, r1
    5d38:	41 14       	cp	r4, r1
    5d3a:	51 04       	cpc	r5, r1
    5d3c:	49 f4       	brne	.+18     	; 0x5d50 <boingboing+0x374>
    5d3e:	81 14       	cp	r8, r1
    5d40:	91 04       	cpc	r9, r1
    5d42:	89 f1       	breq	.+98     	; 0x5da6 <boingboing+0x3ca>
    5d44:	97 e0       	ldi	r25, 0x07	; 7
    5d46:	89 16       	cp	r8, r25
    5d48:	91 04       	cpc	r9, r1
    5d4a:	09 f0       	breq	.+2      	; 0x5d4e <boingboing+0x372>
    5d4c:	46 c0       	rjmp	.+140    	; 0x5dda <boingboing+0x3fe>
    5d4e:	2b c0       	rjmp	.+86     	; 0x5da6 <boingboing+0x3ca>
    5d50:	e7 e0       	ldi	r30, 0x07	; 7
    5d52:	4e 16       	cp	r4, r30
    5d54:	51 04       	cpc	r5, r1
    5d56:	09 f0       	breq	.+2      	; 0x5d5a <boingboing+0x37e>
    5d58:	40 c0       	rjmp	.+128    	; 0x5dda <boingboing+0x3fe>
    5d5a:	81 14       	cp	r8, r1
    5d5c:	91 04       	cpc	r9, r1
    5d5e:	19 f1       	breq	.+70     	; 0x5da6 <boingboing+0x3ca>
    5d60:	f7 e0       	ldi	r31, 0x07	; 7
    5d62:	8f 16       	cp	r8, r31
    5d64:	91 04       	cpc	r9, r1
    5d66:	c9 f5       	brne	.+114    	; 0x5dda <boingboing+0x3fe>
    5d68:	1e c0       	rjmp	.+60     	; 0x5da6 <boingboing+0x3ca>
    5d6a:	27 e0       	ldi	r18, 0x07	; 7
    5d6c:	22 16       	cp	r2, r18
    5d6e:	31 04       	cpc	r3, r1
    5d70:	21 f0       	breq	.+8      	; 0x5d7a <boingboing+0x39e>
    5d72:	3b c0       	rjmp	.+118    	; 0x5dea <boingboing+0x40e>
    5d74:	cc 24       	eor	r12, r12
    5d76:	ca 94       	dec	r12
    5d78:	dc 2c       	mov	r13, r12
    5d7a:	41 14       	cp	r4, r1
    5d7c:	51 04       	cpc	r5, r1
    5d7e:	41 f4       	brne	.+16     	; 0x5d90 <boingboing+0x3b4>
    5d80:	81 14       	cp	r8, r1
    5d82:	91 04       	cpc	r9, r1
    5d84:	81 f0       	breq	.+32     	; 0x5da6 <boingboing+0x3ca>
    5d86:	37 e0       	ldi	r19, 0x07	; 7
    5d88:	83 16       	cp	r8, r19
    5d8a:	91 04       	cpc	r9, r1
    5d8c:	89 f5       	brne	.+98     	; 0x5df0 <boingboing+0x414>
    5d8e:	0b c0       	rjmp	.+22     	; 0x5da6 <boingboing+0x3ca>
    5d90:	87 e0       	ldi	r24, 0x07	; 7
    5d92:	48 16       	cp	r4, r24
    5d94:	51 04       	cpc	r5, r1
    5d96:	a1 f5       	brne	.+104    	; 0x5e00 <boingboing+0x424>
    5d98:	81 14       	cp	r8, r1
    5d9a:	91 04       	cpc	r9, r1
    5d9c:	21 f0       	breq	.+8      	; 0x5da6 <boingboing+0x3ca>
    5d9e:	97 e0       	ldi	r25, 0x07	; 7
    5da0:	89 16       	cp	r8, r25
    5da2:	91 04       	cpc	r9, r1
    5da4:	69 f5       	brne	.+90     	; 0x5e00 <boingboing+0x424>
    5da6:	0e 94 72 54 	call	0xa8e4	; 0xa8e4 <rand>
    5daa:	63 e0       	ldi	r22, 0x03	; 3
    5dac:	70 e0       	ldi	r23, 0x00	; 0
    5dae:	0e 94 f6 53 	call	0xa7ec	; 0xa7ec <__divmodhi4>
    5db2:	00 97       	sbiw	r24, 0x00	; 0
    5db4:	39 f0       	breq	.+14     	; 0x5dc4 <boingboing+0x3e8>
    5db6:	81 30       	cpi	r24, 0x01	; 1
    5db8:	91 05       	cpc	r25, r1
    5dba:	39 f0       	breq	.+14     	; 0x5dca <boingboing+0x3ee>
    5dbc:	82 30       	cpi	r24, 0x02	; 2
    5dbe:	91 05       	cpc	r25, r1
    5dc0:	39 f0       	breq	.+14     	; 0x5dd0 <boingboing+0x3f4>
    5dc2:	08 c0       	rjmp	.+16     	; 0x5dd4 <boingboing+0x3f8>
    5dc4:	cc 24       	eor	r12, r12
    5dc6:	dd 24       	eor	r13, r13
    5dc8:	05 c0       	rjmp	.+10     	; 0x5dd4 <boingboing+0x3f8>
    5dca:	ee 24       	eor	r14, r14
    5dcc:	ff 24       	eor	r15, r15
    5dce:	02 c0       	rjmp	.+4      	; 0x5dd4 <boingboing+0x3f8>
    5dd0:	00 e0       	ldi	r16, 0x00	; 0
    5dd2:	10 e0       	ldi	r17, 0x00	; 0
    5dd4:	21 14       	cp	r2, r1
    5dd6:	31 04       	cpc	r3, r1
    5dd8:	41 f4       	brne	.+16     	; 0x5dea <boingboing+0x40e>
    5dda:	ef ef       	ldi	r30, 0xFF	; 255
    5ddc:	ce 16       	cp	r12, r30
    5dde:	ef ef       	ldi	r30, 0xFF	; 255
    5de0:	de 06       	cpc	r13, r30
    5de2:	19 f4       	brne	.+6      	; 0x5dea <boingboing+0x40e>
    5de4:	51 e0       	ldi	r21, 0x01	; 1
    5de6:	c5 2e       	mov	r12, r21
    5de8:	d1 2c       	mov	r13, r1
    5dea:	41 14       	cp	r4, r1
    5dec:	51 04       	cpc	r5, r1
    5dee:	41 f4       	brne	.+16     	; 0x5e00 <boingboing+0x424>
    5df0:	ff ef       	ldi	r31, 0xFF	; 255
    5df2:	ef 16       	cp	r14, r31
    5df4:	ff ef       	ldi	r31, 0xFF	; 255
    5df6:	ff 06       	cpc	r15, r31
    5df8:	19 f4       	brne	.+6      	; 0x5e00 <boingboing+0x424>
    5dfa:	41 e0       	ldi	r20, 0x01	; 1
    5dfc:	e4 2e       	mov	r14, r20
    5dfe:	f1 2c       	mov	r15, r1
    5e00:	81 14       	cp	r8, r1
    5e02:	91 04       	cpc	r9, r1
    5e04:	31 f4       	brne	.+12     	; 0x5e12 <boingboing+0x436>
    5e06:	2f ef       	ldi	r18, 0xFF	; 255
    5e08:	0f 3f       	cpi	r16, 0xFF	; 255
    5e0a:	12 07       	cpc	r17, r18
    5e0c:	11 f4       	brne	.+4      	; 0x5e12 <boingboing+0x436>
    5e0e:	01 e0       	ldi	r16, 0x01	; 1
    5e10:	10 e0       	ldi	r17, 0x00	; 0
    5e12:	37 e0       	ldi	r19, 0x07	; 7
    5e14:	23 16       	cp	r2, r19
    5e16:	31 04       	cpc	r3, r1
    5e18:	39 f4       	brne	.+14     	; 0x5e28 <boingboing+0x44c>
    5e1a:	81 e0       	ldi	r24, 0x01	; 1
    5e1c:	c8 16       	cp	r12, r24
    5e1e:	d1 04       	cpc	r13, r1
    5e20:	19 f4       	brne	.+6      	; 0x5e28 <boingboing+0x44c>
    5e22:	cc 24       	eor	r12, r12
    5e24:	ca 94       	dec	r12
    5e26:	dc 2c       	mov	r13, r12
    5e28:	97 e0       	ldi	r25, 0x07	; 7
    5e2a:	49 16       	cp	r4, r25
    5e2c:	51 04       	cpc	r5, r1
    5e2e:	39 f4       	brne	.+14     	; 0x5e3e <boingboing+0x462>
    5e30:	e1 e0       	ldi	r30, 0x01	; 1
    5e32:	ee 16       	cp	r14, r30
    5e34:	f1 04       	cpc	r15, r1
    5e36:	19 f4       	brne	.+6      	; 0x5e3e <boingboing+0x462>
    5e38:	ee 24       	eor	r14, r14
    5e3a:	ea 94       	dec	r14
    5e3c:	fe 2c       	mov	r15, r14
    5e3e:	f7 e0       	ldi	r31, 0x07	; 7
    5e40:	8f 16       	cp	r8, r31
    5e42:	91 04       	cpc	r9, r1
    5e44:	29 f4       	brne	.+10     	; 0x5e50 <boingboing+0x474>
    5e46:	01 30       	cpi	r16, 0x01	; 1
    5e48:	11 05       	cpc	r17, r1
    5e4a:	11 f4       	brne	.+4      	; 0x5e50 <boingboing+0x474>
    5e4c:	0f ef       	ldi	r16, 0xFF	; 255
    5e4e:	1f ef       	ldi	r17, 0xFF	; 255
    5e50:	2c 0c       	add	r2, r12
    5e52:	3d 1c       	adc	r3, r13
    5e54:	4e 0c       	add	r4, r14
    5e56:	5f 1c       	adc	r5, r15
    5e58:	80 0e       	add	r8, r16
    5e5a:	91 1e       	adc	r9, r17
    5e5c:	21 e0       	ldi	r18, 0x01	; 1
    5e5e:	62 16       	cp	r6, r18
    5e60:	79 f4       	brne	.+30     	; 0x5e80 <boingboing+0x4a4>
    5e62:	c1 01       	movw	r24, r2
    5e64:	b2 01       	movw	r22, r4
    5e66:	a4 01       	movw	r20, r8
    5e68:	0e 94 3b 23 	call	0x4676	; 0x4676 <setvoxel>
    5e6c:	8d a9       	sts	0x4d, r24
    5e6e:	9e a9       	sts	0x4e, r25
    5e70:	0e 94 a7 27 	call	0x4f4e	; 0x4f4e <delay_ms>
    5e74:	c1 01       	movw	r24, r2
    5e76:	b2 01       	movw	r22, r4
    5e78:	a4 01       	movw	r20, r8
    5e7a:	0e 94 f0 22 	call	0x45e0	; 0x45e0 <clrvoxel>
    5e7e:	63 c0       	rjmp	.+198    	; 0x5f46 <boingboing+0x56a>
    5e80:	32 e0       	ldi	r19, 0x02	; 2
    5e82:	63 16       	cp	r6, r19
    5e84:	51 f4       	brne	.+20     	; 0x5e9a <boingboing+0x4be>
    5e86:	c1 01       	movw	r24, r2
    5e88:	b2 01       	movw	r22, r4
    5e8a:	a4 01       	movw	r20, r8
    5e8c:	0e 94 8e 23 	call	0x471c	; 0x471c <flpvoxel>
    5e90:	8d a9       	sts	0x4d, r24
    5e92:	9e a9       	sts	0x4e, r25
    5e94:	0e 94 a7 27 	call	0x4f4e	; 0x4f4e <delay_ms>
    5e98:	56 c0       	rjmp	.+172    	; 0x5f46 <boingboing+0x56a>
    5e9a:	83 e0       	ldi	r24, 0x03	; 3
    5e9c:	68 16       	cp	r6, r24
    5e9e:	09 f0       	breq	.+2      	; 0x5ea2 <boingboing+0x4c6>
    5ea0:	52 c0       	rjmp	.+164    	; 0x5f46 <boingboing+0x56a>
    5ea2:	fe 01       	movw	r30, r28
    5ea4:	b5 96       	adiw	r30, 0x25	; 37
    5ea6:	80 81       	ld	r24, Z
    5ea8:	91 81       	ldd	r25, Z+1	; 0x01
    5eaa:	97 83       	std	Z+7, r25	; 0x07
    5eac:	86 83       	std	Z+6, r24	; 0x06
    5eae:	82 81       	ldd	r24, Z+2	; 0x02
    5eb0:	93 81       	ldd	r25, Z+3	; 0x03
    5eb2:	91 87       	std	Z+9, r25	; 0x09
    5eb4:	80 87       	std	Z+8, r24	; 0x08
    5eb6:	84 81       	ldd	r24, Z+4	; 0x04
    5eb8:	95 81       	ldd	r25, Z+5	; 0x05
    5eba:	93 87       	std	Z+11, r25	; 0x0b
    5ebc:	82 87       	std	Z+10, r24	; 0x0a
    5ebe:	36 97       	sbiw	r30, 0x06	; 6
    5ec0:	2f a9       	sts	0x4f, r18
    5ec2:	38 ad       	sts	0x68, r19
    5ec4:	e2 17       	cp	r30, r18
    5ec6:	f3 07       	cpc	r31, r19
    5ec8:	71 f7       	brne	.-36     	; 0x5ea6 <boingboing+0x4ca>
    5eca:	3a 82       	std	Y+2, r3	; 0x02
    5ecc:	29 82       	std	Y+1, r2	; 0x01
    5ece:	5c 82       	std	Y+4, r5	; 0x04
    5ed0:	4b 82       	std	Y+3, r4	; 0x03
    5ed2:	9e 82       	std	Y+6, r9	; 0x06
    5ed4:	8d 82       	std	Y+5, r8	; 0x05
    5ed6:	5e 01       	movw	r10, r28
    5ed8:	08 94       	sec
    5eda:	a1 1c       	adc	r10, r1
    5edc:	b1 1c       	adc	r11, r1
    5ede:	c5 01       	movw	r24, r10
    5ee0:	57 01       	movw	r10, r14
    5ee2:	78 01       	movw	r14, r16
    5ee4:	8c 01       	movw	r16, r24
    5ee6:	f8 01       	movw	r30, r16
    5ee8:	62 81       	ldd	r22, Z+2	; 0x02
    5eea:	73 81       	ldd	r23, Z+3	; 0x03
    5eec:	44 81       	ldd	r20, Z+4	; 0x04
    5eee:	55 81       	ldd	r21, Z+5	; 0x05
    5ef0:	80 81       	ld	r24, Z
    5ef2:	91 81       	ldd	r25, Z+1	; 0x01
    5ef4:	0e 94 3b 23 	call	0x4676	; 0x4676 <setvoxel>
    5ef8:	0a 5f       	subi	r16, 0xFA	; 250
    5efa:	1f 4f       	sbci	r17, 0xFF	; 255
    5efc:	29 a9       	sts	0x49, r18
    5efe:	3a a9       	sts	0x4a, r19
    5f00:	02 17       	cp	r16, r18
    5f02:	13 07       	cpc	r17, r19
    5f04:	81 f7       	brne	.-32     	; 0x5ee6 <boingboing+0x50a>
    5f06:	87 01       	movw	r16, r14
    5f08:	75 01       	movw	r14, r10
    5f0a:	8d a9       	sts	0x4d, r24
    5f0c:	9e a9       	sts	0x4e, r25
    5f0e:	0e 94 a7 27 	call	0x4f4e	; 0x4f4e <delay_ms>
    5f12:	5e 01       	movw	r10, r28
    5f14:	08 94       	sec
    5f16:	a1 1c       	adc	r10, r1
    5f18:	b1 1c       	adc	r11, r1
    5f1a:	c5 01       	movw	r24, r10
    5f1c:	57 01       	movw	r10, r14
    5f1e:	78 01       	movw	r14, r16
    5f20:	8c 01       	movw	r16, r24
    5f22:	f8 01       	movw	r30, r16
    5f24:	62 81       	ldd	r22, Z+2	; 0x02
    5f26:	73 81       	ldd	r23, Z+3	; 0x03
    5f28:	44 81       	ldd	r20, Z+4	; 0x04
    5f2a:	55 81       	ldd	r21, Z+5	; 0x05
    5f2c:	80 81       	ld	r24, Z
    5f2e:	91 81       	ldd	r25, Z+1	; 0x01
    5f30:	0e 94 f0 22 	call	0x45e0	; 0x45e0 <clrvoxel>
    5f34:	0a 5f       	subi	r16, 0xFA	; 250
    5f36:	1f 4f       	sbci	r17, 0xFF	; 255
    5f38:	29 a9       	sts	0x49, r18
    5f3a:	3a a9       	sts	0x4a, r19
    5f3c:	02 17       	cp	r16, r18
    5f3e:	13 07       	cpc	r17, r19
    5f40:	81 f7       	brne	.-32     	; 0x5f22 <boingboing+0x546>
    5f42:	87 01       	movw	r16, r14
    5f44:	75 01       	movw	r14, r10
    5f46:	8b a9       	sts	0x4b, r24
    5f48:	9c a9       	sts	0x4c, r25
    5f4a:	01 97       	sbiw	r24, 0x01	; 1
    5f4c:	9c ab       	sts	0x5c, r25
    5f4e:	8b ab       	sts	0x5b, r24
    5f50:	eb a9       	sts	0x4b, r30
    5f52:	fc a9       	sts	0x4c, r31
    5f54:	30 97       	sbiw	r30, 0x00	; 0
    5f56:	09 f0       	breq	.+2      	; 0x5f5a <boingboing+0x57e>
    5f58:	a1 cd       	rjmp	.-1214   	; 0x5a9c <boingboing+0xc0>
    5f5a:	04 c0       	rjmp	.+8      	; 0x5f64 <boingboing+0x588>
    5f5c:	cc 24       	eor	r12, r12
    5f5e:	ca 94       	dec	r12
    5f60:	dc 2c       	mov	r13, r12
    5f62:	43 cf       	rjmp	.-378    	; 0x5dea <boingboing+0x40e>
    5f64:	e8 96       	adiw	r28, 0x38	; 56
    5f66:	0f b6       	in	r0, 0x3f	; 63
    5f68:	f8 94       	cli
    5f6a:	de bf       	out	0x3e, r29	; 62
    5f6c:	0f be       	out	0x3f, r0	; 63
    5f6e:	cd bf       	out	0x3d, r28	; 61
    5f70:	df 91       	pop	r29
    5f72:	cf 91       	pop	r28
    5f74:	1f 91       	pop	r17
    5f76:	0f 91       	pop	r16
    5f78:	ff 90       	pop	r15
    5f7a:	ef 90       	pop	r14
    5f7c:	df 90       	pop	r13
    5f7e:	cf 90       	pop	r12
    5f80:	bf 90       	pop	r11
    5f82:	af 90       	pop	r10
    5f84:	9f 90       	pop	r9
    5f86:	8f 90       	pop	r8
    5f88:	7f 90       	pop	r7
    5f8a:	6f 90       	pop	r6
    5f8c:	5f 90       	pop	r5
    5f8e:	4f 90       	pop	r4
    5f90:	3f 90       	pop	r3
    5f92:	2f 90       	pop	r2
    5f94:	08 95       	ret

00005f96 <effect_random_filler>:
    5f96:	2f 92       	push	r2
    5f98:	3f 92       	push	r3
    5f9a:	4f 92       	push	r4
    5f9c:	5f 92       	push	r5
    5f9e:	6f 92       	push	r6
    5fa0:	7f 92       	push	r7
    5fa2:	8f 92       	push	r8
    5fa4:	9f 92       	push	r9
    5fa6:	af 92       	push	r10
    5fa8:	bf 92       	push	r11
    5faa:	cf 92       	push	r12
    5fac:	df 92       	push	r13
    5fae:	ef 92       	push	r14
    5fb0:	ff 92       	push	r15
    5fb2:	0f 93       	push	r16
    5fb4:	1f 93       	push	r17
    5fb6:	cf 93       	push	r28
    5fb8:	df 93       	push	r29
    5fba:	1c 01       	movw	r2, r24
    5fbc:	7b 01       	movw	r14, r22
    5fbe:	61 30       	cpi	r22, 0x01	; 1
    5fc0:	71 05       	cpc	r23, r1
    5fc2:	49 f4       	brne	.+18     	; 0x5fd6 <effect_random_filler+0x40>
    5fc4:	80 e0       	ldi	r24, 0x00	; 0
    5fc6:	0e 94 87 24 	call	0x490e	; 0x490e <fill>
    5fca:	cc 24       	eor	r12, r12
    5fcc:	dd 24       	eor	r13, r13
    5fce:	28 e0       	ldi	r18, 0x08	; 8
    5fd0:	a2 2e       	mov	r10, r18
    5fd2:	b1 2c       	mov	r11, r1
    5fd4:	02 c0       	rjmp	.+4      	; 0x5fda <effect_random_filler+0x44>
    5fd6:	8f ef       	ldi	r24, 0xFF	; 255
    5fd8:	f6 cf       	rjmp	.-20     	; 0x5fc6 <effect_random_filler+0x30>
    5fda:	0e 94 72 54 	call	0xa8e4	; 0xa8e4 <rand>
    5fde:	b5 01       	movw	r22, r10
    5fe0:	0e 94 f6 53 	call	0xa7ec	; 0xa7ec <__divmodhi4>
    5fe4:	ec 01       	movw	r28, r24
    5fe6:	58 2e       	mov	r5, r24
    5fe8:	4d 2e       	mov	r4, r29
    5fea:	0e 94 72 54 	call	0xa8e4	; 0xa8e4 <rand>
    5fee:	b5 01       	movw	r22, r10
    5ff0:	0e 94 f6 53 	call	0xa7ec	; 0xa7ec <__divmodhi4>
    5ff4:	18 2f       	mov	r17, r24
    5ff6:	09 2f       	mov	r16, r25
    5ff8:	38 01       	movw	r6, r16
    5ffa:	0e 94 72 54 	call	0xa8e4	; 0xa8e4 <rand>
    5ffe:	b5 01       	movw	r22, r10
    6000:	0e 94 f6 53 	call	0xa7ec	; 0xa7ec <__divmodhi4>
    6004:	ac 01       	movw	r20, r24
    6006:	98 2e       	mov	r9, r24
    6008:	85 2e       	mov	r8, r21
    600a:	e1 14       	cp	r14, r1
    600c:	f1 04       	cpc	r15, r1
    600e:	41 f4       	brne	.+16     	; 0x6020 <effect_random_filler+0x8a>
    6010:	ce 01       	movw	r24, r28
    6012:	61 2f       	mov	r22, r17
    6014:	70 2f       	mov	r23, r16
    6016:	0e 94 60 23 	call	0x46c0	; 0x46c0 <getvoxel>
    601a:	81 30       	cpi	r24, 0x01	; 1
    601c:	d9 f4       	brne	.+54     	; 0x6054 <effect_random_filler+0xbe>
    601e:	0b c0       	rjmp	.+22     	; 0x6036 <effect_random_filler+0xa0>
    6020:	81 e0       	ldi	r24, 0x01	; 1
    6022:	e8 16       	cp	r14, r24
    6024:	f1 04       	cpc	r15, r1
    6026:	b1 f4       	brne	.+44     	; 0x6054 <effect_random_filler+0xbe>
    6028:	ce 01       	movw	r24, r28
    602a:	61 2f       	mov	r22, r17
    602c:	70 2f       	mov	r23, r16
    602e:	0e 94 60 23 	call	0x46c0	; 0x46c0 <getvoxel>
    6032:	88 23       	and	r24, r24
    6034:	79 f4       	brne	.+30     	; 0x6054 <effect_random_filler+0xbe>
    6036:	85 2d       	mov	r24, r5
    6038:	94 2d       	mov	r25, r4
    603a:	67 2d       	mov	r22, r7
    603c:	76 2d       	mov	r23, r6
    603e:	49 2d       	mov	r20, r9
    6040:	58 2d       	mov	r21, r8
    6042:	97 01       	movw	r18, r14
    6044:	0e 94 85 23 	call	0x470a	; 0x470a <altervoxel>
    6048:	c1 01       	movw	r24, r2
    604a:	0e 94 a7 27 	call	0x4f4e	; 0x4f4e <delay_ms>
    604e:	08 94       	sec
    6050:	c1 1c       	adc	r12, r1
    6052:	d1 1c       	adc	r13, r1
    6054:	8f ef       	ldi	r24, 0xFF	; 255
    6056:	c8 16       	cp	r12, r24
    6058:	81 e0       	ldi	r24, 0x01	; 1
    605a:	d8 06       	cpc	r13, r24
    605c:	0c f4       	brge	.+2      	; 0x6060 <effect_random_filler+0xca>
    605e:	bd cf       	rjmp	.-134    	; 0x5fda <effect_random_filler+0x44>
    6060:	df 91       	pop	r29
    6062:	cf 91       	pop	r28
    6064:	1f 91       	pop	r17
    6066:	0f 91       	pop	r16
    6068:	ff 90       	pop	r15
    606a:	ef 90       	pop	r14
    606c:	df 90       	pop	r13
    606e:	cf 90       	pop	r12
    6070:	bf 90       	pop	r11
    6072:	af 90       	pop	r10
    6074:	9f 90       	pop	r9
    6076:	8f 90       	pop	r8
    6078:	7f 90       	pop	r7
    607a:	6f 90       	pop	r6
    607c:	5f 90       	pop	r5
    607e:	4f 90       	pop	r4
    6080:	3f 90       	pop	r3
    6082:	2f 90       	pop	r2
    6084:	08 95       	ret

00006086 <effect_rain>:
    6086:	6f 92       	push	r6
    6088:	7f 92       	push	r7
    608a:	8f 92       	push	r8
    608c:	9f 92       	push	r9
    608e:	af 92       	push	r10
    6090:	bf 92       	push	r11
    6092:	cf 92       	push	r12
    6094:	df 92       	push	r13
    6096:	ef 92       	push	r14
    6098:	ff 92       	push	r15
    609a:	0f 93       	push	r16
    609c:	1f 93       	push	r17
    609e:	cf 93       	push	r28
    60a0:	df 93       	push	r29
    60a2:	4c 01       	movw	r8, r24
    60a4:	00 e0       	ldi	r16, 0x00	; 0
    60a6:	10 e0       	ldi	r17, 0x00	; 0
    60a8:	34 e0       	ldi	r19, 0x04	; 4
    60aa:	63 2e       	mov	r6, r19
    60ac:	71 2c       	mov	r7, r1
    60ae:	48 e0       	ldi	r20, 0x08	; 8
    60b0:	c4 2e       	mov	r12, r20
    60b2:	d1 2c       	mov	r13, r1
    60b4:	2d c0       	rjmp	.+90     	; 0x6110 <effect_rain+0x8a>
    60b6:	0e 94 72 54 	call	0xa8e4	; 0xa8e4 <rand>
    60ba:	b3 01       	movw	r22, r6
    60bc:	0e 94 f6 53 	call	0xa7ec	; 0xa7ec <__divmodhi4>
    60c0:	5c 01       	movw	r10, r24
    60c2:	c0 e0       	ldi	r28, 0x00	; 0
    60c4:	d0 e0       	ldi	r29, 0x00	; 0
    60c6:	16 c0       	rjmp	.+44     	; 0x60f4 <effect_rain+0x6e>
    60c8:	0e 94 72 54 	call	0xa8e4	; 0xa8e4 <rand>
    60cc:	7c 01       	movw	r14, r24
    60ce:	0e 94 72 54 	call	0xa8e4	; 0xa8e4 <rand>
    60d2:	9c 01       	movw	r18, r24
    60d4:	c7 01       	movw	r24, r14
    60d6:	b6 01       	movw	r22, r12
    60d8:	0e 94 f6 53 	call	0xa7ec	; 0xa7ec <__divmodhi4>
    60dc:	fc 01       	movw	r30, r24
    60de:	c9 01       	movw	r24, r18
    60e0:	b6 01       	movw	r22, r12
    60e2:	0e 94 f6 53 	call	0xa7ec	; 0xa7ec <__divmodhi4>
    60e6:	bc 01       	movw	r22, r24
    60e8:	cf 01       	movw	r24, r30
    60ea:	47 e0       	ldi	r20, 0x07	; 7
    60ec:	50 e0       	ldi	r21, 0x00	; 0
    60ee:	0e 94 3b 23 	call	0x4676	; 0x4676 <setvoxel>
    60f2:	21 96       	adiw	r28, 0x01	; 1
    60f4:	ca 15       	cp	r28, r10
    60f6:	db 05       	cpc	r29, r11
    60f8:	3c f3       	brlt	.-50     	; 0x60c8 <effect_rain+0x42>
    60fa:	88 ee       	ldi	r24, 0xE8	; 232
    60fc:	93 e0       	ldi	r25, 0x03	; 3
    60fe:	0e 94 a7 27 	call	0x4f4e	; 0x4f4e <delay_ms>
    6102:	8a e7       	ldi	r24, 0x7A	; 122
    6104:	6f ef       	ldi	r22, 0xFF	; 255
    6106:	7f ef       	ldi	r23, 0xFF	; 255
    6108:	0e 94 bf 27 	call	0x4f7e	; 0x4f7e <shift>
    610c:	0f 5f       	subi	r16, 0xFF	; 255
    610e:	1f 4f       	sbci	r17, 0xFF	; 255
    6110:	08 15       	cp	r16, r8
    6112:	19 05       	cpc	r17, r9
    6114:	84 f2       	brlt	.-96     	; 0x60b6 <effect_rain+0x30>
    6116:	df 91       	pop	r29
    6118:	cf 91       	pop	r28
    611a:	1f 91       	pop	r17
    611c:	0f 91       	pop	r16
    611e:	ff 90       	pop	r15
    6120:	ef 90       	pop	r14
    6122:	df 90       	pop	r13
    6124:	cf 90       	pop	r12
    6126:	bf 90       	pop	r11
    6128:	af 90       	pop	r10
    612a:	9f 90       	pop	r9
    612c:	8f 90       	pop	r8
    612e:	7f 90       	pop	r7
    6130:	6f 90       	pop	r6
    6132:	08 95       	ret

00006134 <draw_positions_axis>:
    6134:	6f 92       	push	r6
    6136:	7f 92       	push	r7
    6138:	8f 92       	push	r8
    613a:	9f 92       	push	r9
    613c:	af 92       	push	r10
    613e:	bf 92       	push	r11
    6140:	cf 92       	push	r12
    6142:	df 92       	push	r13
    6144:	ff 92       	push	r15
    6146:	0f 93       	push	r16
    6148:	1f 93       	push	r17
    614a:	cf 93       	push	r28
    614c:	df 93       	push	r29
    614e:	00 d0       	rcall	.+0      	; 0x6150 <draw_positions_axis+0x1c>
    6150:	cd b7       	in	r28, 0x3d	; 61
    6152:	de b7       	in	r29, 0x3e	; 62
    6154:	f8 2e       	mov	r15, r24
    6156:	4a 01       	movw	r8, r20
    6158:	80 e0       	ldi	r24, 0x00	; 0
    615a:	69 83       	std	Y+1, r22	; 0x01
    615c:	7a 83       	std	Y+2, r23	; 0x02
    615e:	0e 94 87 24 	call	0x490e	; 0x490e <fill>
    6162:	69 81       	ldd	r22, Y+1	; 0x01
    6164:	c6 2e       	mov	r12, r22
    6166:	7a 81       	ldd	r23, Y+2	; 0x02
    6168:	d7 2e       	mov	r13, r23
    616a:	00 e0       	ldi	r16, 0x00	; 0
    616c:	10 e0       	ldi	r17, 0x00	; 0
    616e:	67 e0       	ldi	r22, 0x07	; 7
    6170:	a6 2e       	mov	r10, r22
    6172:	b1 2c       	mov	r11, r1
    6174:	32 c0       	rjmp	.+100    	; 0x61da <draw_positions_axis+0xa6>
    6176:	f6 01       	movw	r30, r12
    6178:	e6 0d       	add	r30, r6
    617a:	f7 1d       	adc	r31, r7
    617c:	81 14       	cp	r8, r1
    617e:	91 04       	cpc	r9, r1
    6180:	29 f0       	breq	.+10     	; 0x618c <draw_positions_axis+0x58>
    6182:	80 81       	ld	r24, Z
    6184:	a5 01       	movw	r20, r10
    6186:	48 1b       	sub	r20, r24
    6188:	51 09       	sbc	r21, r1
    618a:	02 c0       	rjmp	.+4      	; 0x6190 <draw_positions_axis+0x5c>
    618c:	40 81       	ld	r20, Z
    618e:	50 e0       	ldi	r21, 0x00	; 0
    6190:	8a e7       	ldi	r24, 0x7A	; 122
    6192:	f8 16       	cp	r15, r24
    6194:	19 f4       	brne	.+6      	; 0x619c <draw_positions_axis+0x68>
    6196:	c8 01       	movw	r24, r16
    6198:	b3 01       	movw	r22, r6
    619a:	0d c0       	rjmp	.+26     	; 0x61b6 <draw_positions_axis+0x82>
    619c:	99 e7       	ldi	r25, 0x79	; 121
    619e:	f9 16       	cp	r15, r25
    61a0:	21 f4       	brne	.+8      	; 0x61aa <draw_positions_axis+0x76>
    61a2:	c8 01       	movw	r24, r16
    61a4:	ba 01       	movw	r22, r20
    61a6:	a3 01       	movw	r20, r6
    61a8:	06 c0       	rjmp	.+12     	; 0x61b6 <draw_positions_axis+0x82>
    61aa:	e8 e7       	ldi	r30, 0x78	; 120
    61ac:	fe 16       	cp	r15, r30
    61ae:	29 f4       	brne	.+10     	; 0x61ba <draw_positions_axis+0x86>
    61b0:	ca 01       	movw	r24, r20
    61b2:	b3 01       	movw	r22, r6
    61b4:	a8 01       	movw	r20, r16
    61b6:	0e 94 3b 23 	call	0x4676	; 0x4676 <setvoxel>
    61ba:	08 94       	sec
    61bc:	61 1c       	adc	r6, r1
    61be:	71 1c       	adc	r7, r1
    61c0:	f8 e0       	ldi	r31, 0x08	; 8
    61c2:	6f 16       	cp	r6, r31
    61c4:	71 04       	cpc	r7, r1
    61c6:	b9 f6       	brne	.-82     	; 0x6176 <draw_positions_axis+0x42>
    61c8:	0f 5f       	subi	r16, 0xFF	; 255
    61ca:	1f 4f       	sbci	r17, 0xFF	; 255
    61cc:	88 e0       	ldi	r24, 0x08	; 8
    61ce:	90 e0       	ldi	r25, 0x00	; 0
    61d0:	c8 0e       	add	r12, r24
    61d2:	d9 1e       	adc	r13, r25
    61d4:	08 30       	cpi	r16, 0x08	; 8
    61d6:	11 05       	cpc	r17, r1
    61d8:	19 f0       	breq	.+6      	; 0x61e0 <draw_positions_axis+0xac>
    61da:	66 24       	eor	r6, r6
    61dc:	77 24       	eor	r7, r7
    61de:	cb cf       	rjmp	.-106    	; 0x6176 <draw_positions_axis+0x42>
    61e0:	0f 90       	pop	r0
    61e2:	0f 90       	pop	r0
    61e4:	df 91       	pop	r29
    61e6:	cf 91       	pop	r28
    61e8:	1f 91       	pop	r17
    61ea:	0f 91       	pop	r16
    61ec:	ff 90       	pop	r15
    61ee:	df 90       	pop	r13
    61f0:	cf 90       	pop	r12
    61f2:	bf 90       	pop	r11
    61f4:	af 90       	pop	r10
    61f6:	9f 90       	pop	r9
    61f8:	8f 90       	pop	r8
    61fa:	7f 90       	pop	r7
    61fc:	6f 90       	pop	r6
    61fe:	08 95       	ret

00006200 <effect_axis_updown_randsuspend>:
    6200:	2f 92       	push	r2
    6202:	3f 92       	push	r3
    6204:	4f 92       	push	r4
    6206:	5f 92       	push	r5
    6208:	7f 92       	push	r7
    620a:	8f 92       	push	r8
    620c:	9f 92       	push	r9
    620e:	af 92       	push	r10
    6210:	bf 92       	push	r11
    6212:	cf 92       	push	r12
    6214:	df 92       	push	r13
    6216:	ef 92       	push	r14
    6218:	ff 92       	push	r15
    621a:	0f 93       	push	r16
    621c:	1f 93       	push	r17
    621e:	cf 93       	push	r28
    6220:	df 93       	push	r29
    6222:	cd b7       	in	r28, 0x3d	; 61
    6224:	de b7       	in	r29, 0x3e	; 62
    6226:	c0 58       	subi	r28, 0x80	; 128
    6228:	d0 40       	sbci	r29, 0x00	; 0
    622a:	0f b6       	in	r0, 0x3f	; 63
    622c:	f8 94       	cli
    622e:	de bf       	out	0x3e, r29	; 62
    6230:	0f be       	out	0x3f, r0	; 63
    6232:	cd bf       	out	0x3d, r28	; 61
    6234:	78 2e       	mov	r7, r24
    6236:	4b 01       	movw	r8, r22
    6238:	1a 01       	movw	r2, r20
    623a:	29 01       	movw	r4, r18
    623c:	7e 01       	movw	r14, r28
    623e:	08 94       	sec
    6240:	e1 1c       	adc	r14, r1
    6242:	f1 1c       	adc	r15, r1
    6244:	71 e4       	ldi	r23, 0x41	; 65
    6246:	c7 2e       	mov	r12, r23
    6248:	d1 2c       	mov	r13, r1
    624a:	cc 0e       	add	r12, r28
    624c:	dd 1e       	adc	r13, r29
    624e:	00 e0       	ldi	r16, 0x00	; 0
    6250:	10 e0       	ldi	r17, 0x00	; 0
    6252:	e8 e0       	ldi	r30, 0x08	; 8
    6254:	ae 2e       	mov	r10, r30
    6256:	b1 2c       	mov	r11, r1
    6258:	f6 01       	movw	r30, r12
    625a:	11 92       	st	Z+, r1
    625c:	6f 01       	movw	r12, r30
    625e:	0e 94 72 54 	call	0xa8e4	; 0xa8e4 <rand>
    6262:	b5 01       	movw	r22, r10
    6264:	0e 94 f6 53 	call	0xa7ec	; 0xa7ec <__divmodhi4>
    6268:	f7 01       	movw	r30, r14
    626a:	81 93       	st	Z+, r24
    626c:	7f 01       	movw	r14, r30
    626e:	0f 5f       	subi	r16, 0xFF	; 255
    6270:	1f 4f       	sbci	r17, 0xFF	; 255
    6272:	00 34       	cpi	r16, 0x40	; 64
    6274:	11 05       	cpc	r17, r1
    6276:	81 f7       	brne	.-32     	; 0x6258 <effect_axis_updown_randsuspend+0x58>
    6278:	08 e0       	ldi	r16, 0x08	; 8
    627a:	10 e0       	ldi	r17, 0x00	; 0
    627c:	18 c0       	rjmp	.+48     	; 0x62ae <effect_axis_updown_randsuspend+0xae>
    627e:	20 81       	ld	r18, Z
    6280:	3d 91       	ld	r19, X+
    6282:	23 17       	cp	r18, r19
    6284:	10 f4       	brcc	.+4      	; 0x628a <effect_axis_updown_randsuspend+0x8a>
    6286:	2f 5f       	subi	r18, 0xFF	; 255
    6288:	20 83       	st	Z, r18
    628a:	01 96       	adiw	r24, 0x01	; 1
    628c:	31 96       	adiw	r30, 0x01	; 1
    628e:	80 34       	cpi	r24, 0x40	; 64
    6290:	91 05       	cpc	r25, r1
    6292:	a9 f7       	brne	.-22     	; 0x627e <effect_axis_updown_randsuspend+0x7e>
    6294:	87 2d       	mov	r24, r7
    6296:	be 01       	movw	r22, r28
    6298:	6f 5b       	subi	r22, 0xBF	; 191
    629a:	7f 4f       	sbci	r23, 0xFF	; 255
    629c:	a2 01       	movw	r20, r4
    629e:	0e 94 9a 30 	call	0x6134	; 0x6134 <draw_positions_axis>
    62a2:	c4 01       	movw	r24, r8
    62a4:	0e 94 a7 27 	call	0x4f4e	; 0x4f4e <delay_ms>
    62a8:	01 50       	subi	r16, 0x01	; 1
    62aa:	10 40       	sbci	r17, 0x00	; 0
    62ac:	41 f0       	breq	.+16     	; 0x62be <effect_axis_updown_randsuspend+0xbe>
    62ae:	de 01       	movw	r26, r28
    62b0:	11 96       	adiw	r26, 0x01	; 1
    62b2:	fe 01       	movw	r30, r28
    62b4:	ef 5b       	subi	r30, 0xBF	; 191
    62b6:	ff 4f       	sbci	r31, 0xFF	; 255
    62b8:	80 e0       	ldi	r24, 0x00	; 0
    62ba:	90 e0       	ldi	r25, 0x00	; 0
    62bc:	e0 cf       	rjmp	.-64     	; 0x627e <effect_axis_updown_randsuspend+0x7e>
    62be:	fe 01       	movw	r30, r28
    62c0:	31 96       	adiw	r30, 0x01	; 1
    62c2:	80 e0       	ldi	r24, 0x00	; 0
    62c4:	90 e0       	ldi	r25, 0x00	; 0
    62c6:	27 e0       	ldi	r18, 0x07	; 7
    62c8:	21 93       	st	Z+, r18
    62ca:	01 96       	adiw	r24, 0x01	; 1
    62cc:	80 34       	cpi	r24, 0x40	; 64
    62ce:	91 05       	cpc	r25, r1
    62d0:	d9 f7       	brne	.-10     	; 0x62c8 <effect_axis_updown_randsuspend+0xc8>
    62d2:	c1 01       	movw	r24, r2
    62d4:	0e 94 a7 27 	call	0x4f4e	; 0x4f4e <delay_ms>
    62d8:	08 e0       	ldi	r16, 0x08	; 8
    62da:	10 e0       	ldi	r17, 0x00	; 0
    62dc:	1d c0       	rjmp	.+58     	; 0x6318 <effect_axis_updown_randsuspend+0x118>
    62de:	20 81       	ld	r18, Z
    62e0:	3d 91       	ld	r19, X+
    62e2:	23 17       	cp	r18, r19
    62e4:	10 f4       	brcc	.+4      	; 0x62ea <effect_axis_updown_randsuspend+0xea>
    62e6:	2f 5f       	subi	r18, 0xFF	; 255
    62e8:	20 83       	st	Z, r18
    62ea:	20 81       	ld	r18, Z
    62ec:	32 17       	cp	r19, r18
    62ee:	10 f4       	brcc	.+4      	; 0x62f4 <effect_axis_updown_randsuspend+0xf4>
    62f0:	21 50       	subi	r18, 0x01	; 1
    62f2:	20 83       	st	Z, r18
    62f4:	01 96       	adiw	r24, 0x01	; 1
    62f6:	31 96       	adiw	r30, 0x01	; 1
    62f8:	80 34       	cpi	r24, 0x40	; 64
    62fa:	91 05       	cpc	r25, r1
    62fc:	81 f7       	brne	.-32     	; 0x62de <effect_axis_updown_randsuspend+0xde>
    62fe:	87 2d       	mov	r24, r7
    6300:	be 01       	movw	r22, r28
    6302:	6f 5b       	subi	r22, 0xBF	; 191
    6304:	7f 4f       	sbci	r23, 0xFF	; 255
    6306:	a2 01       	movw	r20, r4
    6308:	0e 94 9a 30 	call	0x6134	; 0x6134 <draw_positions_axis>
    630c:	c4 01       	movw	r24, r8
    630e:	0e 94 a7 27 	call	0x4f4e	; 0x4f4e <delay_ms>
    6312:	01 50       	subi	r16, 0x01	; 1
    6314:	10 40       	sbci	r17, 0x00	; 0
    6316:	41 f0       	breq	.+16     	; 0x6328 <effect_axis_updown_randsuspend+0x128>
    6318:	de 01       	movw	r26, r28
    631a:	11 96       	adiw	r26, 0x01	; 1
    631c:	fe 01       	movw	r30, r28
    631e:	ef 5b       	subi	r30, 0xBF	; 191
    6320:	ff 4f       	sbci	r31, 0xFF	; 255
    6322:	80 e0       	ldi	r24, 0x00	; 0
    6324:	90 e0       	ldi	r25, 0x00	; 0
    6326:	db cf       	rjmp	.-74     	; 0x62de <effect_axis_updown_randsuspend+0xde>
    6328:	c0 58       	subi	r28, 0x80	; 128
    632a:	df 4f       	sbci	r29, 0xFF	; 255
    632c:	0f b6       	in	r0, 0x3f	; 63
    632e:	f8 94       	cli
    6330:	de bf       	out	0x3e, r29	; 62
    6332:	0f be       	out	0x3f, r0	; 63
    6334:	cd bf       	out	0x3d, r28	; 61
    6336:	df 91       	pop	r29
    6338:	cf 91       	pop	r28
    633a:	1f 91       	pop	r17
    633c:	0f 91       	pop	r16
    633e:	ff 90       	pop	r15
    6340:	ef 90       	pop	r14
    6342:	df 90       	pop	r13
    6344:	cf 90       	pop	r12
    6346:	bf 90       	pop	r11
    6348:	af 90       	pop	r10
    634a:	9f 90       	pop	r9
    634c:	8f 90       	pop	r8
    634e:	7f 90       	pop	r7
    6350:	5f 90       	pop	r5
    6352:	4f 90       	pop	r4
    6354:	3f 90       	pop	r3
    6356:	2f 90       	pop	r2
    6358:	08 95       	ret

0000635a <effect_z_updown_move>:
    635a:	cf 93       	push	r28
    635c:	df 93       	push	r29
    635e:	48 2f       	mov	r20, r24
    6360:	e8 2f       	mov	r30, r24
    6362:	f9 2f       	mov	r31, r25
    6364:	db 01       	movw	r26, r22
    6366:	20 e0       	ldi	r18, 0x00	; 0
    6368:	30 e0       	ldi	r19, 0x00	; 0
    636a:	80 81       	ld	r24, Z
    636c:	ed 01       	movw	r28, r26
    636e:	5c 91       	ld	r21, X
    6370:	85 17       	cp	r24, r21
    6372:	10 f4       	brcc	.+4      	; 0x6378 <effect_z_updown_move+0x1e>
    6374:	8f 5f       	subi	r24, 0xFF	; 255
    6376:	80 83       	st	Z, r24
    6378:	80 81       	ld	r24, Z
    637a:	11 96       	adiw	r26, 0x01	; 1
    637c:	58 81       	ld	r21, Y
    637e:	58 17       	cp	r21, r24
    6380:	10 f4       	brcc	.+4      	; 0x6386 <effect_z_updown_move+0x2c>
    6382:	81 50       	subi	r24, 0x01	; 1
    6384:	80 83       	st	Z, r24
    6386:	2f 5f       	subi	r18, 0xFF	; 255
    6388:	3f 4f       	sbci	r19, 0xFF	; 255
    638a:	31 96       	adiw	r30, 0x01	; 1
    638c:	20 34       	cpi	r18, 0x40	; 64
    638e:	31 05       	cpc	r19, r1
    6390:	61 f7       	brne	.-40     	; 0x636a <effect_z_updown_move+0x10>
    6392:	8a e7       	ldi	r24, 0x7A	; 122
    6394:	64 2f       	mov	r22, r20
    6396:	79 2f       	mov	r23, r25
    6398:	40 e0       	ldi	r20, 0x00	; 0
    639a:	50 e0       	ldi	r21, 0x00	; 0
    639c:	0e 94 9a 30 	call	0x6134	; 0x6134 <draw_positions_axis>
    63a0:	df 91       	pop	r29
    63a2:	cf 91       	pop	r28
    63a4:	08 95       	ret

000063a6 <effect_z_updown>:
    63a6:	2f 92       	push	r2
    63a8:	3f 92       	push	r3
    63aa:	4f 92       	push	r4
    63ac:	5f 92       	push	r5
    63ae:	6f 92       	push	r6
    63b0:	7f 92       	push	r7
    63b2:	8f 92       	push	r8
    63b4:	9f 92       	push	r9
    63b6:	af 92       	push	r10
    63b8:	bf 92       	push	r11
    63ba:	cf 92       	push	r12
    63bc:	df 92       	push	r13
    63be:	ef 92       	push	r14
    63c0:	ff 92       	push	r15
    63c2:	0f 93       	push	r16
    63c4:	1f 93       	push	r17
    63c6:	cf 93       	push	r28
    63c8:	df 93       	push	r29
    63ca:	cd b7       	in	r28, 0x3d	; 61
    63cc:	de b7       	in	r29, 0x3e	; 62
    63ce:	c0 58       	subi	r28, 0x80	; 128
    63d0:	d0 40       	sbci	r29, 0x00	; 0
    63d2:	0f b6       	in	r0, 0x3f	; 63
    63d4:	f8 94       	cli
    63d6:	de bf       	out	0x3e, r29	; 62
    63d8:	0f be       	out	0x3f, r0	; 63
    63da:	cd bf       	out	0x3d, r28	; 61
    63dc:	1c 01       	movw	r2, r24
    63de:	4b 01       	movw	r8, r22
    63e0:	11 e4       	ldi	r17, 0x41	; 65
    63e2:	e1 2e       	mov	r14, r17
    63e4:	f1 2c       	mov	r15, r1
    63e6:	ec 0e       	add	r14, r28
    63e8:	fd 1e       	adc	r15, r29
    63ea:	6e 01       	movw	r12, r28
    63ec:	08 94       	sec
    63ee:	c1 1c       	adc	r12, r1
    63f0:	d1 1c       	adc	r13, r1
    63f2:	00 e0       	ldi	r16, 0x00	; 0
    63f4:	10 e0       	ldi	r17, 0x00	; 0
    63f6:	24 e0       	ldi	r18, 0x04	; 4
    63f8:	b2 2e       	mov	r11, r18
    63fa:	38 e0       	ldi	r19, 0x08	; 8
    63fc:	63 2e       	mov	r6, r19
    63fe:	71 2c       	mov	r7, r1
    6400:	f7 01       	movw	r30, r14
    6402:	b1 92       	st	Z+, r11
    6404:	7f 01       	movw	r14, r30
    6406:	0e 94 72 54 	call	0xa8e4	; 0xa8e4 <rand>
    640a:	b3 01       	movw	r22, r6
    640c:	0e 94 f6 53 	call	0xa7ec	; 0xa7ec <__divmodhi4>
    6410:	f6 01       	movw	r30, r12
    6412:	81 93       	st	Z+, r24
    6414:	6f 01       	movw	r12, r30
    6416:	0f 5f       	subi	r16, 0xFF	; 255
    6418:	1f 4f       	sbci	r17, 0xFF	; 255
    641a:	00 34       	cpi	r16, 0x40	; 64
    641c:	11 05       	cpc	r17, r1
    641e:	81 f7       	brne	.-32     	; 0x6400 <effect_z_updown+0x5a>
    6420:	08 e0       	ldi	r16, 0x08	; 8
    6422:	10 e0       	ldi	r17, 0x00	; 0
    6424:	d8 2c       	mov	r13, r8
    6426:	c9 2c       	mov	r12, r9
    6428:	ce 01       	movw	r24, r28
    642a:	8f 5b       	subi	r24, 0xBF	; 191
    642c:	9f 4f       	sbci	r25, 0xFF	; 255
    642e:	be 01       	movw	r22, r28
    6430:	6f 5f       	subi	r22, 0xFF	; 255
    6432:	7f 4f       	sbci	r23, 0xFF	; 255
    6434:	4a e7       	ldi	r20, 0x7A	; 122
    6436:	0e 94 ad 31 	call	0x635a	; 0x635a <effect_z_updown_move>
    643a:	8d 2d       	mov	r24, r13
    643c:	9c 2d       	mov	r25, r12
    643e:	0e 94 a7 27 	call	0x4f4e	; 0x4f4e <delay_ms>
    6442:	01 50       	subi	r16, 0x01	; 1
    6444:	10 40       	sbci	r17, 0x00	; 0
    6446:	81 f7       	brne	.-32     	; 0x6428 <effect_z_updown+0x82>
    6448:	34 01       	movw	r6, r8
    644a:	66 0c       	add	r6, r6
    644c:	77 1c       	adc	r7, r7
    644e:	66 0c       	add	r6, r6
    6450:	77 1c       	adc	r7, r7
    6452:	ee 24       	eor	r14, r14
    6454:	ff 24       	eor	r15, r15
    6456:	a8 e0       	ldi	r26, 0x08	; 8
    6458:	aa 2e       	mov	r10, r26
    645a:	b1 2c       	mov	r11, r1
    645c:	b0 e4       	ldi	r27, 0x40	; 64
    645e:	4b 2e       	mov	r4, r27
    6460:	51 2c       	mov	r5, r1
    6462:	33 c0       	rjmp	.+102    	; 0x64ca <effect_z_updown+0x124>
    6464:	08 e0       	ldi	r16, 0x08	; 8
    6466:	10 e0       	ldi	r17, 0x00	; 0
    6468:	ce 01       	movw	r24, r28
    646a:	8f 5b       	subi	r24, 0xBF	; 191
    646c:	9f 4f       	sbci	r25, 0xFF	; 255
    646e:	be 01       	movw	r22, r28
    6470:	6f 5f       	subi	r22, 0xFF	; 255
    6472:	7f 4f       	sbci	r23, 0xFF	; 255
    6474:	4a e7       	ldi	r20, 0x7A	; 122
    6476:	0e 94 ad 31 	call	0x635a	; 0x635a <effect_z_updown_move>
    647a:	8d 2d       	mov	r24, r13
    647c:	9c 2d       	mov	r25, r12
    647e:	0e 94 a7 27 	call	0x4f4e	; 0x4f4e <delay_ms>
    6482:	01 50       	subi	r16, 0x01	; 1
    6484:	10 40       	sbci	r17, 0x00	; 0
    6486:	81 f7       	brne	.-32     	; 0x6468 <effect_z_updown+0xc2>
    6488:	c3 01       	movw	r24, r6
    648a:	0e 94 a7 27 	call	0x4f4e	; 0x4f4e <delay_ms>
    648e:	00 e2       	ldi	r16, 0x20	; 32
    6490:	10 e0       	ldi	r17, 0x00	; 0
    6492:	0e 94 72 54 	call	0xa8e4	; 0xa8e4 <rand>
    6496:	4c 01       	movw	r8, r24
    6498:	0e 94 72 54 	call	0xa8e4	; 0xa8e4 <rand>
    649c:	9c 01       	movw	r18, r24
    649e:	c4 01       	movw	r24, r8
    64a0:	b2 01       	movw	r22, r4
    64a2:	0e 94 f6 53 	call	0xa7ec	; 0xa7ec <__divmodhi4>
    64a6:	fc 01       	movw	r30, r24
    64a8:	81 e0       	ldi	r24, 0x01	; 1
    64aa:	90 e0       	ldi	r25, 0x00	; 0
    64ac:	8c 0f       	add	r24, r28
    64ae:	9d 1f       	adc	r25, r29
    64b0:	e8 0f       	add	r30, r24
    64b2:	f9 1f       	adc	r31, r25
    64b4:	c9 01       	movw	r24, r18
    64b6:	b5 01       	movw	r22, r10
    64b8:	0e 94 f6 53 	call	0xa7ec	; 0xa7ec <__divmodhi4>
    64bc:	80 83       	st	Z, r24
    64be:	01 50       	subi	r16, 0x01	; 1
    64c0:	10 40       	sbci	r17, 0x00	; 0
    64c2:	39 f7       	brne	.-50     	; 0x6492 <effect_z_updown+0xec>
    64c4:	08 94       	sec
    64c6:	e1 1c       	adc	r14, r1
    64c8:	f1 1c       	adc	r15, r1
    64ca:	e2 14       	cp	r14, r2
    64cc:	f3 04       	cpc	r15, r3
    64ce:	54 f2       	brlt	.-108    	; 0x6464 <effect_z_updown+0xbe>
    64d0:	c0 58       	subi	r28, 0x80	; 128
    64d2:	df 4f       	sbci	r29, 0xFF	; 255
    64d4:	0f b6       	in	r0, 0x3f	; 63
    64d6:	f8 94       	cli
    64d8:	de bf       	out	0x3e, r29	; 62
    64da:	0f be       	out	0x3f, r0	; 63
    64dc:	cd bf       	out	0x3d, r28	; 61
    64de:	df 91       	pop	r29
    64e0:	cf 91       	pop	r28
    64e2:	1f 91       	pop	r17
    64e4:	0f 91       	pop	r16
    64e6:	ff 90       	pop	r15
    64e8:	ef 90       	pop	r14
    64ea:	df 90       	pop	r13
    64ec:	cf 90       	pop	r12
    64ee:	bf 90       	pop	r11
    64f0:	af 90       	pop	r10
    64f2:	9f 90       	pop	r9
    64f4:	8f 90       	pop	r8
    64f6:	7f 90       	pop	r7
    64f8:	6f 90       	pop	r6
    64fa:	5f 90       	pop	r5
    64fc:	4f 90       	pop	r4
    64fe:	3f 90       	pop	r3
    6500:	2f 90       	pop	r2
    6502:	08 95       	ret

00006504 <effect_boxside_randsend_parallel>:
    6504:	2f 92       	push	r2
    6506:	3f 92       	push	r3
    6508:	4f 92       	push	r4
    650a:	5f 92       	push	r5
    650c:	6f 92       	push	r6
    650e:	7f 92       	push	r7
    6510:	8f 92       	push	r8
    6512:	9f 92       	push	r9
    6514:	af 92       	push	r10
    6516:	bf 92       	push	r11
    6518:	cf 92       	push	r12
    651a:	df 92       	push	r13
    651c:	ef 92       	push	r14
    651e:	ff 92       	push	r15
    6520:	0f 93       	push	r16
    6522:	1f 93       	push	r17
    6524:	cf 93       	push	r28
    6526:	df 93       	push	r29
    6528:	cd b7       	in	r28, 0x3d	; 61
    652a:	de b7       	in	r29, 0x3e	; 62
    652c:	c0 58       	subi	r28, 0x80	; 128
    652e:	d0 40       	sbci	r29, 0x00	; 0
    6530:	0f b6       	in	r0, 0x3f	; 63
    6532:	f8 94       	cli
    6534:	de bf       	out	0x3e, r29	; 62
    6536:	0f be       	out	0x3f, r0	; 63
    6538:	cd bf       	out	0x3d, r28	; 61
    653a:	a8 2e       	mov	r10, r24
    653c:	1b 01       	movw	r2, r22
    653e:	2a 01       	movw	r4, r20
    6540:	49 01       	movw	r8, r18
    6542:	fe 01       	movw	r30, r28
    6544:	31 96       	adiw	r30, 0x01	; 1
    6546:	80 e0       	ldi	r24, 0x00	; 0
    6548:	90 e0       	ldi	r25, 0x00	; 0
    654a:	11 92       	st	Z+, r1
    654c:	01 96       	adiw	r24, 0x01	; 1
    654e:	80 34       	cpi	r24, 0x40	; 64
    6550:	91 05       	cpc	r25, r1
    6552:	d9 f7       	brne	.-10     	; 0x654a <effect_boxside_randsend_parallel+0x46>
    6554:	00 e0       	ldi	r16, 0x00	; 0
    6556:	10 e0       	ldi	r17, 0x00	; 0
    6558:	40 e4       	ldi	r20, 0x40	; 64
    655a:	64 2e       	mov	r6, r20
    655c:	71 2c       	mov	r7, r1
    655e:	cc 24       	eor	r12, r12
    6560:	c3 94       	inc	r12
    6562:	57 e0       	ldi	r21, 0x07	; 7
    6564:	d5 2e       	mov	r13, r21
    6566:	64 e0       	ldi	r22, 0x04	; 4
    6568:	b6 2e       	mov	r11, r22
    656a:	31 e0       	ldi	r19, 0x01	; 1
    656c:	83 16       	cp	r8, r19
    656e:	91 04       	cpc	r9, r1
    6570:	b1 f4       	brne	.+44     	; 0x659e <effect_boxside_randsend_parallel+0x9a>
    6572:	00 34       	cpi	r16, 0x40	; 64
    6574:	11 05       	cpc	r17, r1
    6576:	2c f5       	brge	.+74     	; 0x65c2 <effect_boxside_randsend_parallel+0xbe>
    6578:	0e 94 72 54 	call	0xa8e4	; 0xa8e4 <rand>
    657c:	b3 01       	movw	r22, r6
    657e:	0e 94 f6 53 	call	0xa7ec	; 0xa7ec <__divmodhi4>
    6582:	fc 01       	movw	r30, r24
    6584:	81 e0       	ldi	r24, 0x01	; 1
    6586:	90 e0       	ldi	r25, 0x00	; 0
    6588:	8c 0f       	add	r24, r28
    658a:	9d 1f       	adc	r25, r29
    658c:	e8 0f       	add	r30, r24
    658e:	f9 1f       	adc	r31, r25
    6590:	80 81       	ld	r24, Z
    6592:	88 23       	and	r24, r24
    6594:	89 f7       	brne	.-30     	; 0x6578 <effect_boxside_randsend_parallel+0x74>
    6596:	0f 5f       	subi	r16, 0xFF	; 255
    6598:	1f 4f       	sbci	r17, 0xFF	; 255
    659a:	c0 82       	st	Z, r12
    659c:	12 c0       	rjmp	.+36     	; 0x65c2 <effect_boxside_randsend_parallel+0xbe>
    659e:	92 e0       	ldi	r25, 0x02	; 2
    65a0:	89 16       	cp	r8, r25
    65a2:	91 04       	cpc	r9, r1
    65a4:	71 f4       	brne	.+28     	; 0x65c2 <effect_boxside_randsend_parallel+0xbe>
    65a6:	00 34       	cpi	r16, 0x40	; 64
    65a8:	11 05       	cpc	r17, r1
    65aa:	5c f4       	brge	.+22     	; 0x65c2 <effect_boxside_randsend_parallel+0xbe>
    65ac:	e1 e0       	ldi	r30, 0x01	; 1
    65ae:	f0 e0       	ldi	r31, 0x00	; 0
    65b0:	ec 0f       	add	r30, r28
    65b2:	fd 1f       	adc	r31, r29
    65b4:	e0 0f       	add	r30, r16
    65b6:	f1 1f       	adc	r31, r17
    65b8:	80 81       	ld	r24, Z
    65ba:	8f 5f       	subi	r24, 0xFF	; 255
    65bc:	80 83       	st	Z, r24
    65be:	0f 5f       	subi	r16, 0xFF	; 255
    65c0:	1f 4f       	sbci	r17, 0xFF	; 255
    65c2:	fe 01       	movw	r30, r28
    65c4:	31 96       	adiw	r30, 0x01	; 1
    65c6:	ee 24       	eor	r14, r14
    65c8:	ff 24       	eor	r15, r15
    65ca:	80 e0       	ldi	r24, 0x00	; 0
    65cc:	90 e0       	ldi	r25, 0x00	; 0
    65ce:	df 01       	movw	r26, r30
    65d0:	20 81       	ld	r18, Z
    65d2:	32 2f       	mov	r19, r18
    65d4:	31 50       	subi	r19, 0x01	; 1
    65d6:	36 30       	cpi	r19, 0x06	; 6
    65d8:	10 f4       	brcc	.+4      	; 0x65de <effect_boxside_randsend_parallel+0xda>
    65da:	2f 5f       	subi	r18, 0xFF	; 255
    65dc:	20 83       	st	Z, r18
    65de:	31 96       	adiw	r30, 0x01	; 1
    65e0:	2c 91       	ld	r18, X
    65e2:	27 30       	cpi	r18, 0x07	; 7
    65e4:	19 f4       	brne	.+6      	; 0x65ec <effect_boxside_randsend_parallel+0xe8>
    65e6:	08 94       	sec
    65e8:	e1 1c       	adc	r14, r1
    65ea:	f1 1c       	adc	r15, r1
    65ec:	01 96       	adiw	r24, 0x01	; 1
    65ee:	80 34       	cpi	r24, 0x40	; 64
    65f0:	91 05       	cpc	r25, r1
    65f2:	69 f7       	brne	.-38     	; 0x65ce <effect_boxside_randsend_parallel+0xca>
    65f4:	fe 01       	movw	r30, r28
    65f6:	ef 5b       	subi	r30, 0xBF	; 191
    65f8:	ff 4f       	sbci	r31, 0xFF	; 255
    65fa:	de 01       	movw	r26, r28
    65fc:	11 96       	adiw	r26, 0x01	; 1
    65fe:	80 e0       	ldi	r24, 0x00	; 0
    6600:	90 e0       	ldi	r25, 0x00	; 0
    6602:	2c 91       	ld	r18, X
    6604:	21 14       	cp	r2, r1
    6606:	31 04       	cpc	r3, r1
    6608:	19 f0       	breq	.+6      	; 0x6610 <effect_boxside_randsend_parallel+0x10c>
    660a:	3d 2d       	mov	r19, r13
    660c:	32 1b       	sub	r19, r18
    660e:	23 2f       	mov	r18, r19
    6610:	20 83       	st	Z, r18
    6612:	01 96       	adiw	r24, 0x01	; 1
    6614:	11 96       	adiw	r26, 0x01	; 1
    6616:	31 96       	adiw	r30, 0x01	; 1
    6618:	80 34       	cpi	r24, 0x40	; 64
    661a:	91 05       	cpc	r25, r1
    661c:	91 f7       	brne	.-28     	; 0x6602 <effect_boxside_randsend_parallel+0xfe>
    661e:	c2 01       	movw	r24, r4
    6620:	0e 94 a7 27 	call	0x4f4e	; 0x4f4e <delay_ms>
    6624:	8a 2d       	mov	r24, r10
    6626:	be 01       	movw	r22, r28
    6628:	6f 5b       	subi	r22, 0xBF	; 191
    662a:	7f 4f       	sbci	r23, 0xFF	; 255
    662c:	40 e0       	ldi	r20, 0x00	; 0
    662e:	50 e0       	ldi	r21, 0x00	; 0
    6630:	0e 94 9a 30 	call	0x6134	; 0x6134 <draw_positions_axis>
    6634:	8b b1       	in	r24, 0x0b	; 11
    6636:	8b 25       	eor	r24, r11
    6638:	8b b9       	out	0x0b, r24	; 11
    663a:	80 e4       	ldi	r24, 0x40	; 64
    663c:	e8 16       	cp	r14, r24
    663e:	f1 04       	cpc	r15, r1
    6640:	09 f0       	breq	.+2      	; 0x6644 <effect_boxside_randsend_parallel+0x140>
    6642:	93 cf       	rjmp	.-218    	; 0x656a <effect_boxside_randsend_parallel+0x66>
    6644:	c0 58       	subi	r28, 0x80	; 128
    6646:	df 4f       	sbci	r29, 0xFF	; 255
    6648:	0f b6       	in	r0, 0x3f	; 63
    664a:	f8 94       	cli
    664c:	de bf       	out	0x3e, r29	; 62
    664e:	0f be       	out	0x3f, r0	; 63
    6650:	cd bf       	out	0x3d, r28	; 61
    6652:	df 91       	pop	r29
    6654:	cf 91       	pop	r28
    6656:	1f 91       	pop	r17
    6658:	0f 91       	pop	r16
    665a:	ff 90       	pop	r15
    665c:	ef 90       	pop	r14
    665e:	df 90       	pop	r13
    6660:	cf 90       	pop	r12
    6662:	bf 90       	pop	r11
    6664:	af 90       	pop	r10
    6666:	9f 90       	pop	r9
    6668:	8f 90       	pop	r8
    666a:	7f 90       	pop	r7
    666c:	6f 90       	pop	r6
    666e:	5f 90       	pop	r5
    6670:	4f 90       	pop	r4
    6672:	3f 90       	pop	r3
    6674:	2f 90       	pop	r2
    6676:	08 95       	ret

00006678 <effect_loadbar>:
    6678:	df 92       	push	r13
    667a:	ef 92       	push	r14
    667c:	ff 92       	push	r15
    667e:	0f 93       	push	r16
    6680:	1f 93       	push	r17
    6682:	cf 93       	push	r28
    6684:	df 93       	push	r29
    6686:	8c 01       	movw	r16, r24
    6688:	80 e0       	ldi	r24, 0x00	; 0
    668a:	0e 94 87 24 	call	0x490e	; 0x490e <fill>
    668e:	c0 e0       	ldi	r28, 0x00	; 0
    6690:	d0 e0       	ldi	r29, 0x00	; 0
    6692:	dd 24       	eor	r13, r13
    6694:	da 94       	dec	r13
    6696:	78 01       	movw	r14, r16
    6698:	fe 01       	movw	r30, r28
    669a:	a3 e0       	ldi	r26, 0x03	; 3
    669c:	ee 0f       	add	r30, r30
    669e:	ff 1f       	adc	r31, r31
    66a0:	aa 95       	dec	r26
    66a2:	e1 f7       	brne	.-8      	; 0x669c <effect_loadbar+0x24>
    66a4:	e0 55       	subi	r30, 0x50	; 80
    66a6:	fe 4f       	sbci	r31, 0xFE	; 254
    66a8:	d0 82       	st	Z, r13
    66aa:	d1 82       	std	Z+1, r13	; 0x01
    66ac:	d2 82       	std	Z+2, r13	; 0x02
    66ae:	d3 82       	std	Z+3, r13	; 0x03
    66b0:	d4 82       	std	Z+4, r13	; 0x04
    66b2:	d5 82       	std	Z+5, r13	; 0x05
    66b4:	d6 82       	std	Z+6, r13	; 0x06
    66b6:	d7 82       	std	Z+7, r13	; 0x07
    66b8:	c7 01       	movw	r24, r14
    66ba:	0e 94 a7 27 	call	0x4f4e	; 0x4f4e <delay_ms>
    66be:	21 96       	adiw	r28, 0x01	; 1
    66c0:	c8 30       	cpi	r28, 0x08	; 8
    66c2:	d1 05       	cpc	r29, r1
    66c4:	49 f7       	brne	.-46     	; 0x6698 <effect_loadbar+0x20>
    66c6:	c8 01       	movw	r24, r16
    66c8:	88 0f       	add	r24, r24
    66ca:	99 1f       	adc	r25, r25
    66cc:	80 0f       	add	r24, r16
    66ce:	91 1f       	adc	r25, r17
    66d0:	0e 94 a7 27 	call	0x4f4e	; 0x4f4e <delay_ms>
    66d4:	c0 e0       	ldi	r28, 0x00	; 0
    66d6:	d0 e0       	ldi	r29, 0x00	; 0
    66d8:	fe 01       	movw	r30, r28
    66da:	73 e0       	ldi	r23, 0x03	; 3
    66dc:	ee 0f       	add	r30, r30
    66de:	ff 1f       	adc	r31, r31
    66e0:	7a 95       	dec	r23
    66e2:	e1 f7       	brne	.-8      	; 0x66dc <effect_loadbar+0x64>
    66e4:	e0 55       	subi	r30, 0x50	; 80
    66e6:	fe 4f       	sbci	r31, 0xFE	; 254
    66e8:	10 82       	st	Z, r1
    66ea:	11 82       	std	Z+1, r1	; 0x01
    66ec:	12 82       	std	Z+2, r1	; 0x02
    66ee:	13 82       	std	Z+3, r1	; 0x03
    66f0:	14 82       	std	Z+4, r1	; 0x04
    66f2:	15 82       	std	Z+5, r1	; 0x05
    66f4:	16 82       	std	Z+6, r1	; 0x06
    66f6:	17 82       	std	Z+7, r1	; 0x07
    66f8:	c7 01       	movw	r24, r14
    66fa:	0e 94 a7 27 	call	0x4f4e	; 0x4f4e <delay_ms>
    66fe:	21 96       	adiw	r28, 0x01	; 1
    6700:	c8 30       	cpi	r28, 0x08	; 8
    6702:	d1 05       	cpc	r29, r1
    6704:	49 f7       	brne	.-46     	; 0x66d8 <effect_loadbar+0x60>
    6706:	df 91       	pop	r29
    6708:	cf 91       	pop	r28
    670a:	1f 91       	pop	r17
    670c:	0f 91       	pop	r16
    670e:	ff 90       	pop	r15
    6710:	ef 90       	pop	r14
    6712:	df 90       	pop	r13
    6714:	08 95       	ret

00006716 <effect_random_sparkle_flash>:
    6716:	4f 92       	push	r4
    6718:	5f 92       	push	r5
    671a:	6f 92       	push	r6
    671c:	7f 92       	push	r7
    671e:	8f 92       	push	r8
    6720:	9f 92       	push	r9
    6722:	af 92       	push	r10
    6724:	bf 92       	push	r11
    6726:	cf 92       	push	r12
    6728:	df 92       	push	r13
    672a:	ef 92       	push	r14
    672c:	ff 92       	push	r15
    672e:	0f 93       	push	r16
    6730:	1f 93       	push	r17
    6732:	cf 93       	push	r28
    6734:	df 93       	push	r29
    6736:	4c 01       	movw	r8, r24
    6738:	3b 01       	movw	r6, r22
    673a:	2a 01       	movw	r4, r20
    673c:	00 e0       	ldi	r16, 0x00	; 0
    673e:	10 e0       	ldi	r17, 0x00	; 0
    6740:	b8 e0       	ldi	r27, 0x08	; 8
    6742:	eb 2e       	mov	r14, r27
    6744:	f1 2c       	mov	r15, r1
    6746:	2b c0       	rjmp	.+86     	; 0x679e <effect_random_sparkle_flash+0x88>
    6748:	0e 94 72 54 	call	0xa8e4	; 0xa8e4 <rand>
    674c:	6c 01       	movw	r12, r24
    674e:	0e 94 72 54 	call	0xa8e4	; 0xa8e4 <rand>
    6752:	5c 01       	movw	r10, r24
    6754:	0e 94 72 54 	call	0xa8e4	; 0xa8e4 <rand>
    6758:	9c 01       	movw	r18, r24
    675a:	c6 01       	movw	r24, r12
    675c:	b7 01       	movw	r22, r14
    675e:	0e 94 f6 53 	call	0xa7ec	; 0xa7ec <__divmodhi4>
    6762:	fc 01       	movw	r30, r24
    6764:	c5 01       	movw	r24, r10
    6766:	b7 01       	movw	r22, r14
    6768:	0e 94 f6 53 	call	0xa7ec	; 0xa7ec <__divmodhi4>
    676c:	6c 01       	movw	r12, r24
    676e:	c9 01       	movw	r24, r18
    6770:	b7 01       	movw	r22, r14
    6772:	0e 94 f6 53 	call	0xa7ec	; 0xa7ec <__divmodhi4>
    6776:	ac 01       	movw	r20, r24
    6778:	cf 01       	movw	r24, r30
    677a:	b6 01       	movw	r22, r12
    677c:	0e 94 3b 23 	call	0x4676	; 0x4676 <setvoxel>
    6780:	21 96       	adiw	r28, 0x01	; 1
    6782:	02 c0       	rjmp	.+4      	; 0x6788 <effect_random_sparkle_flash+0x72>
    6784:	c0 e0       	ldi	r28, 0x00	; 0
    6786:	d0 e0       	ldi	r29, 0x00	; 0
    6788:	6c 16       	cp	r6, r28
    678a:	7d 06       	cpc	r7, r29
    678c:	ec f6       	brge	.-70     	; 0x6748 <effect_random_sparkle_flash+0x32>
    678e:	c2 01       	movw	r24, r4
    6790:	0e 94 a7 27 	call	0x4f4e	; 0x4f4e <delay_ms>
    6794:	80 e0       	ldi	r24, 0x00	; 0
    6796:	0e 94 87 24 	call	0x490e	; 0x490e <fill>
    679a:	0f 5f       	subi	r16, 0xFF	; 255
    679c:	1f 4f       	sbci	r17, 0xFF	; 255
    679e:	08 15       	cp	r16, r8
    67a0:	19 05       	cpc	r17, r9
    67a2:	84 f3       	brlt	.-32     	; 0x6784 <effect_random_sparkle_flash+0x6e>
    67a4:	df 91       	pop	r29
    67a6:	cf 91       	pop	r28
    67a8:	1f 91       	pop	r17
    67aa:	0f 91       	pop	r16
    67ac:	ff 90       	pop	r15
    67ae:	ef 90       	pop	r14
    67b0:	df 90       	pop	r13
    67b2:	cf 90       	pop	r12
    67b4:	bf 90       	pop	r11
    67b6:	af 90       	pop	r10
    67b8:	9f 90       	pop	r9
    67ba:	8f 90       	pop	r8
    67bc:	7f 90       	pop	r7
    67be:	6f 90       	pop	r6
    67c0:	5f 90       	pop	r5
    67c2:	4f 90       	pop	r4
    67c4:	08 95       	ret

000067c6 <effect_random_sparkle>:
    67c6:	cf 93       	push	r28
    67c8:	df 93       	push	r29
    67ca:	c1 e0       	ldi	r28, 0x01	; 1
    67cc:	d0 e0       	ldi	r29, 0x00	; 0
    67ce:	85 e0       	ldi	r24, 0x05	; 5
    67d0:	90 e0       	ldi	r25, 0x00	; 0
    67d2:	be 01       	movw	r22, r28
    67d4:	48 ec       	ldi	r20, 0xC8	; 200
    67d6:	50 e0       	ldi	r21, 0x00	; 0
    67d8:	0e 94 8b 33 	call	0x6716	; 0x6716 <effect_random_sparkle_flash>
    67dc:	21 96       	adiw	r28, 0x01	; 1
    67de:	c4 31       	cpi	r28, 0x14	; 20
    67e0:	d1 05       	cpc	r29, r1
    67e2:	a9 f7       	brne	.-22     	; 0x67ce <effect_random_sparkle+0x8>
    67e4:	85 e0       	ldi	r24, 0x05	; 5
    67e6:	90 e0       	ldi	r25, 0x00	; 0
    67e8:	be 01       	movw	r22, r28
    67ea:	48 ec       	ldi	r20, 0xC8	; 200
    67ec:	50 e0       	ldi	r21, 0x00	; 0
    67ee:	0e 94 8b 33 	call	0x6716	; 0x6716 <effect_random_sparkle_flash>
    67f2:	21 97       	sbiw	r28, 0x01	; 1
    67f4:	b9 f7       	brne	.-18     	; 0x67e4 <effect_random_sparkle+0x1e>
    67f6:	df 91       	pop	r29
    67f8:	cf 91       	pop	r28
    67fa:	08 95       	ret

000067fc <effect_telcstairs_do>:
    67fc:	cf 93       	push	r28
    67fe:	df 93       	push	r29
    6800:	ec 01       	movw	r28, r24
    6802:	9c 01       	movw	r18, r24
    6804:	80 e0       	ldi	r24, 0x00	; 0
    6806:	90 e0       	ldi	r25, 0x00	; 0
    6808:	14 c0       	rjmp	.+40     	; 0x6832 <effect_telcstairs_do+0x36>
    680a:	28 30       	cpi	r18, 0x08	; 8
    680c:	31 05       	cpc	r19, r1
    680e:	74 f4       	brge	.+28     	; 0x682c <effect_telcstairs_do+0x30>
    6810:	88 30       	cpi	r24, 0x08	; 8
    6812:	91 05       	cpc	r25, r1
    6814:	5c f4       	brge	.+22     	; 0x682c <effect_telcstairs_do+0x30>
    6816:	f9 01       	movw	r30, r18
    6818:	73 e0       	ldi	r23, 0x03	; 3
    681a:	ee 0f       	add	r30, r30
    681c:	ff 1f       	adc	r31, r31
    681e:	7a 95       	dec	r23
    6820:	e1 f7       	brne	.-8      	; 0x681a <effect_telcstairs_do+0x1e>
    6822:	e8 0f       	add	r30, r24
    6824:	f9 1f       	adc	r31, r25
    6826:	e0 55       	subi	r30, 0x50	; 80
    6828:	fe 4f       	sbci	r31, 0xFE	; 254
    682a:	60 83       	st	Z, r22
    682c:	01 96       	adiw	r24, 0x01	; 1
    682e:	21 50       	subi	r18, 0x01	; 1
    6830:	30 40       	sbci	r19, 0x00	; 0
    6832:	c8 17       	cp	r28, r24
    6834:	d9 07       	cpc	r29, r25
    6836:	4c f7       	brge	.-46     	; 0x680a <effect_telcstairs_do+0xe>
    6838:	ca 01       	movw	r24, r20
    683a:	0e 94 a7 27 	call	0x4f4e	; 0x4f4e <delay_ms>
    683e:	ce 01       	movw	r24, r28
    6840:	df 91       	pop	r29
    6842:	cf 91       	pop	r28
    6844:	08 95       	ret

00006846 <effect_telcstairs>:
    6846:	0f 93       	push	r16
    6848:	1f 93       	push	r17
    684a:	cf 93       	push	r28
    684c:	df 93       	push	r29
    684e:	8b 01       	movw	r16, r22
    6850:	ea 01       	movw	r28, r20
    6852:	00 97       	sbiw	r24, 0x00	; 0
    6854:	51 f0       	breq	.+20     	; 0x686a <effect_telcstairs+0x24>
    6856:	80 e1       	ldi	r24, 0x10	; 16
    6858:	90 e0       	ldi	r25, 0x00	; 0
    685a:	be 01       	movw	r22, r28
    685c:	a8 01       	movw	r20, r16
    685e:	0e 94 fe 33 	call	0x67fc	; 0x67fc <effect_telcstairs_do>
    6862:	01 97       	sbiw	r24, 0x01	; 1
    6864:	97 ff       	sbrs	r25, 7
    6866:	f9 cf       	rjmp	.-14     	; 0x685a <effect_telcstairs+0x14>
    6868:	0a c0       	rjmp	.+20     	; 0x687e <effect_telcstairs+0x38>
    686a:	80 e0       	ldi	r24, 0x00	; 0
    686c:	90 e0       	ldi	r25, 0x00	; 0
    686e:	be 01       	movw	r22, r28
    6870:	a8 01       	movw	r20, r16
    6872:	0e 94 fe 33 	call	0x67fc	; 0x67fc <effect_telcstairs_do>
    6876:	01 96       	adiw	r24, 0x01	; 1
    6878:	80 31       	cpi	r24, 0x10	; 16
    687a:	91 05       	cpc	r25, r1
    687c:	c4 f3       	brlt	.-16     	; 0x686e <effect_telcstairs+0x28>
    687e:	df 91       	pop	r29
    6880:	cf 91       	pop	r28
    6882:	1f 91       	pop	r17
    6884:	0f 91       	pop	r16
    6886:	08 95       	ret

00006888 <effect_wormsqueeze>:
    6888:	2f 92       	push	r2
    688a:	3f 92       	push	r3
    688c:	4f 92       	push	r4
    688e:	5f 92       	push	r5
    6890:	6f 92       	push	r6
    6892:	7f 92       	push	r7
    6894:	8f 92       	push	r8
    6896:	9f 92       	push	r9
    6898:	af 92       	push	r10
    689a:	bf 92       	push	r11
    689c:	cf 92       	push	r12
    689e:	df 92       	push	r13
    68a0:	ef 92       	push	r14
    68a2:	ff 92       	push	r15
    68a4:	0f 93       	push	r16
    68a6:	1f 93       	push	r17
    68a8:	cf 93       	push	r28
    68aa:	df 93       	push	r29
    68ac:	cd b7       	in	r28, 0x3d	; 61
    68ae:	de b7       	in	r29, 0x3e	; 62
    68b0:	60 97       	sbiw	r28, 0x10	; 16
    68b2:	0f b6       	in	r0, 0x3f	; 63
    68b4:	f8 94       	cli
    68b6:	de bf       	out	0x3e, r29	; 62
    68b8:	0f be       	out	0x3f, r0	; 63
    68ba:	cd bf       	out	0x3d, r28	; 61
    68bc:	9a 83       	std	Y+2, r25	; 0x02
    68be:	89 83       	std	Y+1, r24	; 0x01
    68c0:	7c 83       	std	Y+4, r23	; 0x04
    68c2:	6b 83       	std	Y+3, r22	; 0x03
    68c4:	5e 83       	std	Y+6, r21	; 0x06
    68c6:	4d 83       	std	Y+5, r20	; 0x05
    68c8:	38 87       	std	Y+8, r19	; 0x08
    68ca:	2f 83       	std	Y+7, r18	; 0x07
    68cc:	1a 87       	std	Y+10, r17	; 0x0a
    68ce:	09 87       	std	Y+9, r16	; 0x09
    68d0:	2f ef       	ldi	r18, 0xFF	; 255
    68d2:	4f 3f       	cpi	r20, 0xFF	; 255
    68d4:	52 07       	cpc	r21, r18
    68d6:	19 f0       	breq	.+6      	; 0x68de <effect_wormsqueeze+0x56>
    68d8:	44 24       	eor	r4, r4
    68da:	55 24       	eor	r5, r5
    68dc:	03 c0       	rjmp	.+6      	; 0x68e4 <effect_wormsqueeze+0x5c>
    68de:	f7 e0       	ldi	r31, 0x07	; 7
    68e0:	4f 2e       	mov	r4, r31
    68e2:	51 2c       	mov	r5, r1
    68e4:	e9 e0       	ldi	r30, 0x09	; 9
    68e6:	ae 2e       	mov	r10, r30
    68e8:	b1 2c       	mov	r11, r1
    68ea:	89 81       	ldd	r24, Y+1	; 0x01
    68ec:	9a 81       	ldd	r25, Y+2	; 0x02
    68ee:	a8 1a       	sub	r10, r24
    68f0:	b9 0a       	sbc	r11, r25
    68f2:	0e 94 72 54 	call	0xa8e4	; 0xa8e4 <rand>
    68f6:	b5 01       	movw	r22, r10
    68f8:	0e 94 f6 53 	call	0xa7ec	; 0xa7ec <__divmodhi4>
    68fc:	3c 01       	movw	r6, r24
    68fe:	0e 94 72 54 	call	0xa8e4	; 0xa8e4 <rand>
    6902:	b5 01       	movw	r22, r10
    6904:	0e 94 f6 53 	call	0xa7ec	; 0xa7ec <__divmodhi4>
    6908:	4c 01       	movw	r8, r24
    690a:	22 24       	eor	r2, r2
    690c:	33 24       	eor	r3, r3
    690e:	7d c0       	rjmp	.+250    	; 0x6a0a <effect_wormsqueeze+0x182>
    6910:	0e 94 72 54 	call	0xa8e4	; 0xa8e4 <rand>
    6914:	8c 01       	movw	r16, r24
    6916:	0e 94 72 54 	call	0xa8e4	; 0xa8e4 <rand>
    691a:	63 e0       	ldi	r22, 0x03	; 3
    691c:	70 e0       	ldi	r23, 0x00	; 0
    691e:	0e 94 f6 53 	call	0xa7ec	; 0xa7ec <__divmodhi4>
    6922:	9c 01       	movw	r18, r24
    6924:	21 50       	subi	r18, 0x01	; 1
    6926:	30 40       	sbci	r19, 0x00	; 0
    6928:	c8 01       	movw	r24, r16
    692a:	63 e0       	ldi	r22, 0x03	; 3
    692c:	70 e0       	ldi	r23, 0x00	; 0
    692e:	0e 94 f6 53 	call	0xa7ec	; 0xa7ec <__divmodhi4>
    6932:	01 97       	sbiw	r24, 0x01	; 1
    6934:	86 0d       	add	r24, r6
    6936:	97 1d       	adc	r25, r7
    6938:	18 16       	cp	r1, r24
    693a:	19 06       	cpc	r1, r25
    693c:	24 f4       	brge	.+8      	; 0x6946 <effect_wormsqueeze+0xbe>
    693e:	8a 15       	cp	r24, r10
    6940:	9b 05       	cpc	r25, r11
    6942:	0c f4       	brge	.+2      	; 0x6946 <effect_wormsqueeze+0xbe>
    6944:	3c 01       	movw	r6, r24
    6946:	c4 01       	movw	r24, r8
    6948:	82 0f       	add	r24, r18
    694a:	93 1f       	adc	r25, r19
    694c:	18 16       	cp	r1, r24
    694e:	19 06       	cpc	r1, r25
    6950:	24 f4       	brge	.+8      	; 0x695a <effect_wormsqueeze+0xd2>
    6952:	8a 15       	cp	r24, r10
    6954:	9b 05       	cpc	r25, r11
    6956:	0c f4       	brge	.+2      	; 0x695a <effect_wormsqueeze+0xd2>
    6958:	4c 01       	movw	r8, r24
    695a:	8b 81       	ldd	r24, Y+3	; 0x03
    695c:	6d 81       	ldd	r22, Y+5	; 0x05
    695e:	7e 81       	ldd	r23, Y+6	; 0x06
    6960:	0e 94 bf 27 	call	0x4f7e	; 0x4f7e <shift>
    6964:	63 01       	movw	r12, r6
    6966:	00 e0       	ldi	r16, 0x00	; 0
    6968:	10 e0       	ldi	r17, 0x00	; 0
    696a:	3e 86       	std	Y+14, r3	; 0x0e
    696c:	2d 86       	std	Y+13, r2	; 0x0d
    696e:	15 01       	movw	r2, r10
    6970:	29 81       	ldd	r18, Y+1	; 0x01
    6972:	3a 81       	ldd	r19, Y+2	; 0x02
    6974:	2d c0       	rjmp	.+90     	; 0x69d0 <effect_wormsqueeze+0x148>
    6976:	0a 37       	cpi	r16, 0x7A	; 122
    6978:	11 05       	cpc	r17, r1
    697a:	21 f4       	brne	.+8      	; 0x6984 <effect_wormsqueeze+0xfc>
    697c:	c6 01       	movw	r24, r12
    697e:	b5 01       	movw	r22, r10
    6980:	a2 01       	movw	r20, r4
    6982:	10 c0       	rjmp	.+32     	; 0x69a4 <effect_wormsqueeze+0x11c>
    6984:	09 37       	cpi	r16, 0x79	; 121
    6986:	11 05       	cpc	r17, r1
    6988:	21 f4       	brne	.+8      	; 0x6992 <effect_wormsqueeze+0x10a>
    698a:	c6 01       	movw	r24, r12
    698c:	b2 01       	movw	r22, r4
    698e:	a5 01       	movw	r20, r10
    6990:	09 c0       	rjmp	.+18     	; 0x69a4 <effect_wormsqueeze+0x11c>
    6992:	08 37       	cpi	r16, 0x78	; 120
    6994:	11 05       	cpc	r17, r1
    6996:	41 f4       	brne	.+16     	; 0x69a8 <effect_wormsqueeze+0x120>
    6998:	a7 01       	movw	r20, r14
    699a:	46 0d       	add	r20, r6
    699c:	57 1d       	adc	r21, r7
    699e:	c2 01       	movw	r24, r4
    69a0:	6b 85       	ldd	r22, Y+11	; 0x0b
    69a2:	7c 85       	ldd	r23, Y+12	; 0x0c
    69a4:	0e 94 3b 23 	call	0x4676	; 0x4676 <setvoxel>
    69a8:	08 94       	sec
    69aa:	e1 1c       	adc	r14, r1
    69ac:	f1 1c       	adc	r15, r1
    69ae:	08 94       	sec
    69b0:	a1 1c       	adc	r10, r1
    69b2:	b1 1c       	adc	r11, r1
    69b4:	e9 81       	ldd	r30, Y+1	; 0x01
    69b6:	fa 81       	ldd	r31, Y+2	; 0x02
    69b8:	ee 16       	cp	r14, r30
    69ba:	ff 06       	cpc	r15, r31
    69bc:	e4 f2       	brlt	.-72     	; 0x6976 <effect_wormsqueeze+0xee>
    69be:	84 01       	movw	r16, r8
    69c0:	8f 84       	ldd	r8, Y+15	; 0x0f
    69c2:	98 88       	ldd	r9, Y+16	; 0x10
    69c4:	9f 01       	movw	r18, r30
    69c6:	0f 5f       	subi	r16, 0xFF	; 255
    69c8:	1f 4f       	sbci	r17, 0xFF	; 255
    69ca:	08 94       	sec
    69cc:	c1 1c       	adc	r12, r1
    69ce:	d1 1c       	adc	r13, r1
    69d0:	02 17       	cp	r16, r18
    69d2:	13 07       	cpc	r17, r19
    69d4:	84 f4       	brge	.+32     	; 0x69f6 <effect_wormsqueeze+0x16e>
    69d6:	54 01       	movw	r10, r8
    69d8:	ee 24       	eor	r14, r14
    69da:	ff 24       	eor	r15, r15
    69dc:	c8 01       	movw	r24, r16
    69de:	88 0d       	add	r24, r8
    69e0:	99 1d       	adc	r25, r9
    69e2:	9c 87       	std	Y+12, r25	; 0x0c
    69e4:	8b 87       	std	Y+11, r24	; 0x0b
    69e6:	98 8a       	std	Y+16, r9	; 0x10
    69e8:	8f 86       	std	Y+15, r8	; 0x0f
    69ea:	48 01       	movw	r8, r16
    69ec:	3a 83       	std	Y+2, r19	; 0x02
    69ee:	29 83       	std	Y+1, r18	; 0x01
    69f0:	0b 81       	ldd	r16, Y+3	; 0x03
    69f2:	1c 81       	ldd	r17, Y+4	; 0x04
    69f4:	df cf       	rjmp	.-66     	; 0x69b4 <effect_wormsqueeze+0x12c>
    69f6:	51 01       	movw	r10, r2
    69f8:	2d 84       	ldd	r2, Y+13	; 0x0d
    69fa:	3e 84       	ldd	r3, Y+14	; 0x0e
    69fc:	89 85       	ldd	r24, Y+9	; 0x09
    69fe:	9a 85       	ldd	r25, Y+10	; 0x0a
    6a00:	0e 94 a7 27 	call	0x4f4e	; 0x4f4e <delay_ms>
    6a04:	08 94       	sec
    6a06:	21 1c       	adc	r2, r1
    6a08:	31 1c       	adc	r3, r1
    6a0a:	ef 81       	ldd	r30, Y+7	; 0x07
    6a0c:	f8 85       	ldd	r31, Y+8	; 0x08
    6a0e:	2e 16       	cp	r2, r30
    6a10:	3f 06       	cpc	r3, r31
    6a12:	0c f4       	brge	.+2      	; 0x6a16 <effect_wormsqueeze+0x18e>
    6a14:	7d cf       	rjmp	.-262    	; 0x6910 <effect_wormsqueeze+0x88>
    6a16:	60 96       	adiw	r28, 0x10	; 16
    6a18:	0f b6       	in	r0, 0x3f	; 63
    6a1a:	f8 94       	cli
    6a1c:	de bf       	out	0x3e, r29	; 62
    6a1e:	0f be       	out	0x3f, r0	; 63
    6a20:	cd bf       	out	0x3d, r28	; 61
    6a22:	df 91       	pop	r29
    6a24:	cf 91       	pop	r28
    6a26:	1f 91       	pop	r17
    6a28:	0f 91       	pop	r16
    6a2a:	ff 90       	pop	r15
    6a2c:	ef 90       	pop	r14
    6a2e:	df 90       	pop	r13
    6a30:	cf 90       	pop	r12
    6a32:	bf 90       	pop	r11
    6a34:	af 90       	pop	r10
    6a36:	9f 90       	pop	r9
    6a38:	8f 90       	pop	r8
    6a3a:	7f 90       	pop	r7
    6a3c:	6f 90       	pop	r6
    6a3e:	5f 90       	pop	r5
    6a40:	4f 90       	pop	r4
    6a42:	3f 90       	pop	r3
    6a44:	2f 90       	pop	r2
    6a46:	08 95       	ret

00006a48 <effect_smileyspin>:
    6a48:	2f 92       	push	r2
    6a4a:	3f 92       	push	r3
    6a4c:	4f 92       	push	r4
    6a4e:	5f 92       	push	r5
    6a50:	6f 92       	push	r6
    6a52:	7f 92       	push	r7
    6a54:	8f 92       	push	r8
    6a56:	9f 92       	push	r9
    6a58:	af 92       	push	r10
    6a5a:	bf 92       	push	r11
    6a5c:	cf 92       	push	r12
    6a5e:	df 92       	push	r13
    6a60:	ef 92       	push	r14
    6a62:	ff 92       	push	r15
    6a64:	0f 93       	push	r16
    6a66:	1f 93       	push	r17
    6a68:	cf 93       	push	r28
    6a6a:	df 93       	push	r29
    6a6c:	cd b7       	in	r28, 0x3d	; 61
    6a6e:	de b7       	in	r29, 0x3e	; 62
    6a70:	ab 97       	sbiw	r28, 0x2b	; 43
    6a72:	0f b6       	in	r0, 0x3f	; 63
    6a74:	f8 94       	cli
    6a76:	de bf       	out	0x3e, r29	; 62
    6a78:	0f be       	out	0x3f, r0	; 63
    6a7a:	cd bf       	out	0x3d, r28	; 61
    6a7c:	9b a7       	lds	r25, 0x7b
    6a7e:	8a a7       	lds	r24, 0x7a
    6a80:	6e a3       	lds	r22, 0x5e
    6a82:	7f a3       	lds	r23, 0x5f
    6a84:	4d a3       	lds	r20, 0x5d
    6a86:	de 01       	movw	r26, r28
    6a88:	11 96       	adiw	r26, 0x01	; 1
    6a8a:	ed e0       	ldi	r30, 0x0D	; 13
    6a8c:	f1 e0       	ldi	r31, 0x01	; 1
    6a8e:	80 e2       	ldi	r24, 0x20	; 32
    6a90:	01 90       	ld	r0, Z+
    6a92:	0d 92       	st	X+, r0
    6a94:	81 50       	subi	r24, 0x01	; 1
    6a96:	e1 f7       	brne	.-8      	; 0x6a90 <effect_smileyspin+0x48>
    6a98:	19 a6       	lds	r17, 0xb9
    6a9a:	18 a6       	lds	r17, 0xb8
    6a9c:	9e 01       	movw	r18, r28
    6a9e:	2f 5f       	subi	r18, 0xFF	; 255
    6aa0:	3f 4f       	sbci	r19, 0xFF	; 255
    6aa2:	3a a3       	lds	r19, 0x5a
    6aa4:	29 a3       	lds	r18, 0x59
    6aa6:	ae c1       	rjmp	.+860    	; 0x6e04 <effect_smileyspin+0x3bc>
    6aa8:	47 e0       	ldi	r20, 0x07	; 7
    6aaa:	44 2e       	mov	r4, r20
    6aac:	51 2c       	mov	r5, r1
    6aae:	00 e0       	ldi	r16, 0x00	; 0
    6ab0:	10 e0       	ldi	r17, 0x00	; 0
    6ab2:	22 24       	eor	r2, r2
    6ab4:	33 24       	eor	r3, r3
    6ab6:	0f 5f       	subi	r16, 0xFF	; 255
    6ab8:	1f 4f       	sbci	r17, 0xFF	; 255
    6aba:	21 14       	cp	r2, r1
    6abc:	31 04       	cpc	r3, r1
    6abe:	41 f4       	brne	.+16     	; 0x6ad0 <effect_smileyspin+0x88>
    6ac0:	04 30       	cpi	r16, 0x04	; 4
    6ac2:	11 05       	cpc	r17, r1
    6ac4:	29 f4       	brne	.+10     	; 0x6ad0 <effect_smileyspin+0x88>
    6ac6:	00 e0       	ldi	r16, 0x00	; 0
    6ac8:	10 e0       	ldi	r17, 0x00	; 0
    6aca:	31 e0       	ldi	r19, 0x01	; 1
    6acc:	23 2e       	mov	r2, r19
    6ace:	31 2c       	mov	r3, r1
    6ad0:	38 01       	movw	r6, r16
    6ad2:	b3 e0       	ldi	r27, 0x03	; 3
    6ad4:	66 0c       	add	r6, r6
    6ad6:	77 1c       	adc	r7, r7
    6ad8:	ba 95       	dec	r27
    6ada:	e1 f7       	brne	.-8      	; 0x6ad4 <effect_smileyspin+0x8c>
    6adc:	27 e0       	ldi	r18, 0x07	; 7
    6ade:	c2 2e       	mov	r12, r18
    6ae0:	88 24       	eor	r8, r8
    6ae2:	99 24       	eor	r9, r9
    6ae4:	29 a1       	lds	r18, 0x49
    6ae6:	3a a1       	lds	r19, 0x4a
    6ae8:	26 19       	sub	r18, r6
    6aea:	37 09       	sbc	r19, r7
    6aec:	3c a3       	lds	r19, 0x5c
    6aee:	2b a3       	lds	r18, 0x5b
    6af0:	81 e0       	ldi	r24, 0x01	; 1
    6af2:	90 e0       	ldi	r25, 0x00	; 0
    6af4:	8c 0f       	add	r24, r28
    6af6:	9d 1f       	adc	r25, r29
    6af8:	68 0e       	add	r6, r24
    6afa:	79 1e       	adc	r7, r25
    6afc:	58 01       	movw	r10, r16
    6afe:	28 c0       	rjmp	.+80     	; 0x6b50 <effect_smileyspin+0x108>
    6b00:	8d a1       	lds	r24, 0x4d
    6b02:	6c 2d       	mov	r22, r12
    6b04:	40 2f       	mov	r20, r16
    6b06:	0e 94 c7 39 	call	0x738e	; 0x738e <font_getbitmappixel>
    6b0a:	88 23       	and	r24, r24
    6b0c:	91 f0       	breq	.+36     	; 0x6b32 <effect_smileyspin+0xea>
    6b0e:	21 14       	cp	r2, r1
    6b10:	31 04       	cpc	r3, r1
    6b12:	29 f4       	brne	.+10     	; 0x6b1e <effect_smileyspin+0xd6>
    6b14:	f3 01       	movw	r30, r6
    6b16:	e0 0f       	add	r30, r16
    6b18:	f1 1f       	adc	r31, r17
    6b1a:	60 81       	ld	r22, Z
    6b1c:	05 c0       	rjmp	.+10     	; 0x6b28 <effect_smileyspin+0xe0>
    6b1e:	eb a1       	lds	r30, 0x4b
    6b20:	fc a1       	lds	r31, 0x4c
    6b22:	ee 0d       	add	r30, r14
    6b24:	ff 1d       	adc	r31, r15
    6b26:	67 89       	ldd	r22, Z+23	; 0x17
    6b28:	c8 01       	movw	r24, r16
    6b2a:	70 e0       	ldi	r23, 0x00	; 0
    6b2c:	a4 01       	movw	r20, r8
    6b2e:	0e 94 3b 23 	call	0x4676	; 0x4676 <setvoxel>
    6b32:	0f 5f       	subi	r16, 0xFF	; 255
    6b34:	1f 4f       	sbci	r17, 0xFF	; 255
    6b36:	08 94       	sec
    6b38:	e1 08       	sbc	r14, r1
    6b3a:	f1 08       	sbc	r15, r1
    6b3c:	e1 14       	cp	r14, r1
    6b3e:	f1 04       	cpc	r15, r1
    6b40:	f9 f6       	brne	.-66     	; 0x6b00 <effect_smileyspin+0xb8>
    6b42:	08 94       	sec
    6b44:	81 1c       	adc	r8, r1
    6b46:	91 1c       	adc	r9, r1
    6b48:	ca 94       	dec	r12
    6b4a:	9f ef       	ldi	r25, 0xFF	; 255
    6b4c:	c9 16       	cp	r12, r25
    6b4e:	31 f0       	breq	.+12     	; 0x6b5c <effect_smileyspin+0x114>
    6b50:	a8 e0       	ldi	r26, 0x08	; 8
    6b52:	ea 2e       	mov	r14, r26
    6b54:	f1 2c       	mov	r15, r1
    6b56:	00 e0       	ldi	r16, 0x00	; 0
    6b58:	10 e0       	ldi	r17, 0x00	; 0
    6b5a:	d2 cf       	rjmp	.-92     	; 0x6b00 <effect_smileyspin+0xb8>
    6b5c:	85 01       	movw	r16, r10
    6b5e:	8e a1       	lds	r24, 0x4e
    6b60:	9f a1       	lds	r25, 0x4f
    6b62:	0e 94 a7 27 	call	0x4f4e	; 0x4f4e <delay_ms>
    6b66:	80 e0       	ldi	r24, 0x00	; 0
    6b68:	0e 94 87 24 	call	0x490e	; 0x490e <fill>
    6b6c:	08 94       	sec
    6b6e:	41 08       	sbc	r4, r1
    6b70:	51 08       	sbc	r5, r1
    6b72:	41 14       	cp	r4, r1
    6b74:	51 04       	cpc	r5, r1
    6b76:	09 f0       	breq	.+2      	; 0x6b7a <effect_smileyspin+0x132>
    6b78:	9e cf       	rjmp	.-196    	; 0x6ab6 <effect_smileyspin+0x6e>
    6b7a:	f7 e0       	ldi	r31, 0x07	; 7
    6b7c:	4f 2e       	mov	r4, r31
    6b7e:	51 2c       	mov	r5, r1
    6b80:	00 e0       	ldi	r16, 0x00	; 0
    6b82:	10 e0       	ldi	r17, 0x00	; 0
    6b84:	22 24       	eor	r2, r2
    6b86:	33 24       	eor	r3, r3
    6b88:	0f 5f       	subi	r16, 0xFF	; 255
    6b8a:	1f 4f       	sbci	r17, 0xFF	; 255
    6b8c:	21 14       	cp	r2, r1
    6b8e:	31 04       	cpc	r3, r1
    6b90:	41 f4       	brne	.+16     	; 0x6ba2 <effect_smileyspin+0x15a>
    6b92:	04 30       	cpi	r16, 0x04	; 4
    6b94:	11 05       	cpc	r17, r1
    6b96:	29 f4       	brne	.+10     	; 0x6ba2 <effect_smileyspin+0x15a>
    6b98:	00 e0       	ldi	r16, 0x00	; 0
    6b9a:	10 e0       	ldi	r17, 0x00	; 0
    6b9c:	e1 e0       	ldi	r30, 0x01	; 1
    6b9e:	2e 2e       	mov	r2, r30
    6ba0:	31 2c       	mov	r3, r1
    6ba2:	38 01       	movw	r6, r16
    6ba4:	63 e0       	ldi	r22, 0x03	; 3
    6ba6:	66 0c       	add	r6, r6
    6ba8:	77 1c       	adc	r7, r7
    6baa:	6a 95       	dec	r22
    6bac:	e1 f7       	brne	.-8      	; 0x6ba6 <effect_smileyspin+0x15e>
    6bae:	77 e0       	ldi	r23, 0x07	; 7
    6bb0:	b7 2e       	mov	r11, r23
    6bb2:	88 24       	eor	r8, r8
    6bb4:	99 24       	eor	r9, r9
    6bb6:	29 a1       	lds	r18, 0x49
    6bb8:	3a a1       	lds	r19, 0x4a
    6bba:	26 19       	sub	r18, r6
    6bbc:	37 09       	sbc	r19, r7
    6bbe:	3c a3       	lds	r19, 0x5c
    6bc0:	2b a3       	lds	r18, 0x5b
    6bc2:	81 e0       	ldi	r24, 0x01	; 1
    6bc4:	90 e0       	ldi	r25, 0x00	; 0
    6bc6:	8c 0f       	add	r24, r28
    6bc8:	9d 1f       	adc	r25, r29
    6bca:	68 0e       	add	r6, r24
    6bcc:	79 1e       	adc	r7, r25
    6bce:	68 01       	movw	r12, r16
    6bd0:	29 c0       	rjmp	.+82     	; 0x6c24 <effect_smileyspin+0x1dc>
    6bd2:	8d a1       	lds	r24, 0x4d
    6bd4:	6b 2d       	mov	r22, r11
    6bd6:	4e 2d       	mov	r20, r14
    6bd8:	0e 94 c7 39 	call	0x738e	; 0x738e <font_getbitmappixel>
    6bdc:	88 23       	and	r24, r24
    6bde:	91 f0       	breq	.+36     	; 0x6c04 <effect_smileyspin+0x1bc>
    6be0:	21 14       	cp	r2, r1
    6be2:	31 04       	cpc	r3, r1
    6be4:	29 f4       	brne	.+10     	; 0x6bf0 <effect_smileyspin+0x1a8>
    6be6:	f3 01       	movw	r30, r6
    6be8:	ee 0d       	add	r30, r14
    6bea:	ff 1d       	adc	r31, r15
    6bec:	80 81       	ld	r24, Z
    6bee:	05 c0       	rjmp	.+10     	; 0x6bfa <effect_smileyspin+0x1b2>
    6bf0:	eb a1       	lds	r30, 0x4b
    6bf2:	fc a1       	lds	r31, 0x4c
    6bf4:	e0 0f       	add	r30, r16
    6bf6:	f1 1f       	adc	r31, r17
    6bf8:	80 8d       	ldd	r24, Z+24	; 0x18
    6bfa:	90 e0       	ldi	r25, 0x00	; 0
    6bfc:	b8 01       	movw	r22, r16
    6bfe:	a4 01       	movw	r20, r8
    6c00:	0e 94 3b 23 	call	0x4676	; 0x4676 <setvoxel>
    6c04:	08 94       	sec
    6c06:	e1 1c       	adc	r14, r1
    6c08:	f1 1c       	adc	r15, r1
    6c0a:	01 50       	subi	r16, 0x01	; 1
    6c0c:	10 40       	sbci	r17, 0x00	; 0
    6c0e:	98 e0       	ldi	r25, 0x08	; 8
    6c10:	e9 16       	cp	r14, r25
    6c12:	f1 04       	cpc	r15, r1
    6c14:	f1 f6       	brne	.-68     	; 0x6bd2 <effect_smileyspin+0x18a>
    6c16:	08 94       	sec
    6c18:	81 1c       	adc	r8, r1
    6c1a:	91 1c       	adc	r9, r1
    6c1c:	ba 94       	dec	r11
    6c1e:	2f ef       	ldi	r18, 0xFF	; 255
    6c20:	b2 16       	cp	r11, r18
    6c22:	29 f0       	breq	.+10     	; 0x6c2e <effect_smileyspin+0x1e6>
    6c24:	07 e0       	ldi	r16, 0x07	; 7
    6c26:	10 e0       	ldi	r17, 0x00	; 0
    6c28:	ee 24       	eor	r14, r14
    6c2a:	ff 24       	eor	r15, r15
    6c2c:	d2 cf       	rjmp	.-92     	; 0x6bd2 <effect_smileyspin+0x18a>
    6c2e:	86 01       	movw	r16, r12
    6c30:	8e a1       	lds	r24, 0x4e
    6c32:	9f a1       	lds	r25, 0x4f
    6c34:	0e 94 a7 27 	call	0x4f4e	; 0x4f4e <delay_ms>
    6c38:	80 e0       	ldi	r24, 0x00	; 0
    6c3a:	0e 94 87 24 	call	0x490e	; 0x490e <fill>
    6c3e:	08 94       	sec
    6c40:	41 08       	sbc	r4, r1
    6c42:	51 08       	sbc	r5, r1
    6c44:	41 14       	cp	r4, r1
    6c46:	51 04       	cpc	r5, r1
    6c48:	09 f0       	breq	.+2      	; 0x6c4c <effect_smileyspin+0x204>
    6c4a:	9e cf       	rjmp	.-196    	; 0x6b88 <effect_smileyspin+0x140>
    6c4c:	57 e0       	ldi	r21, 0x07	; 7
    6c4e:	45 2e       	mov	r4, r21
    6c50:	51 2c       	mov	r5, r1
    6c52:	00 e0       	ldi	r16, 0x00	; 0
    6c54:	10 e0       	ldi	r17, 0x00	; 0
    6c56:	22 24       	eor	r2, r2
    6c58:	33 24       	eor	r3, r3
    6c5a:	0f 5f       	subi	r16, 0xFF	; 255
    6c5c:	1f 4f       	sbci	r17, 0xFF	; 255
    6c5e:	21 14       	cp	r2, r1
    6c60:	31 04       	cpc	r3, r1
    6c62:	41 f4       	brne	.+16     	; 0x6c74 <effect_smileyspin+0x22c>
    6c64:	04 30       	cpi	r16, 0x04	; 4
    6c66:	11 05       	cpc	r17, r1
    6c68:	29 f4       	brne	.+10     	; 0x6c74 <effect_smileyspin+0x22c>
    6c6a:	00 e0       	ldi	r16, 0x00	; 0
    6c6c:	10 e0       	ldi	r17, 0x00	; 0
    6c6e:	41 e0       	ldi	r20, 0x01	; 1
    6c70:	24 2e       	mov	r2, r20
    6c72:	31 2c       	mov	r3, r1
    6c74:	38 01       	movw	r6, r16
    6c76:	23 e0       	ldi	r18, 0x03	; 3
    6c78:	66 0c       	add	r6, r6
    6c7a:	77 1c       	adc	r7, r7
    6c7c:	2a 95       	dec	r18
    6c7e:	e1 f7       	brne	.-8      	; 0x6c78 <effect_smileyspin+0x230>
    6c80:	37 e0       	ldi	r19, 0x07	; 7
    6c82:	c3 2e       	mov	r12, r19
    6c84:	88 24       	eor	r8, r8
    6c86:	99 24       	eor	r9, r9
    6c88:	29 a1       	lds	r18, 0x49
    6c8a:	3a a1       	lds	r19, 0x4a
    6c8c:	26 19       	sub	r18, r6
    6c8e:	37 09       	sbc	r19, r7
    6c90:	3c a3       	lds	r19, 0x5c
    6c92:	2b a3       	lds	r18, 0x5b
    6c94:	81 e0       	ldi	r24, 0x01	; 1
    6c96:	90 e0       	ldi	r25, 0x00	; 0
    6c98:	8c 0f       	add	r24, r28
    6c9a:	9d 1f       	adc	r25, r29
    6c9c:	68 0e       	add	r6, r24
    6c9e:	79 1e       	adc	r7, r25
    6ca0:	58 01       	movw	r10, r16
    6ca2:	28 c0       	rjmp	.+80     	; 0x6cf4 <effect_smileyspin+0x2ac>
    6ca4:	8d a1       	lds	r24, 0x4d
    6ca6:	6c 2d       	mov	r22, r12
    6ca8:	4e 2d       	mov	r20, r14
    6caa:	0e 94 c7 39 	call	0x738e	; 0x738e <font_getbitmappixel>
    6cae:	88 23       	and	r24, r24
    6cb0:	91 f0       	breq	.+36     	; 0x6cd6 <effect_smileyspin+0x28e>
    6cb2:	21 14       	cp	r2, r1
    6cb4:	31 04       	cpc	r3, r1
    6cb6:	29 f4       	brne	.+10     	; 0x6cc2 <effect_smileyspin+0x27a>
    6cb8:	f3 01       	movw	r30, r6
    6cba:	e0 0f       	add	r30, r16
    6cbc:	f1 1f       	adc	r31, r17
    6cbe:	60 81       	ld	r22, Z
    6cc0:	05 c0       	rjmp	.+10     	; 0x6ccc <effect_smileyspin+0x284>
    6cc2:	eb a1       	lds	r30, 0x4b
    6cc4:	fc a1       	lds	r31, 0x4c
    6cc6:	ee 0d       	add	r30, r14
    6cc8:	ff 1d       	adc	r31, r15
    6cca:	60 8d       	ldd	r22, Z+24	; 0x18
    6ccc:	c8 01       	movw	r24, r16
    6cce:	70 e0       	ldi	r23, 0x00	; 0
    6cd0:	a4 01       	movw	r20, r8
    6cd2:	0e 94 3b 23 	call	0x4676	; 0x4676 <setvoxel>
    6cd6:	0f 5f       	subi	r16, 0xFF	; 255
    6cd8:	1f 4f       	sbci	r17, 0xFF	; 255
    6cda:	08 94       	sec
    6cdc:	e1 08       	sbc	r14, r1
    6cde:	f1 08       	sbc	r15, r1
    6ce0:	08 30       	cpi	r16, 0x08	; 8
    6ce2:	11 05       	cpc	r17, r1
    6ce4:	f9 f6       	brne	.-66     	; 0x6ca4 <effect_smileyspin+0x25c>
    6ce6:	08 94       	sec
    6ce8:	81 1c       	adc	r8, r1
    6cea:	91 1c       	adc	r9, r1
    6cec:	ca 94       	dec	r12
    6cee:	9f ef       	ldi	r25, 0xFF	; 255
    6cf0:	c9 16       	cp	r12, r25
    6cf2:	31 f0       	breq	.+12     	; 0x6d00 <effect_smileyspin+0x2b8>
    6cf4:	97 e0       	ldi	r25, 0x07	; 7
    6cf6:	e9 2e       	mov	r14, r25
    6cf8:	f1 2c       	mov	r15, r1
    6cfa:	00 e0       	ldi	r16, 0x00	; 0
    6cfc:	10 e0       	ldi	r17, 0x00	; 0
    6cfe:	d2 cf       	rjmp	.-92     	; 0x6ca4 <effect_smileyspin+0x25c>
    6d00:	85 01       	movw	r16, r10
    6d02:	8e a1       	lds	r24, 0x4e
    6d04:	9f a1       	lds	r25, 0x4f
    6d06:	0e 94 a7 27 	call	0x4f4e	; 0x4f4e <delay_ms>
    6d0a:	80 e0       	ldi	r24, 0x00	; 0
    6d0c:	0e 94 87 24 	call	0x490e	; 0x490e <fill>
    6d10:	08 94       	sec
    6d12:	41 08       	sbc	r4, r1
    6d14:	51 08       	sbc	r5, r1
    6d16:	41 14       	cp	r4, r1
    6d18:	51 04       	cpc	r5, r1
    6d1a:	09 f0       	breq	.+2      	; 0x6d1e <effect_smileyspin+0x2d6>
    6d1c:	9e cf       	rjmp	.-196    	; 0x6c5a <effect_smileyspin+0x212>
    6d1e:	87 e0       	ldi	r24, 0x07	; 7
    6d20:	48 2e       	mov	r4, r24
    6d22:	51 2c       	mov	r5, r1
    6d24:	ee 24       	eor	r14, r14
    6d26:	ff 24       	eor	r15, r15
    6d28:	22 24       	eor	r2, r2
    6d2a:	33 24       	eor	r3, r3
    6d2c:	08 94       	sec
    6d2e:	e1 1c       	adc	r14, r1
    6d30:	f1 1c       	adc	r15, r1
    6d32:	21 14       	cp	r2, r1
    6d34:	31 04       	cpc	r3, r1
    6d36:	49 f4       	brne	.+18     	; 0x6d4a <effect_smileyspin+0x302>
    6d38:	24 e0       	ldi	r18, 0x04	; 4
    6d3a:	e2 16       	cp	r14, r18
    6d3c:	f1 04       	cpc	r15, r1
    6d3e:	29 f4       	brne	.+10     	; 0x6d4a <effect_smileyspin+0x302>
    6d40:	ee 24       	eor	r14, r14
    6d42:	ff 24       	eor	r15, r15
    6d44:	01 e0       	ldi	r16, 0x01	; 1
    6d46:	20 2e       	mov	r2, r16
    6d48:	31 2c       	mov	r3, r1
    6d4a:	37 01       	movw	r6, r14
    6d4c:	b3 e0       	ldi	r27, 0x03	; 3
    6d4e:	66 0c       	add	r6, r6
    6d50:	77 1c       	adc	r7, r7
    6d52:	ba 95       	dec	r27
    6d54:	e1 f7       	brne	.-8      	; 0x6d4e <effect_smileyspin+0x306>
    6d56:	17 e0       	ldi	r17, 0x07	; 7
    6d58:	c1 2e       	mov	r12, r17
    6d5a:	aa 24       	eor	r10, r10
    6d5c:	bb 24       	eor	r11, r11
    6d5e:	29 a1       	lds	r18, 0x49
    6d60:	3a a1       	lds	r19, 0x4a
    6d62:	26 19       	sub	r18, r6
    6d64:	37 09       	sbc	r19, r7
    6d66:	3c a3       	lds	r19, 0x5c
    6d68:	2b a3       	lds	r18, 0x5b
    6d6a:	81 e0       	ldi	r24, 0x01	; 1
    6d6c:	90 e0       	ldi	r25, 0x00	; 0
    6d6e:	8c 0f       	add	r24, r28
    6d70:	9d 1f       	adc	r25, r29
    6d72:	68 0e       	add	r6, r24
    6d74:	79 1e       	adc	r7, r25
    6d76:	47 01       	movw	r8, r14
    6d78:	2a c0       	rjmp	.+84     	; 0x6dce <effect_smileyspin+0x386>
    6d7a:	8d a1       	lds	r24, 0x4d
    6d7c:	6c 2d       	mov	r22, r12
    6d7e:	40 2f       	mov	r20, r16
    6d80:	0e 94 c7 39 	call	0x738e	; 0x738e <font_getbitmappixel>
    6d84:	88 23       	and	r24, r24
    6d86:	99 f0       	breq	.+38     	; 0x6dae <effect_smileyspin+0x366>
    6d88:	21 14       	cp	r2, r1
    6d8a:	31 04       	cpc	r3, r1
    6d8c:	31 f4       	brne	.+12     	; 0x6d9a <effect_smileyspin+0x352>
    6d8e:	f3 01       	movw	r30, r6
    6d90:	ee 0d       	add	r30, r14
    6d92:	ff 1d       	adc	r31, r15
    6d94:	31 97       	sbiw	r30, 0x01	; 1
    6d96:	80 81       	ld	r24, Z
    6d98:	05 c0       	rjmp	.+10     	; 0x6da4 <effect_smileyspin+0x35c>
    6d9a:	eb a1       	lds	r30, 0x4b
    6d9c:	fc a1       	lds	r31, 0x4c
    6d9e:	e0 0f       	add	r30, r16
    6da0:	f1 1f       	adc	r31, r17
    6da2:	80 8d       	ldd	r24, Z+24	; 0x18
    6da4:	90 e0       	ldi	r25, 0x00	; 0
    6da6:	b8 01       	movw	r22, r16
    6da8:	a5 01       	movw	r20, r10
    6daa:	0e 94 3b 23 	call	0x4676	; 0x4676 <setvoxel>
    6dae:	08 94       	sec
    6db0:	e1 1c       	adc	r14, r1
    6db2:	f1 1c       	adc	r15, r1
    6db4:	01 50       	subi	r16, 0x01	; 1
    6db6:	10 40       	sbci	r17, 0x00	; 0
    6db8:	9f ef       	ldi	r25, 0xFF	; 255
    6dba:	0f 3f       	cpi	r16, 0xFF	; 255
    6dbc:	19 07       	cpc	r17, r25
    6dbe:	e9 f6       	brne	.-70     	; 0x6d7a <effect_smileyspin+0x332>
    6dc0:	08 94       	sec
    6dc2:	a1 1c       	adc	r10, r1
    6dc4:	b1 1c       	adc	r11, r1
    6dc6:	ca 94       	dec	r12
    6dc8:	2f ef       	ldi	r18, 0xFF	; 255
    6dca:	c2 16       	cp	r12, r18
    6dcc:	31 f0       	breq	.+12     	; 0x6dda <effect_smileyspin+0x392>
    6dce:	07 e0       	ldi	r16, 0x07	; 7
    6dd0:	10 e0       	ldi	r17, 0x00	; 0
    6dd2:	a1 e0       	ldi	r26, 0x01	; 1
    6dd4:	ea 2e       	mov	r14, r26
    6dd6:	f1 2c       	mov	r15, r1
    6dd8:	d0 cf       	rjmp	.-96     	; 0x6d7a <effect_smileyspin+0x332>
    6dda:	74 01       	movw	r14, r8
    6ddc:	8e a1       	lds	r24, 0x4e
    6dde:	9f a1       	lds	r25, 0x4f
    6de0:	0e 94 a7 27 	call	0x4f4e	; 0x4f4e <delay_ms>
    6de4:	80 e0       	ldi	r24, 0x00	; 0
    6de6:	0e 94 87 24 	call	0x490e	; 0x490e <fill>
    6dea:	08 94       	sec
    6dec:	41 08       	sbc	r4, r1
    6dee:	51 08       	sbc	r5, r1
    6df0:	41 14       	cp	r4, r1
    6df2:	51 04       	cpc	r5, r1
    6df4:	09 f0       	breq	.+2      	; 0x6df8 <effect_smileyspin+0x3b0>
    6df6:	9a cf       	rjmp	.-204    	; 0x6d2c <effect_smileyspin+0x2e4>
    6df8:	28 a5       	lds	r18, 0x68
    6dfa:	39 a5       	lds	r19, 0x69
    6dfc:	2f 5f       	subi	r18, 0xFF	; 255
    6dfe:	3f 4f       	sbci	r19, 0xFF	; 255
    6e00:	39 a7       	lds	r19, 0x79
    6e02:	28 a7       	lds	r18, 0x78
    6e04:	28 a5       	lds	r18, 0x68
    6e06:	39 a5       	lds	r19, 0x69
    6e08:	8a a5       	lds	r24, 0x6a
    6e0a:	9b a5       	lds	r25, 0x6b
    6e0c:	28 17       	cp	r18, r24
    6e0e:	39 07       	cpc	r19, r25
    6e10:	0c f4       	brge	.+2      	; 0x6e14 <effect_smileyspin+0x3cc>
    6e12:	4a ce       	rjmp	.-876    	; 0x6aa8 <effect_smileyspin+0x60>
    6e14:	ab 96       	adiw	r28, 0x2b	; 43
    6e16:	0f b6       	in	r0, 0x3f	; 63
    6e18:	f8 94       	cli
    6e1a:	de bf       	out	0x3e, r29	; 62
    6e1c:	0f be       	out	0x3f, r0	; 63
    6e1e:	cd bf       	out	0x3d, r28	; 61
    6e20:	df 91       	pop	r29
    6e22:	cf 91       	pop	r28
    6e24:	1f 91       	pop	r17
    6e26:	0f 91       	pop	r16
    6e28:	ff 90       	pop	r15
    6e2a:	ef 90       	pop	r14
    6e2c:	df 90       	pop	r13
    6e2e:	cf 90       	pop	r12
    6e30:	bf 90       	pop	r11
    6e32:	af 90       	pop	r10
    6e34:	9f 90       	pop	r9
    6e36:	8f 90       	pop	r8
    6e38:	7f 90       	pop	r7
    6e3a:	6f 90       	pop	r6
    6e3c:	5f 90       	pop	r5
    6e3e:	4f 90       	pop	r4
    6e40:	3f 90       	pop	r3
    6e42:	2f 90       	pop	r2
    6e44:	08 95       	ret

00006e46 <effect_pathmove>:
    6e46:	af 92       	push	r10
    6e48:	bf 92       	push	r11
    6e4a:	cf 92       	push	r12
    6e4c:	df 92       	push	r13
    6e4e:	ef 92       	push	r14
    6e50:	ff 92       	push	r15
    6e52:	0f 93       	push	r16
    6e54:	1f 93       	push	r17
    6e56:	cf 93       	push	r28
    6e58:	df 93       	push	r29
    6e5a:	6c 01       	movw	r12, r24
    6e5c:	eb 01       	movw	r28, r22
    6e5e:	28 c0       	rjmp	.+80     	; 0x6eb0 <effect_pathmove+0x6a>
    6e60:	00 e0       	ldi	r16, 0x00	; 0
    6e62:	10 e0       	ldi	r17, 0x00	; 0
    6e64:	76 01       	movw	r14, r12
    6e66:	ec 0e       	add	r14, r28
    6e68:	fd 1e       	adc	r15, r29
    6e6a:	57 01       	movw	r10, r14
    6e6c:	08 94       	sec
    6e6e:	a1 08       	sbc	r10, r1
    6e70:	b1 08       	sbc	r11, r1
    6e72:	f5 01       	movw	r30, r10
    6e74:	60 81       	ld	r22, Z
    6e76:	86 2f       	mov	r24, r22
    6e78:	82 95       	swap	r24
    6e7a:	8f 70       	andi	r24, 0x0F	; 15
    6e7c:	70 e0       	ldi	r23, 0x00	; 0
    6e7e:	6f 70       	andi	r22, 0x0F	; 15
    6e80:	70 70       	andi	r23, 0x00	; 0
    6e82:	90 e0       	ldi	r25, 0x00	; 0
    6e84:	a8 01       	movw	r20, r16
    6e86:	0e 94 60 23 	call	0x46c0	; 0x46c0 <getvoxel>
    6e8a:	28 2f       	mov	r18, r24
    6e8c:	f7 01       	movw	r30, r14
    6e8e:	60 81       	ld	r22, Z
    6e90:	86 2f       	mov	r24, r22
    6e92:	82 95       	swap	r24
    6e94:	8f 70       	andi	r24, 0x0F	; 15
    6e96:	70 e0       	ldi	r23, 0x00	; 0
    6e98:	6f 70       	andi	r22, 0x0F	; 15
    6e9a:	70 70       	andi	r23, 0x00	; 0
    6e9c:	90 e0       	ldi	r25, 0x00	; 0
    6e9e:	a8 01       	movw	r20, r16
    6ea0:	30 e0       	ldi	r19, 0x00	; 0
    6ea2:	0e 94 85 23 	call	0x470a	; 0x470a <altervoxel>
    6ea6:	0f 5f       	subi	r16, 0xFF	; 255
    6ea8:	1f 4f       	sbci	r17, 0xFF	; 255
    6eaa:	08 30       	cpi	r16, 0x08	; 8
    6eac:	11 05       	cpc	r17, r1
    6eae:	09 f7       	brne	.-62     	; 0x6e72 <effect_pathmove+0x2c>
    6eb0:	21 97       	sbiw	r28, 0x01	; 1
    6eb2:	1c 16       	cp	r1, r28
    6eb4:	1d 06       	cpc	r1, r29
    6eb6:	a4 f2       	brlt	.-88     	; 0x6e60 <effect_pathmove+0x1a>
    6eb8:	c0 e0       	ldi	r28, 0x00	; 0
    6eba:	d0 e0       	ldi	r29, 0x00	; 0
    6ebc:	f6 01       	movw	r30, r12
    6ebe:	60 81       	ld	r22, Z
    6ec0:	86 2f       	mov	r24, r22
    6ec2:	82 95       	swap	r24
    6ec4:	8f 70       	andi	r24, 0x0F	; 15
    6ec6:	70 e0       	ldi	r23, 0x00	; 0
    6ec8:	6f 70       	andi	r22, 0x0F	; 15
    6eca:	70 70       	andi	r23, 0x00	; 0
    6ecc:	90 e0       	ldi	r25, 0x00	; 0
    6ece:	ae 01       	movw	r20, r28
    6ed0:	0e 94 f0 22 	call	0x45e0	; 0x45e0 <clrvoxel>
    6ed4:	21 96       	adiw	r28, 0x01	; 1
    6ed6:	c8 30       	cpi	r28, 0x08	; 8
    6ed8:	d1 05       	cpc	r29, r1
    6eda:	81 f7       	brne	.-32     	; 0x6ebc <effect_pathmove+0x76>
    6edc:	df 91       	pop	r29
    6ede:	cf 91       	pop	r28
    6ee0:	1f 91       	pop	r17
    6ee2:	0f 91       	pop	r16
    6ee4:	ff 90       	pop	r15
    6ee6:	ef 90       	pop	r14
    6ee8:	df 90       	pop	r13
    6eea:	cf 90       	pop	r12
    6eec:	bf 90       	pop	r11
    6eee:	af 90       	pop	r10
    6ef0:	08 95       	ret

00006ef2 <effect_rand_patharound>:
    6ef2:	4f 92       	push	r4
    6ef4:	5f 92       	push	r5
    6ef6:	6f 92       	push	r6
    6ef8:	7f 92       	push	r7
    6efa:	8f 92       	push	r8
    6efc:	9f 92       	push	r9
    6efe:	bf 92       	push	r11
    6f00:	cf 92       	push	r12
    6f02:	df 92       	push	r13
    6f04:	ef 92       	push	r14
    6f06:	ff 92       	push	r15
    6f08:	0f 93       	push	r16
    6f0a:	1f 93       	push	r17
    6f0c:	cf 93       	push	r28
    6f0e:	df 93       	push	r29
    6f10:	cd b7       	in	r28, 0x3d	; 61
    6f12:	de b7       	in	r29, 0x3e	; 62
    6f14:	6c 97       	sbiw	r28, 0x1c	; 28
    6f16:	0f b6       	in	r0, 0x3f	; 63
    6f18:	f8 94       	cli
    6f1a:	de bf       	out	0x3e, r29	; 62
    6f1c:	0f be       	out	0x3f, r0	; 63
    6f1e:	cd bf       	out	0x3d, r28	; 61
    6f20:	4c 01       	movw	r8, r24
    6f22:	3b 01       	movw	r6, r22
    6f24:	80 e0       	ldi	r24, 0x00	; 0
    6f26:	7e 01       	movw	r14, r28
    6f28:	08 94       	sec
    6f2a:	e1 1c       	adc	r14, r1
    6f2c:	f1 1c       	adc	r15, r1
    6f2e:	b7 01       	movw	r22, r14
    6f30:	4c e1       	ldi	r20, 0x1C	; 28
    6f32:	50 e0       	ldi	r21, 0x00	; 0
    6f34:	0e 94 5e 39 	call	0x72bc	; 0x72bc <font_getpath>
    6f38:	cc 24       	eor	r12, r12
    6f3a:	dd 24       	eor	r13, r13
    6f3c:	04 e0       	ldi	r16, 0x04	; 4
    6f3e:	10 e0       	ldi	r17, 0x00	; 0
    6f40:	e3 e0       	ldi	r30, 0x03	; 3
    6f42:	4e 2e       	mov	r4, r30
    6f44:	51 2c       	mov	r5, r1
    6f46:	be 2c       	mov	r11, r14
    6f48:	ef 2c       	mov	r14, r15
    6f4a:	26 c0       	rjmp	.+76     	; 0x6f98 <effect_rand_patharound+0xa6>
    6f4c:	0e 94 72 54 	call	0xa8e4	; 0xa8e4 <rand>
    6f50:	b2 01       	movw	r22, r4
    6f52:	0e 94 f6 53 	call	0xa7ec	; 0xa7ec <__divmodhi4>
    6f56:	01 97       	sbiw	r24, 0x01	; 1
    6f58:	08 0f       	add	r16, r24
    6f5a:	19 1f       	adc	r17, r25
    6f5c:	08 30       	cpi	r16, 0x08	; 8
    6f5e:	11 05       	cpc	r17, r1
    6f60:	1c f4       	brge	.+6      	; 0x6f68 <effect_rand_patharound+0x76>
    6f62:	17 fd       	sbrc	r17, 7
    6f64:	04 c0       	rjmp	.+8      	; 0x6f6e <effect_rand_patharound+0x7c>
    6f66:	05 c0       	rjmp	.+10     	; 0x6f72 <effect_rand_patharound+0x80>
    6f68:	07 e0       	ldi	r16, 0x07	; 7
    6f6a:	10 e0       	ldi	r17, 0x00	; 0
    6f6c:	02 c0       	rjmp	.+4      	; 0x6f72 <effect_rand_patharound+0x80>
    6f6e:	00 e0       	ldi	r16, 0x00	; 0
    6f70:	10 e0       	ldi	r17, 0x00	; 0
    6f72:	8b 2d       	mov	r24, r11
    6f74:	9e 2d       	mov	r25, r14
    6f76:	6c e1       	ldi	r22, 0x1C	; 28
    6f78:	70 e0       	ldi	r23, 0x00	; 0
    6f7a:	0e 94 23 37 	call	0x6e46	; 0x6e46 <effect_pathmove>
    6f7e:	80 e0       	ldi	r24, 0x00	; 0
    6f80:	90 e0       	ldi	r25, 0x00	; 0
    6f82:	67 e0       	ldi	r22, 0x07	; 7
    6f84:	70 e0       	ldi	r23, 0x00	; 0
    6f86:	a8 01       	movw	r20, r16
    6f88:	0e 94 3b 23 	call	0x4676	; 0x4676 <setvoxel>
    6f8c:	c3 01       	movw	r24, r6
    6f8e:	0e 94 a7 27 	call	0x4f4e	; 0x4f4e <delay_ms>
    6f92:	08 94       	sec
    6f94:	c1 1c       	adc	r12, r1
    6f96:	d1 1c       	adc	r13, r1
    6f98:	c8 14       	cp	r12, r8
    6f9a:	d9 04       	cpc	r13, r9
    6f9c:	bc f2       	brlt	.-82     	; 0x6f4c <effect_rand_patharound+0x5a>
    6f9e:	6c 96       	adiw	r28, 0x1c	; 28
    6fa0:	0f b6       	in	r0, 0x3f	; 63
    6fa2:	f8 94       	cli
    6fa4:	de bf       	out	0x3e, r29	; 62
    6fa6:	0f be       	out	0x3f, r0	; 63
    6fa8:	cd bf       	out	0x3d, r28	; 61
    6faa:	df 91       	pop	r29
    6fac:	cf 91       	pop	r28
    6fae:	1f 91       	pop	r17
    6fb0:	0f 91       	pop	r16
    6fb2:	ff 90       	pop	r15
    6fb4:	ef 90       	pop	r14
    6fb6:	df 90       	pop	r13
    6fb8:	cf 90       	pop	r12
    6fba:	bf 90       	pop	r11
    6fbc:	9f 90       	pop	r9
    6fbe:	8f 90       	pop	r8
    6fc0:	7f 90       	pop	r7
    6fc2:	6f 90       	pop	r6
    6fc4:	5f 90       	pop	r5
    6fc6:	4f 90       	pop	r4
    6fc8:	08 95       	ret

00006fca <effect_pathspiral>:
    6fca:	6f 92       	push	r6
    6fcc:	7f 92       	push	r7
    6fce:	8f 92       	push	r8
    6fd0:	9f 92       	push	r9
    6fd2:	af 92       	push	r10
    6fd4:	bf 92       	push	r11
    6fd6:	df 92       	push	r13
    6fd8:	ef 92       	push	r14
    6fda:	ff 92       	push	r15
    6fdc:	0f 93       	push	r16
    6fde:	1f 93       	push	r17
    6fe0:	cf 93       	push	r28
    6fe2:	df 93       	push	r29
    6fe4:	cd b7       	in	r28, 0x3d	; 61
    6fe6:	de b7       	in	r29, 0x3e	; 62
    6fe8:	60 97       	sbiw	r28, 0x10	; 16
    6fea:	0f b6       	in	r0, 0x3f	; 63
    6fec:	f8 94       	cli
    6fee:	de bf       	out	0x3e, r29	; 62
    6ff0:	0f be       	out	0x3f, r0	; 63
    6ff2:	cd bf       	out	0x3d, r28	; 61
    6ff4:	5c 01       	movw	r10, r24
    6ff6:	4b 01       	movw	r8, r22
    6ff8:	81 e0       	ldi	r24, 0x01	; 1
    6ffa:	7e 01       	movw	r14, r28
    6ffc:	08 94       	sec
    6ffe:	e1 1c       	adc	r14, r1
    7000:	f1 1c       	adc	r15, r1
    7002:	b7 01       	movw	r22, r14
    7004:	40 e1       	ldi	r20, 0x10	; 16
    7006:	50 e0       	ldi	r21, 0x00	; 0
    7008:	0e 94 5e 39 	call	0x72bc	; 0x72bc <font_getpath>
    700c:	00 e0       	ldi	r16, 0x00	; 0
    700e:	10 e0       	ldi	r17, 0x00	; 0
    7010:	f8 e0       	ldi	r31, 0x08	; 8
    7012:	6f 2e       	mov	r6, r31
    7014:	71 2c       	mov	r7, r1
    7016:	de 2c       	mov	r13, r14
    7018:	ef 2c       	mov	r14, r15
    701a:	16 c0       	rjmp	.+44     	; 0x7048 <effect_pathspiral+0x7e>
    701c:	c8 01       	movw	r24, r16
    701e:	b3 01       	movw	r22, r6
    7020:	0e 94 f6 53 	call	0xa7ec	; 0xa7ec <__divmodhi4>
    7024:	ac 01       	movw	r20, r24
    7026:	84 e0       	ldi	r24, 0x04	; 4
    7028:	90 e0       	ldi	r25, 0x00	; 0
    702a:	60 e0       	ldi	r22, 0x00	; 0
    702c:	70 e0       	ldi	r23, 0x00	; 0
    702e:	0e 94 3b 23 	call	0x4676	; 0x4676 <setvoxel>
    7032:	c4 01       	movw	r24, r8
    7034:	0e 94 a7 27 	call	0x4f4e	; 0x4f4e <delay_ms>
    7038:	8d 2d       	mov	r24, r13
    703a:	9e 2d       	mov	r25, r14
    703c:	6c e1       	ldi	r22, 0x1C	; 28
    703e:	70 e0       	ldi	r23, 0x00	; 0
    7040:	0e 94 23 37 	call	0x6e46	; 0x6e46 <effect_pathmove>
    7044:	0f 5f       	subi	r16, 0xFF	; 255
    7046:	1f 4f       	sbci	r17, 0xFF	; 255
    7048:	0a 15       	cp	r16, r10
    704a:	1b 05       	cpc	r17, r11
    704c:	3c f3       	brlt	.-50     	; 0x701c <effect_pathspiral+0x52>
    704e:	60 96       	adiw	r28, 0x10	; 16
    7050:	0f b6       	in	r0, 0x3f	; 63
    7052:	f8 94       	cli
    7054:	de bf       	out	0x3e, r29	; 62
    7056:	0f be       	out	0x3f, r0	; 63
    7058:	cd bf       	out	0x3d, r28	; 61
    705a:	df 91       	pop	r29
    705c:	cf 91       	pop	r28
    705e:	1f 91       	pop	r17
    7060:	0f 91       	pop	r16
    7062:	ff 90       	pop	r15
    7064:	ef 90       	pop	r14
    7066:	df 90       	pop	r13
    7068:	bf 90       	pop	r11
    706a:	af 90       	pop	r10
    706c:	9f 90       	pop	r9
    706e:	8f 90       	pop	r8
    7070:	7f 90       	pop	r7
    7072:	6f 90       	pop	r6
    7074:	08 95       	ret

00007076 <effect_path_text>:
    7076:	4f 92       	push	r4
    7078:	5f 92       	push	r5
    707a:	6f 92       	push	r6
    707c:	7f 92       	push	r7
    707e:	8f 92       	push	r8
    7080:	9f 92       	push	r9
    7082:	af 92       	push	r10
    7084:	bf 92       	push	r11
    7086:	cf 92       	push	r12
    7088:	df 92       	push	r13
    708a:	ef 92       	push	r14
    708c:	ff 92       	push	r15
    708e:	0f 93       	push	r16
    7090:	1f 93       	push	r17
    7092:	cf 93       	push	r28
    7094:	df 93       	push	r29
    7096:	cd b7       	in	r28, 0x3d	; 61
    7098:	de b7       	in	r29, 0x3e	; 62
    709a:	a1 97       	sbiw	r28, 0x21	; 33
    709c:	0f b6       	in	r0, 0x3f	; 63
    709e:	f8 94       	cli
    70a0:	de bf       	out	0x3e, r29	; 62
    70a2:	0f be       	out	0x3f, r0	; 63
    70a4:	cd bf       	out	0x3d, r28	; 61
    70a6:	7c 01       	movw	r14, r24
    70a8:	c6 2e       	mov	r12, r22
    70aa:	07 2f       	mov	r16, r23
    70ac:	80 e0       	ldi	r24, 0x00	; 0
    70ae:	be 01       	movw	r22, r28
    70b0:	6a 5f       	subi	r22, 0xFA	; 250
    70b2:	7f 4f       	sbci	r23, 0xFF	; 255
    70b4:	4c e1       	ldi	r20, 0x1C	; 28
    70b6:	50 e0       	ldi	r21, 0x00	; 0
    70b8:	0e 94 5e 39 	call	0x72bc	; 0x72bc <font_getpath>
    70bc:	8c 2c       	mov	r8, r12
    70be:	90 2e       	mov	r9, r16
    70c0:	a7 e0       	ldi	r26, 0x07	; 7
    70c2:	6a 2e       	mov	r6, r26
    70c4:	71 2c       	mov	r7, r1
    70c6:	49 c0       	rjmp	.+146    	; 0x715a <effect_path_text+0xe4>
    70c8:	be 01       	movw	r22, r28
    70ca:	6f 5f       	subi	r22, 0xFF	; 255
    70cc:	7f 4f       	sbci	r23, 0xFF	; 255
    70ce:	0e 94 75 39 	call	0x72ea	; 0x72ea <font_getchar>
    70d2:	5e 01       	movw	r10, r28
    70d4:	08 94       	sec
    70d6:	a1 1c       	adc	r10, r1
    70d8:	b1 1c       	adc	r11, r1
    70da:	cc 24       	eor	r12, r12
    70dc:	dd 24       	eor	r13, r13
    70de:	f5 01       	movw	r30, r10
    70e0:	41 90       	ld	r4, Z+
    70e2:	5f 01       	movw	r10, r30
    70e4:	00 e0       	ldi	r16, 0x00	; 0
    70e6:	10 e0       	ldi	r17, 0x00	; 0
    70e8:	55 24       	eor	r5, r5
    70ea:	c3 01       	movw	r24, r6
    70ec:	80 1b       	sub	r24, r16
    70ee:	91 0b       	sbc	r25, r17
    70f0:	92 01       	movw	r18, r4
    70f2:	02 c0       	rjmp	.+4      	; 0x70f8 <effect_path_text+0x82>
    70f4:	35 95       	asr	r19
    70f6:	27 95       	ror	r18
    70f8:	8a 95       	dec	r24
    70fa:	e2 f7       	brpl	.-8      	; 0x70f4 <effect_path_text+0x7e>
    70fc:	20 ff       	sbrs	r18, 0
    70fe:	08 c0       	rjmp	.+16     	; 0x7110 <effect_path_text+0x9a>
    7100:	80 e0       	ldi	r24, 0x00	; 0
    7102:	90 e0       	ldi	r25, 0x00	; 0
    7104:	67 e0       	ldi	r22, 0x07	; 7
    7106:	70 e0       	ldi	r23, 0x00	; 0
    7108:	a8 01       	movw	r20, r16
    710a:	0e 94 3b 23 	call	0x4676	; 0x4676 <setvoxel>
    710e:	07 c0       	rjmp	.+14     	; 0x711e <effect_path_text+0xa8>
    7110:	80 e0       	ldi	r24, 0x00	; 0
    7112:	90 e0       	ldi	r25, 0x00	; 0
    7114:	67 e0       	ldi	r22, 0x07	; 7
    7116:	70 e0       	ldi	r23, 0x00	; 0
    7118:	a8 01       	movw	r20, r16
    711a:	0e 94 f0 22 	call	0x45e0	; 0x45e0 <clrvoxel>
    711e:	0f 5f       	subi	r16, 0xFF	; 255
    7120:	1f 4f       	sbci	r17, 0xFF	; 255
    7122:	08 30       	cpi	r16, 0x08	; 8
    7124:	11 05       	cpc	r17, r1
    7126:	09 f7       	brne	.-62     	; 0x70ea <effect_path_text+0x74>
    7128:	ce 01       	movw	r24, r28
    712a:	06 96       	adiw	r24, 0x06	; 6
    712c:	6c e1       	ldi	r22, 0x1C	; 28
    712e:	70 e0       	ldi	r23, 0x00	; 0
    7130:	0e 94 23 37 	call	0x6e46	; 0x6e46 <effect_pathmove>
    7134:	c7 01       	movw	r24, r14
    7136:	0e 94 a7 27 	call	0x4f4e	; 0x4f4e <delay_ms>
    713a:	08 94       	sec
    713c:	c1 1c       	adc	r12, r1
    713e:	d1 1c       	adc	r13, r1
    7140:	35 e0       	ldi	r19, 0x05	; 5
    7142:	c3 16       	cp	r12, r19
    7144:	d1 04       	cpc	r13, r1
    7146:	59 f6       	brne	.-106    	; 0x70de <effect_path_text+0x68>
    7148:	ce 01       	movw	r24, r28
    714a:	06 96       	adiw	r24, 0x06	; 6
    714c:	6c e1       	ldi	r22, 0x1C	; 28
    714e:	70 e0       	ldi	r23, 0x00	; 0
    7150:	0e 94 23 37 	call	0x6e46	; 0x6e46 <effect_pathmove>
    7154:	c7 01       	movw	r24, r14
    7156:	0e 94 a7 27 	call	0x4f4e	; 0x4f4e <delay_ms>
    715a:	f4 01       	movw	r30, r8
    715c:	81 91       	ld	r24, Z+
    715e:	4f 01       	movw	r8, r30
    7160:	88 23       	and	r24, r24
    7162:	09 f0       	breq	.+2      	; 0x7166 <effect_path_text+0xf0>
    7164:	b1 cf       	rjmp	.-158    	; 0x70c8 <effect_path_text+0x52>
    7166:	0c e1       	ldi	r16, 0x1C	; 28
    7168:	10 e0       	ldi	r17, 0x00	; 0
    716a:	ce 01       	movw	r24, r28
    716c:	06 96       	adiw	r24, 0x06	; 6
    716e:	6c e1       	ldi	r22, 0x1C	; 28
    7170:	70 e0       	ldi	r23, 0x00	; 0
    7172:	0e 94 23 37 	call	0x6e46	; 0x6e46 <effect_pathmove>
    7176:	c7 01       	movw	r24, r14
    7178:	0e 94 a7 27 	call	0x4f4e	; 0x4f4e <delay_ms>
    717c:	01 50       	subi	r16, 0x01	; 1
    717e:	10 40       	sbci	r17, 0x00	; 0
    7180:	a1 f7       	brne	.-24     	; 0x716a <effect_path_text+0xf4>
    7182:	a1 96       	adiw	r28, 0x21	; 33
    7184:	0f b6       	in	r0, 0x3f	; 63
    7186:	f8 94       	cli
    7188:	de bf       	out	0x3e, r29	; 62
    718a:	0f be       	out	0x3f, r0	; 63
    718c:	cd bf       	out	0x3d, r28	; 61
    718e:	df 91       	pop	r29
    7190:	cf 91       	pop	r28
    7192:	1f 91       	pop	r17
    7194:	0f 91       	pop	r16
    7196:	ff 90       	pop	r15
    7198:	ef 90       	pop	r14
    719a:	df 90       	pop	r13
    719c:	cf 90       	pop	r12
    719e:	bf 90       	pop	r11
    71a0:	af 90       	pop	r10
    71a2:	9f 90       	pop	r9
    71a4:	8f 90       	pop	r8
    71a6:	7f 90       	pop	r7
    71a8:	6f 90       	pop	r6
    71aa:	5f 90       	pop	r5
    71ac:	4f 90       	pop	r4
    71ae:	08 95       	ret

000071b0 <effect_path_bitmap>:
    71b0:	6f 92       	push	r6
    71b2:	7f 92       	push	r7
    71b4:	9f 92       	push	r9
    71b6:	af 92       	push	r10
    71b8:	bf 92       	push	r11
    71ba:	cf 92       	push	r12
    71bc:	df 92       	push	r13
    71be:	ef 92       	push	r14
    71c0:	ff 92       	push	r15
    71c2:	0f 93       	push	r16
    71c4:	1f 93       	push	r17
    71c6:	cf 93       	push	r28
    71c8:	df 93       	push	r29
    71ca:	cd b7       	in	r28, 0x3d	; 61
    71cc:	de b7       	in	r29, 0x3e	; 62
    71ce:	6c 97       	sbiw	r28, 0x1c	; 28
    71d0:	0f b6       	in	r0, 0x3f	; 63
    71d2:	f8 94       	cli
    71d4:	de bf       	out	0x3e, r29	; 62
    71d6:	0f be       	out	0x3f, r0	; 63
    71d8:	cd bf       	out	0x3d, r28	; 61
    71da:	6c 01       	movw	r12, r24
    71dc:	96 2e       	mov	r9, r22
    71de:	3a 01       	movw	r6, r20
    71e0:	80 e0       	ldi	r24, 0x00	; 0
    71e2:	be 01       	movw	r22, r28
    71e4:	6f 5f       	subi	r22, 0xFF	; 255
    71e6:	7f 4f       	sbci	r23, 0xFF	; 255
    71e8:	4c e1       	ldi	r20, 0x1C	; 28
    71ea:	50 e0       	ldi	r21, 0x00	; 0
    71ec:	0e 94 5e 39 	call	0x72bc	; 0x72bc <font_getpath>
    71f0:	aa 24       	eor	r10, r10
    71f2:	bb 24       	eor	r11, r11
    71f4:	3e c0       	rjmp	.+124    	; 0x7272 <effect_path_bitmap+0xc2>
    71f6:	89 2d       	mov	r24, r9
    71f8:	61 2f       	mov	r22, r17
    71fa:	40 2f       	mov	r20, r16
    71fc:	0e 94 c7 39 	call	0x738e	; 0x738e <font_getbitmappixel>
    7200:	88 23       	and	r24, r24
    7202:	41 f0       	breq	.+16     	; 0x7214 <effect_path_bitmap+0x64>
    7204:	80 e0       	ldi	r24, 0x00	; 0
    7206:	90 e0       	ldi	r25, 0x00	; 0
    7208:	67 e0       	ldi	r22, 0x07	; 7
    720a:	70 e0       	ldi	r23, 0x00	; 0
    720c:	a7 01       	movw	r20, r14
    720e:	0e 94 3b 23 	call	0x4676	; 0x4676 <setvoxel>
    7212:	07 c0       	rjmp	.+14     	; 0x7222 <effect_path_bitmap+0x72>
    7214:	80 e0       	ldi	r24, 0x00	; 0
    7216:	90 e0       	ldi	r25, 0x00	; 0
    7218:	67 e0       	ldi	r22, 0x07	; 7
    721a:	70 e0       	ldi	r23, 0x00	; 0
    721c:	a7 01       	movw	r20, r14
    721e:	0e 94 f0 22 	call	0x45e0	; 0x45e0 <clrvoxel>
    7222:	08 94       	sec
    7224:	e1 1c       	adc	r14, r1
    7226:	f1 1c       	adc	r15, r1
    7228:	11 50       	subi	r17, 0x01	; 1
    722a:	28 f7       	brcc	.-54     	; 0x71f6 <effect_path_bitmap+0x46>
    722c:	c6 01       	movw	r24, r12
    722e:	0e 94 a7 27 	call	0x4f4e	; 0x4f4e <delay_ms>
    7232:	ce 01       	movw	r24, r28
    7234:	01 96       	adiw	r24, 0x01	; 1
    7236:	6c e1       	ldi	r22, 0x1C	; 28
    7238:	70 e0       	ldi	r23, 0x00	; 0
    723a:	0e 94 23 37 	call	0x6e46	; 0x6e46 <effect_pathmove>
    723e:	0f 5f       	subi	r16, 0xFF	; 255
    7240:	08 30       	cpi	r16, 0x08	; 8
    7242:	11 f4       	brne	.+4      	; 0x7248 <effect_path_bitmap+0x98>
    7244:	05 c0       	rjmp	.+10     	; 0x7250 <effect_path_bitmap+0xa0>
    7246:	00 e0       	ldi	r16, 0x00	; 0
    7248:	17 e0       	ldi	r17, 0x07	; 7
    724a:	ee 24       	eor	r14, r14
    724c:	ff 24       	eor	r15, r15
    724e:	d3 cf       	rjmp	.-90     	; 0x71f6 <effect_path_bitmap+0x46>
    7250:	04 e1       	ldi	r16, 0x14	; 20
    7252:	10 e0       	ldi	r17, 0x00	; 0
    7254:	c6 01       	movw	r24, r12
    7256:	0e 94 a7 27 	call	0x4f4e	; 0x4f4e <delay_ms>
    725a:	ce 01       	movw	r24, r28
    725c:	01 96       	adiw	r24, 0x01	; 1
    725e:	6c e1       	ldi	r22, 0x1C	; 28
    7260:	70 e0       	ldi	r23, 0x00	; 0
    7262:	0e 94 23 37 	call	0x6e46	; 0x6e46 <effect_pathmove>
    7266:	01 50       	subi	r16, 0x01	; 1
    7268:	10 40       	sbci	r17, 0x00	; 0
    726a:	a1 f7       	brne	.-24     	; 0x7254 <effect_path_bitmap+0xa4>
    726c:	08 94       	sec
    726e:	a1 1c       	adc	r10, r1
    7270:	b1 1c       	adc	r11, r1
    7272:	a6 14       	cp	r10, r6
    7274:	b7 04       	cpc	r11, r7
    7276:	3c f3       	brlt	.-50     	; 0x7246 <effect_path_bitmap+0x96>
    7278:	0a e0       	ldi	r16, 0x0A	; 10
    727a:	10 e0       	ldi	r17, 0x00	; 0
    727c:	c6 01       	movw	r24, r12
    727e:	0e 94 a7 27 	call	0x4f4e	; 0x4f4e <delay_ms>
    7282:	ce 01       	movw	r24, r28
    7284:	01 96       	adiw	r24, 0x01	; 1
    7286:	6c e1       	ldi	r22, 0x1C	; 28
    7288:	70 e0       	ldi	r23, 0x00	; 0
    728a:	0e 94 23 37 	call	0x6e46	; 0x6e46 <effect_pathmove>
    728e:	01 50       	subi	r16, 0x01	; 1
    7290:	10 40       	sbci	r17, 0x00	; 0
    7292:	a1 f7       	brne	.-24     	; 0x727c <effect_path_bitmap+0xcc>
    7294:	6c 96       	adiw	r28, 0x1c	; 28
    7296:	0f b6       	in	r0, 0x3f	; 63
    7298:	f8 94       	cli
    729a:	de bf       	out	0x3e, r29	; 62
    729c:	0f be       	out	0x3f, r0	; 63
    729e:	cd bf       	out	0x3d, r28	; 61
    72a0:	df 91       	pop	r29
    72a2:	cf 91       	pop	r28
    72a4:	1f 91       	pop	r17
    72a6:	0f 91       	pop	r16
    72a8:	ff 90       	pop	r15
    72aa:	ef 90       	pop	r14
    72ac:	df 90       	pop	r13
    72ae:	cf 90       	pop	r12
    72b0:	bf 90       	pop	r11
    72b2:	af 90       	pop	r10
    72b4:	9f 90       	pop	r9
    72b6:	7f 90       	pop	r7
    72b8:	6f 90       	pop	r6
    72ba:	08 95       	ret

000072bc <font_getpath>:
    72bc:	81 30       	cpi	r24, 0x01	; 1
    72be:	19 f0       	breq	.+6      	; 0x72c6 <font_getpath+0xa>
    72c0:	20 e0       	ldi	r18, 0x00	; 0
    72c2:	30 e0       	ldi	r19, 0x00	; 0
    72c4:	02 c0       	rjmp	.+4      	; 0x72ca <font_getpath+0xe>
    72c6:	2c e1       	ldi	r18, 0x1C	; 28
    72c8:	30 e0       	ldi	r19, 0x00	; 0
    72ca:	db 01       	movw	r26, r22
    72cc:	80 e0       	ldi	r24, 0x00	; 0
    72ce:	90 e0       	ldi	r25, 0x00	; 0
    72d0:	08 c0       	rjmp	.+16     	; 0x72e2 <font_getpath+0x26>
    72d2:	fc 01       	movw	r30, r24
    72d4:	e2 0f       	add	r30, r18
    72d6:	f3 1f       	adc	r31, r19
    72d8:	e0 55       	subi	r30, 0x50	; 80
    72da:	fe 4f       	sbci	r31, 0xFE	; 254
    72dc:	e4 91       	lpm	r30, Z
    72de:	ed 93       	st	X+, r30
    72e0:	01 96       	adiw	r24, 0x01	; 1
    72e2:	84 17       	cp	r24, r20
    72e4:	95 07       	cpc	r25, r21
    72e6:	ac f3       	brlt	.-22     	; 0x72d2 <font_getpath+0x16>
    72e8:	08 95       	ret

000072ea <font_getchar>:
    72ea:	ef 92       	push	r14
    72ec:	ff 92       	push	r15
    72ee:	0f 93       	push	r16
    72f0:	1f 93       	push	r17
    72f2:	cf 93       	push	r28
    72f4:	df 93       	push	r29
    72f6:	0f 92       	push	r0
    72f8:	cd b7       	in	r28, 0x3d	; 61
    72fa:	de b7       	in	r29, 0x3e	; 62
    72fc:	80 52       	subi	r24, 0x20	; 32
    72fe:	90 e0       	ldi	r25, 0x00	; 0
    7300:	7c 01       	movw	r14, r24
    7302:	ee 0c       	add	r14, r14
    7304:	ff 1c       	adc	r15, r15
    7306:	ee 0c       	add	r14, r14
    7308:	ff 1c       	adc	r15, r15
    730a:	e8 0e       	add	r14, r24
    730c:	f9 1e       	adc	r15, r25
    730e:	8b 01       	movw	r16, r22
    7310:	20 e0       	ldi	r18, 0x00	; 0
    7312:	c7 01       	movw	r24, r14
    7314:	80 5d       	subi	r24, 0xD0	; 208
    7316:	9f 4f       	sbci	r25, 0xFF	; 255
    7318:	29 83       	std	Y+1, r18	; 0x01
    731a:	0e 94 82 54 	call	0xa904	; 0xa904 <__eerd_byte_m1284p>
    731e:	f8 01       	movw	r30, r16
    7320:	81 93       	st	Z+, r24
    7322:	8f 01       	movw	r16, r30
    7324:	29 81       	ldd	r18, Y+1	; 0x01
    7326:	2f 5f       	subi	r18, 0xFF	; 255
    7328:	08 94       	sec
    732a:	e1 1c       	adc	r14, r1
    732c:	f1 1c       	adc	r15, r1
    732e:	25 30       	cpi	r18, 0x05	; 5
    7330:	81 f7       	brne	.-32     	; 0x7312 <font_getchar+0x28>
    7332:	0f 90       	pop	r0
    7334:	df 91       	pop	r29
    7336:	cf 91       	pop	r28
    7338:	1f 91       	pop	r17
    733a:	0f 91       	pop	r16
    733c:	ff 90       	pop	r15
    733e:	ef 90       	pop	r14
    7340:	08 95       	ret

00007342 <font_getbitmap>:
    7342:	ef 92       	push	r14
    7344:	ff 92       	push	r15
    7346:	0f 93       	push	r16
    7348:	1f 93       	push	r17
    734a:	cf 93       	push	r28
    734c:	df 93       	push	r29
    734e:	c8 2f       	mov	r28, r24
    7350:	d0 e0       	ldi	r29, 0x00	; 0
    7352:	33 e0       	ldi	r19, 0x03	; 3
    7354:	cc 0f       	add	r28, r28
    7356:	dd 1f       	adc	r29, r29
    7358:	3a 95       	dec	r19
    735a:	e1 f7       	brne	.-8      	; 0x7354 <font_getbitmap+0x12>
    735c:	7b 01       	movw	r14, r22
    735e:	00 e0       	ldi	r16, 0x00	; 0
    7360:	10 e0       	ldi	r17, 0x00	; 0
    7362:	c0 50       	subi	r28, 0x00	; 0
    7364:	d0 40       	sbci	r29, 0x00	; 0
    7366:	ce 01       	movw	r24, r28
    7368:	80 0f       	add	r24, r16
    736a:	91 1f       	adc	r25, r17
    736c:	0e 94 82 54 	call	0xa904	; 0xa904 <__eerd_byte_m1284p>
    7370:	f7 01       	movw	r30, r14
    7372:	81 93       	st	Z+, r24
    7374:	7f 01       	movw	r14, r30
    7376:	0f 5f       	subi	r16, 0xFF	; 255
    7378:	1f 4f       	sbci	r17, 0xFF	; 255
    737a:	08 30       	cpi	r16, 0x08	; 8
    737c:	11 05       	cpc	r17, r1
    737e:	99 f7       	brne	.-26     	; 0x7366 <font_getbitmap+0x24>
    7380:	df 91       	pop	r29
    7382:	cf 91       	pop	r28
    7384:	1f 91       	pop	r17
    7386:	0f 91       	pop	r16
    7388:	ff 90       	pop	r15
    738a:	ef 90       	pop	r14
    738c:	08 95       	ret

0000738e <font_getbitmappixel>:
    738e:	cf 93       	push	r28
    7390:	df 93       	push	r29
    7392:	0f 92       	push	r0
    7394:	cd b7       	in	r28, 0x3d	; 61
    7396:	de b7       	in	r29, 0x3e	; 62
    7398:	90 e0       	ldi	r25, 0x00	; 0
    739a:	53 e0       	ldi	r21, 0x03	; 3
    739c:	88 0f       	add	r24, r24
    739e:	99 1f       	adc	r25, r25
    73a0:	5a 95       	dec	r21
    73a2:	e1 f7       	brne	.-8      	; 0x739c <font_getbitmappixel+0xe>
    73a4:	86 0f       	add	r24, r22
    73a6:	91 1d       	adc	r25, r1
    73a8:	80 50       	subi	r24, 0x00	; 0
    73aa:	90 40       	sbci	r25, 0x00	; 0
    73ac:	49 83       	std	Y+1, r20	; 0x01
    73ae:	0e 94 82 54 	call	0xa904	; 0xa904 <__eerd_byte_m1284p>
    73b2:	90 e0       	ldi	r25, 0x00	; 0
    73b4:	49 81       	ldd	r20, Y+1	; 0x01
    73b6:	02 c0       	rjmp	.+4      	; 0x73bc <font_getbitmappixel+0x2e>
    73b8:	95 95       	asr	r25
    73ba:	87 95       	ror	r24
    73bc:	4a 95       	dec	r20
    73be:	e2 f7       	brpl	.-8      	; 0x73b8 <font_getbitmappixel+0x2a>
    73c0:	81 70       	andi	r24, 0x01	; 1
    73c2:	0f 90       	pop	r0
    73c4:	df 91       	pop	r29
    73c6:	cf 91       	pop	r28
    73c8:	08 95       	ret

000073ca <gol_count_neighbors>:
    73ca:	2f 92       	push	r2
    73cc:	3f 92       	push	r3
    73ce:	4f 92       	push	r4
    73d0:	5f 92       	push	r5
    73d2:	7f 92       	push	r7
    73d4:	8f 92       	push	r8
    73d6:	9f 92       	push	r9
    73d8:	af 92       	push	r10
    73da:	bf 92       	push	r11
    73dc:	cf 92       	push	r12
    73de:	df 92       	push	r13
    73e0:	ef 92       	push	r14
    73e2:	ff 92       	push	r15
    73e4:	0f 93       	push	r16
    73e6:	1f 93       	push	r17
    73e8:	cf 93       	push	r28
    73ea:	df 93       	push	r29
    73ec:	00 d0       	rcall	.+0      	; 0x73ee <gol_count_neighbors+0x24>
    73ee:	00 d0       	rcall	.+0      	; 0x73f0 <gol_count_neighbors+0x26>
    73f0:	cd b7       	in	r28, 0x3d	; 61
    73f2:	de b7       	in	r29, 0x3e	; 62
    73f4:	2c 01       	movw	r4, r24
    73f6:	1b 01       	movw	r2, r22
    73f8:	9a 01       	movw	r18, r20
    73fa:	ee 24       	eor	r14, r14
    73fc:	ea 94       	dec	r14
    73fe:	fe 2c       	mov	r15, r14
    7400:	dd 24       	eor	r13, r13
    7402:	e8 e0       	ldi	r30, 0x08	; 8
    7404:	ae 2e       	mov	r10, r30
    7406:	b1 2c       	mov	r11, r1
    7408:	3f c0       	rjmp	.+126    	; 0x7488 <gol_count_neighbors+0xbe>
    740a:	e1 14       	cp	r14, r1
    740c:	f1 04       	cpc	r15, r1
    740e:	39 f4       	brne	.+14     	; 0x741e <gol_count_neighbors+0x54>
    7410:	01 15       	cp	r16, r1
    7412:	11 05       	cpc	r17, r1
    7414:	21 f4       	brne	.+8      	; 0x741e <gol_count_neighbors+0x54>
    7416:	8b 81       	ldd	r24, Y+3	; 0x03
    7418:	9c 81       	ldd	r25, Y+4	; 0x04
    741a:	00 97       	sbiw	r24, 0x00	; 0
    741c:	a1 f0       	breq	.+40     	; 0x7446 <gol_count_neighbors+0x7c>
    741e:	8b 81       	ldd	r24, Y+3	; 0x03
    7420:	9c 81       	ldd	r25, Y+4	; 0x04
    7422:	82 0f       	add	r24, r18
    7424:	93 1f       	adc	r25, r19
    7426:	b5 01       	movw	r22, r10
    7428:	0e 94 f6 53 	call	0xa7ec	; 0xa7ec <__divmodhi4>
    742c:	ac 01       	movw	r20, r24
    742e:	88 2d       	mov	r24, r8
    7430:	97 2d       	mov	r25, r7
    7432:	6c 2d       	mov	r22, r12
    7434:	79 2d       	mov	r23, r9
    7436:	29 83       	std	Y+1, r18	; 0x01
    7438:	3a 83       	std	Y+2, r19	; 0x02
    743a:	0e 94 60 23 	call	0x46c0	; 0x46c0 <getvoxel>
    743e:	29 81       	ldd	r18, Y+1	; 0x01
    7440:	3a 81       	ldd	r19, Y+2	; 0x02
    7442:	81 11       	cpse	r24, r1
    7444:	d3 94       	inc	r13
    7446:	eb 81       	ldd	r30, Y+3	; 0x03
    7448:	fc 81       	ldd	r31, Y+4	; 0x04
    744a:	31 96       	adiw	r30, 0x01	; 1
    744c:	fc 83       	std	Y+4, r31	; 0x04
    744e:	eb 83       	std	Y+3, r30	; 0x03
    7450:	e2 30       	cpi	r30, 0x02	; 2
    7452:	f1 05       	cpc	r31, r1
    7454:	d1 f6       	brne	.-76     	; 0x740a <gol_count_neighbors+0x40>
    7456:	0f 5f       	subi	r16, 0xFF	; 255
    7458:	1f 4f       	sbci	r17, 0xFF	; 255
    745a:	02 30       	cpi	r16, 0x02	; 2
    745c:	11 05       	cpc	r17, r1
    745e:	69 f0       	breq	.+26     	; 0x747a <gol_count_neighbors+0xb0>
    7460:	c8 01       	movw	r24, r16
    7462:	82 0d       	add	r24, r2
    7464:	93 1d       	adc	r25, r3
    7466:	b5 01       	movw	r22, r10
    7468:	0e 94 f6 53 	call	0xa7ec	; 0xa7ec <__divmodhi4>
    746c:	c8 2e       	mov	r12, r24
    746e:	99 2e       	mov	r9, r25
    7470:	8f ef       	ldi	r24, 0xFF	; 255
    7472:	9f ef       	ldi	r25, 0xFF	; 255
    7474:	9c 83       	std	Y+4, r25	; 0x04
    7476:	8b 83       	std	Y+3, r24	; 0x03
    7478:	c8 cf       	rjmp	.-112    	; 0x740a <gol_count_neighbors+0x40>
    747a:	08 94       	sec
    747c:	e1 1c       	adc	r14, r1
    747e:	f1 1c       	adc	r15, r1
    7480:	92 e0       	ldi	r25, 0x02	; 2
    7482:	e9 16       	cp	r14, r25
    7484:	f1 04       	cpc	r15, r1
    7486:	59 f0       	breq	.+22     	; 0x749e <gol_count_neighbors+0xd4>
    7488:	c7 01       	movw	r24, r14
    748a:	84 0d       	add	r24, r4
    748c:	95 1d       	adc	r25, r5
    748e:	b5 01       	movw	r22, r10
    7490:	0e 94 f6 53 	call	0xa7ec	; 0xa7ec <__divmodhi4>
    7494:	88 2e       	mov	r8, r24
    7496:	79 2e       	mov	r7, r25
    7498:	0f ef       	ldi	r16, 0xFF	; 255
    749a:	1f ef       	ldi	r17, 0xFF	; 255
    749c:	e1 cf       	rjmp	.-62     	; 0x7460 <gol_count_neighbors+0x96>
    749e:	8d 2d       	mov	r24, r13
    74a0:	0f 90       	pop	r0
    74a2:	0f 90       	pop	r0
    74a4:	0f 90       	pop	r0
    74a6:	0f 90       	pop	r0
    74a8:	df 91       	pop	r29
    74aa:	cf 91       	pop	r28
    74ac:	1f 91       	pop	r17
    74ae:	0f 91       	pop	r16
    74b0:	ff 90       	pop	r15
    74b2:	ef 90       	pop	r14
    74b4:	df 90       	pop	r13
    74b6:	cf 90       	pop	r12
    74b8:	bf 90       	pop	r11
    74ba:	af 90       	pop	r10
    74bc:	9f 90       	pop	r9
    74be:	8f 90       	pop	r8
    74c0:	7f 90       	pop	r7
    74c2:	5f 90       	pop	r5
    74c4:	4f 90       	pop	r4
    74c6:	3f 90       	pop	r3
    74c8:	2f 90       	pop	r2
    74ca:	08 95       	ret

000074cc <gol_nextgen>:
    74cc:	cf 92       	push	r12
    74ce:	df 92       	push	r13
    74d0:	ef 92       	push	r14
    74d2:	ff 92       	push	r15
    74d4:	1f 93       	push	r17
    74d6:	cf 93       	push	r28
    74d8:	df 93       	push	r29
    74da:	80 e0       	ldi	r24, 0x00	; 0
    74dc:	0e 94 9f 24 	call	0x493e	; 0x493e <tmpfill>
    74e0:	cc 24       	eor	r12, r12
    74e2:	dd 24       	eor	r13, r13
    74e4:	33 c0       	rjmp	.+102    	; 0x754c <gol_nextgen+0x80>
    74e6:	c6 01       	movw	r24, r12
    74e8:	b7 01       	movw	r22, r14
    74ea:	ae 01       	movw	r20, r28
    74ec:	0e 94 e5 39 	call	0x73ca	; 0x73ca <gol_count_neighbors>
    74f0:	18 2f       	mov	r17, r24
    74f2:	c6 01       	movw	r24, r12
    74f4:	b7 01       	movw	r22, r14
    74f6:	ae 01       	movw	r20, r28
    74f8:	0e 94 60 23 	call	0x46c0	; 0x46c0 <getvoxel>
    74fc:	81 30       	cpi	r24, 0x01	; 1
    74fe:	51 f4       	brne	.+20     	; 0x7514 <gol_nextgen+0x48>
    7500:	c6 01       	movw	r24, r12
    7502:	b7 01       	movw	r22, r14
    7504:	ae 01       	movw	r20, r28
    7506:	12 30       	cpi	r17, 0x02	; 2
    7508:	10 f0       	brcs	.+4      	; 0x750e <gol_nextgen+0x42>
    750a:	14 30       	cpi	r17, 0x04	; 4
    750c:	40 f0       	brcs	.+16     	; 0x751e <gol_nextgen+0x52>
    750e:	0e 94 ca 22 	call	0x4594	; 0x4594 <tmpclrvoxel>
    7512:	07 c0       	rjmp	.+14     	; 0x7522 <gol_nextgen+0x56>
    7514:	13 30       	cpi	r17, 0x03	; 3
    7516:	29 f4       	brne	.+10     	; 0x7522 <gol_nextgen+0x56>
    7518:	c6 01       	movw	r24, r12
    751a:	b7 01       	movw	r22, r14
    751c:	ae 01       	movw	r20, r28
    751e:	0e 94 16 23 	call	0x462c	; 0x462c <tmpsetvoxel>
    7522:	21 96       	adiw	r28, 0x01	; 1
    7524:	c8 30       	cpi	r28, 0x08	; 8
    7526:	d1 05       	cpc	r29, r1
    7528:	f1 f6       	brne	.-68     	; 0x74e6 <gol_nextgen+0x1a>
    752a:	08 94       	sec
    752c:	e1 1c       	adc	r14, r1
    752e:	f1 1c       	adc	r15, r1
    7530:	88 e0       	ldi	r24, 0x08	; 8
    7532:	e8 16       	cp	r14, r24
    7534:	f1 04       	cpc	r15, r1
    7536:	19 f0       	breq	.+6      	; 0x753e <gol_nextgen+0x72>
    7538:	c0 e0       	ldi	r28, 0x00	; 0
    753a:	d0 e0       	ldi	r29, 0x00	; 0
    753c:	d4 cf       	rjmp	.-88     	; 0x74e6 <gol_nextgen+0x1a>
    753e:	08 94       	sec
    7540:	c1 1c       	adc	r12, r1
    7542:	d1 1c       	adc	r13, r1
    7544:	88 e0       	ldi	r24, 0x08	; 8
    7546:	c8 16       	cp	r12, r24
    7548:	d1 04       	cpc	r13, r1
    754a:	19 f0       	breq	.+6      	; 0x7552 <gol_nextgen+0x86>
    754c:	ee 24       	eor	r14, r14
    754e:	ff 24       	eor	r15, r15
    7550:	f3 cf       	rjmp	.-26     	; 0x7538 <gol_nextgen+0x6c>
    7552:	df 91       	pop	r29
    7554:	cf 91       	pop	r28
    7556:	1f 91       	pop	r17
    7558:	ff 90       	pop	r15
    755a:	ef 90       	pop	r14
    755c:	df 90       	pop	r13
    755e:	cf 90       	pop	r12
    7560:	08 95       	ret

00007562 <gol_count_changes>:
    7562:	cf 93       	push	r28
    7564:	20 e0       	ldi	r18, 0x00	; 0
    7566:	30 e0       	ldi	r19, 0x00	; 0
    7568:	40 e0       	ldi	r20, 0x00	; 0
    756a:	50 e0       	ldi	r21, 0x00	; 0
    756c:	18 c0       	rjmp	.+48     	; 0x759e <gol_count_changes+0x3c>
    756e:	bd 01       	movw	r22, r26
    7570:	68 0f       	add	r22, r24
    7572:	79 1f       	adc	r23, r25
    7574:	fb 01       	movw	r30, r22
    7576:	e0 59       	subi	r30, 0x90	; 144
    7578:	fe 4f       	sbci	r31, 0xFE	; 254
    757a:	c0 81       	ld	r28, Z
    757c:	fb 01       	movw	r30, r22
    757e:	e0 55       	subi	r30, 0x50	; 80
    7580:	fe 4f       	sbci	r31, 0xFE	; 254
    7582:	60 81       	ld	r22, Z
    7584:	c6 17       	cp	r28, r22
    7586:	11 f0       	breq	.+4      	; 0x758c <gol_count_changes+0x2a>
    7588:	4f 5f       	subi	r20, 0xFF	; 255
    758a:	5f 4f       	sbci	r21, 0xFF	; 255
    758c:	01 96       	adiw	r24, 0x01	; 1
    758e:	88 30       	cpi	r24, 0x08	; 8
    7590:	91 05       	cpc	r25, r1
    7592:	69 f7       	brne	.-38     	; 0x756e <gol_count_changes+0xc>
    7594:	2f 5f       	subi	r18, 0xFF	; 255
    7596:	3f 4f       	sbci	r19, 0xFF	; 255
    7598:	28 30       	cpi	r18, 0x08	; 8
    759a:	31 05       	cpc	r19, r1
    759c:	49 f0       	breq	.+18     	; 0x75b0 <gol_count_changes+0x4e>
    759e:	80 e0       	ldi	r24, 0x00	; 0
    75a0:	90 e0       	ldi	r25, 0x00	; 0
    75a2:	d9 01       	movw	r26, r18
    75a4:	f3 e0       	ldi	r31, 0x03	; 3
    75a6:	aa 0f       	add	r26, r26
    75a8:	bb 1f       	adc	r27, r27
    75aa:	fa 95       	dec	r31
    75ac:	e1 f7       	brne	.-8      	; 0x75a6 <gol_count_changes+0x44>
    75ae:	df cf       	rjmp	.-66     	; 0x756e <gol_count_changes+0xc>
    75b0:	ca 01       	movw	r24, r20
    75b2:	cf 91       	pop	r28
    75b4:	08 95       	ret

000075b6 <gol_play>:
    75b6:	df 92       	push	r13
    75b8:	ef 92       	push	r14
    75ba:	ff 92       	push	r15
    75bc:	0f 93       	push	r16
    75be:	1f 93       	push	r17
    75c0:	cf 93       	push	r28
    75c2:	df 93       	push	r29
    75c4:	7c 01       	movw	r14, r24
    75c6:	8b 01       	movw	r16, r22
    75c8:	c0 e0       	ldi	r28, 0x00	; 0
    75ca:	d0 e0       	ldi	r29, 0x00	; 0
    75cc:	a0 e2       	ldi	r26, 0x20	; 32
    75ce:	da 2e       	mov	r13, r26
    75d0:	0f c0       	rjmp	.+30     	; 0x75f0 <gol_play+0x3a>
    75d2:	8b b1       	in	r24, 0x0b	; 11
    75d4:	8d 25       	eor	r24, r13
    75d6:	8b b9       	out	0x0b, r24	; 11
    75d8:	0e 94 66 3a 	call	0x74cc	; 0x74cc <gol_nextgen>
    75dc:	0e 94 b1 3a 	call	0x7562	; 0x7562 <gol_count_changes>
    75e0:	00 97       	sbiw	r24, 0x00	; 0
    75e2:	49 f0       	breq	.+18     	; 0x75f6 <gol_play+0x40>
    75e4:	0e 94 b5 27 	call	0x4f6a	; 0x4f6a <tmp2cube>
    75e8:	c8 01       	movw	r24, r16
    75ea:	0e 94 a7 27 	call	0x4f4e	; 0x4f4e <delay_ms>
    75ee:	21 96       	adiw	r28, 0x01	; 1
    75f0:	ce 15       	cp	r28, r14
    75f2:	df 05       	cpc	r29, r15
    75f4:	74 f3       	brlt	.-36     	; 0x75d2 <gol_play+0x1c>
    75f6:	df 91       	pop	r29
    75f8:	cf 91       	pop	r28
    75fa:	1f 91       	pop	r17
    75fc:	0f 91       	pop	r16
    75fe:	ff 90       	pop	r15
    7600:	ef 90       	pop	r14
    7602:	df 90       	pop	r13
    7604:	08 95       	ret

00007606 <launch_effect>:
    7606:	cf 92       	push	r12
    7608:	df 92       	push	r13
    760a:	ef 92       	push	r14
    760c:	ff 92       	push	r15
    760e:	0f 93       	push	r16
    7610:	1f 93       	push	r17
    7612:	cf 93       	push	r28
    7614:	df 93       	push	r29
    7616:	ec 01       	movw	r28, r24
    7618:	80 e0       	ldi	r24, 0x00	; 0
    761a:	0e 94 87 24 	call	0x490e	; 0x490e <fill>
    761e:	c9 32       	cpi	r28, 0x29	; 41
    7620:	d1 05       	cpc	r29, r1
    7622:	08 f0       	brcs	.+2      	; 0x7626 <launch_effect+0x20>
    7624:	11 c2       	rjmp	.+1058   	; 0x7a48 <launch_effect+0x442>
    7626:	fe 01       	movw	r30, r28
    7628:	e0 56       	subi	r30, 0x60	; 96
    762a:	ff 4f       	sbci	r31, 0xFF	; 255
    762c:	ee 0f       	add	r30, r30
    762e:	ff 1f       	adc	r31, r31
    7630:	05 90       	lpm	r0, Z+
    7632:	f4 91       	lpm	r31, Z
    7634:	e0 2d       	mov	r30, r0
    7636:	09 94       	ijmp
    7638:	84 e6       	ldi	r24, 0x64	; 100
    763a:	90 e0       	ldi	r25, 0x00	; 0
    763c:	0e 94 43 30 	call	0x6086	; 0x6086 <effect_rain>
    7640:	07 c2       	rjmp	.+1038   	; 0x7a50 <launch_effect+0x44a>
    7642:	84 e1       	ldi	r24, 0x14	; 20
    7644:	90 e0       	ldi	r25, 0x00	; 0
    7646:	6c ed       	ldi	r22, 0xDC	; 220
    7648:	70 e0       	ldi	r23, 0x00	; 0
    764a:	40 ed       	ldi	r20, 0xD0	; 208
    764c:	57 e0       	ldi	r21, 0x07	; 7
    764e:	0e 94 69 2c 	call	0x58d2	; 0x58d2 <sendvoxels_rand_z>
    7652:	fe c1       	rjmp	.+1020   	; 0x7a50 <launch_effect+0x44a>
    7654:	85 e0       	ldi	r24, 0x05	; 5
    7656:	90 e0       	ldi	r25, 0x00	; 0
    7658:	61 e0       	ldi	r22, 0x01	; 1
    765a:	70 e0       	ldi	r23, 0x00	; 0
    765c:	0e 94 cb 2f 	call	0x5f96	; 0x5f96 <effect_random_filler>
    7660:	85 e0       	ldi	r24, 0x05	; 5
    7662:	90 e0       	ldi	r25, 0x00	; 0
    7664:	60 e0       	ldi	r22, 0x00	; 0
    7666:	70 e0       	ldi	r23, 0x00	; 0
    7668:	0e 94 cb 2f 	call	0x5f96	; 0x5f96 <effect_random_filler>
    766c:	85 e0       	ldi	r24, 0x05	; 5
    766e:	90 e0       	ldi	r25, 0x00	; 0
    7670:	61 e0       	ldi	r22, 0x01	; 1
    7672:	70 e0       	ldi	r23, 0x00	; 0
    7674:	0e 94 cb 2f 	call	0x5f96	; 0x5f96 <effect_random_filler>
    7678:	85 e0       	ldi	r24, 0x05	; 5
    767a:	90 e0       	ldi	r25, 0x00	; 0
    767c:	60 e0       	ldi	r22, 0x00	; 0
    767e:	70 e0       	ldi	r23, 0x00	; 0
    7680:	0e 94 cb 2f 	call	0x5f96	; 0x5f96 <effect_random_filler>
    7684:	e5 c1       	rjmp	.+970    	; 0x7a50 <launch_effect+0x44a>
    7686:	84 e1       	ldi	r24, 0x14	; 20
    7688:	90 e0       	ldi	r25, 0x00	; 0
    768a:	68 ee       	ldi	r22, 0xE8	; 232
    768c:	73 e0       	ldi	r23, 0x03	; 3
    768e:	0e 94 d3 31 	call	0x63a6	; 0x63a6 <effect_z_updown>
    7692:	de c1       	rjmp	.+956    	; 0x7a50 <launch_effect+0x44a>
    7694:	82 e0       	ldi	r24, 0x02	; 2
    7696:	90 e0       	ldi	r25, 0x00	; 0
    7698:	87 c1       	rjmp	.+782    	; 0x79a8 <launch_effect+0x3a2>
    769a:	0e 94 9b 2a 	call	0x5536	; 0x5536 <effect_blinky2>
    769e:	d8 c1       	rjmp	.+944    	; 0x7a50 <launch_effect+0x44a>
    76a0:	c0 e0       	ldi	r28, 0x00	; 0
    76a2:	d0 e0       	ldi	r29, 0x00	; 0
    76a4:	be 01       	movw	r22, r28
    76a6:	63 70       	andi	r22, 0x03	; 3
    76a8:	70 70       	andi	r23, 0x00	; 0
    76aa:	ae 01       	movw	r20, r28
    76ac:	44 70       	andi	r20, 0x04	; 4
    76ae:	50 70       	andi	r21, 0x00	; 0
    76b0:	81 e0       	ldi	r24, 0x01	; 1
    76b2:	90 e0       	ldi	r25, 0x00	; 0
    76b4:	22 ec       	ldi	r18, 0xC2	; 194
    76b6:	31 e0       	ldi	r19, 0x01	; 1
    76b8:	0e 94 06 2b 	call	0x560c	; 0x560c <effect_box_shrink_grow>
    76bc:	21 96       	adiw	r28, 0x01	; 1
    76be:	c8 30       	cpi	r28, 0x08	; 8
    76c0:	d1 05       	cpc	r29, r1
    76c2:	81 f7       	brne	.-32     	; 0x76a4 <launch_effect+0x9e>
    76c4:	80 e2       	ldi	r24, 0x20	; 32
    76c6:	93 e0       	ldi	r25, 0x03	; 3
    76c8:	60 e0       	ldi	r22, 0x00	; 0
    76ca:	70 e0       	ldi	r23, 0x00	; 0
    76cc:	0e 94 93 2b 	call	0x5726	; 0x5726 <effect_box_woopwoop>
    76d0:	80 e2       	ldi	r24, 0x20	; 32
    76d2:	93 e0       	ldi	r25, 0x03	; 3
    76d4:	61 e0       	ldi	r22, 0x01	; 1
    76d6:	70 e0       	ldi	r23, 0x00	; 0
    76d8:	0e 94 93 2b 	call	0x5726	; 0x5726 <effect_box_woopwoop>
    76dc:	80 e2       	ldi	r24, 0x20	; 32
    76de:	93 e0       	ldi	r25, 0x03	; 3
    76e0:	60 e0       	ldi	r22, 0x00	; 0
    76e2:	70 e0       	ldi	r23, 0x00	; 0
    76e4:	0e 94 93 2b 	call	0x5726	; 0x5726 <effect_box_woopwoop>
    76e8:	80 e2       	ldi	r24, 0x20	; 32
    76ea:	93 e0       	ldi	r25, 0x03	; 3
    76ec:	61 e0       	ldi	r22, 0x01	; 1
    76ee:	70 e0       	ldi	r23, 0x00	; 0
    76f0:	0e 94 93 2b 	call	0x5726	; 0x5726 <effect_box_woopwoop>
    76f4:	ad c1       	rjmp	.+858    	; 0x7a50 <launch_effect+0x44a>
    76f6:	8a e7       	ldi	r24, 0x7A	; 122
    76f8:	90 e0       	ldi	r25, 0x00	; 0
    76fa:	60 e9       	ldi	r22, 0x90	; 144
    76fc:	71 e0       	ldi	r23, 0x01	; 1
    76fe:	0e 94 72 2a 	call	0x54e4	; 0x54e4 <effect_planboing>
    7702:	88 e7       	ldi	r24, 0x78	; 120
    7704:	90 e0       	ldi	r25, 0x00	; 0
    7706:	60 e9       	ldi	r22, 0x90	; 144
    7708:	71 e0       	ldi	r23, 0x01	; 1
    770a:	0e 94 72 2a 	call	0x54e4	; 0x54e4 <effect_planboing>
    770e:	89 e7       	ldi	r24, 0x79	; 121
    7710:	90 e0       	ldi	r25, 0x00	; 0
    7712:	60 e9       	ldi	r22, 0x90	; 144
    7714:	71 e0       	ldi	r23, 0x01	; 1
    7716:	0e 94 72 2a 	call	0x54e4	; 0x54e4 <effect_planboing>
    771a:	8a e7       	ldi	r24, 0x7A	; 122
    771c:	90 e0       	ldi	r25, 0x00	; 0
    771e:	60 e9       	ldi	r22, 0x90	; 144
    7720:	71 e0       	ldi	r23, 0x01	; 1
    7722:	0e 94 72 2a 	call	0x54e4	; 0x54e4 <effect_planboing>
    7726:	88 e7       	ldi	r24, 0x78	; 120
    7728:	90 e0       	ldi	r25, 0x00	; 0
    772a:	60 e9       	ldi	r22, 0x90	; 144
    772c:	71 e0       	ldi	r23, 0x01	; 1
    772e:	0e 94 72 2a 	call	0x54e4	; 0x54e4 <effect_planboing>
    7732:	89 e7       	ldi	r24, 0x79	; 121
    7734:	90 e0       	ldi	r25, 0x00	; 0
    7736:	60 e9       	ldi	r22, 0x90	; 144
    7738:	71 e0       	ldi	r23, 0x01	; 1
    773a:	0e 94 72 2a 	call	0x54e4	; 0x54e4 <effect_planboing>
    773e:	80 e0       	ldi	r24, 0x00	; 0
    7740:	0e 94 87 24 	call	0x490e	; 0x490e <fill>
    7744:	85 c1       	rjmp	.+778    	; 0x7a50 <launch_effect+0x44a>
    7746:	80 e0       	ldi	r24, 0x00	; 0
    7748:	0e 94 87 24 	call	0x490e	; 0x490e <fill>
    774c:	80 e0       	ldi	r24, 0x00	; 0
    774e:	90 e0       	ldi	r25, 0x00	; 0
    7750:	60 e2       	ldi	r22, 0x20	; 32
    7752:	73 e0       	ldi	r23, 0x03	; 3
    7754:	4f ef       	ldi	r20, 0xFF	; 255
    7756:	50 e0       	ldi	r21, 0x00	; 0
    7758:	0e 94 23 34 	call	0x6846	; 0x6846 <effect_telcstairs>
    775c:	80 e0       	ldi	r24, 0x00	; 0
    775e:	90 e0       	ldi	r25, 0x00	; 0
    7760:	60 e2       	ldi	r22, 0x20	; 32
    7762:	73 e0       	ldi	r23, 0x03	; 3
    7764:	40 e0       	ldi	r20, 0x00	; 0
    7766:	50 e0       	ldi	r21, 0x00	; 0
    7768:	0e 94 23 34 	call	0x6846	; 0x6846 <effect_telcstairs>
    776c:	81 e0       	ldi	r24, 0x01	; 1
    776e:	90 e0       	ldi	r25, 0x00	; 0
    7770:	60 e2       	ldi	r22, 0x20	; 32
    7772:	73 e0       	ldi	r23, 0x03	; 3
    7774:	4f ef       	ldi	r20, 0xFF	; 255
    7776:	50 e0       	ldi	r21, 0x00	; 0
    7778:	0e 94 23 34 	call	0x6846	; 0x6846 <effect_telcstairs>
    777c:	81 e0       	ldi	r24, 0x01	; 1
    777e:	90 e0       	ldi	r25, 0x00	; 0
    7780:	60 e2       	ldi	r22, 0x20	; 32
    7782:	73 e0       	ldi	r23, 0x03	; 3
    7784:	4f ef       	ldi	r20, 0xFF	; 255
    7786:	50 e0       	ldi	r21, 0x00	; 0
    7788:	0e 94 23 34 	call	0x6846	; 0x6846 <effect_telcstairs>
    778c:	61 c1       	rjmp	.+706    	; 0x7a50 <launch_effect+0x44a>
    778e:	8a e7       	ldi	r24, 0x7A	; 122
    7790:	66 e2       	ldi	r22, 0x26	; 38
    7792:	72 e0       	ldi	r23, 0x02	; 2
    7794:	48 e8       	ldi	r20, 0x88	; 136
    7796:	53 e1       	ldi	r21, 0x13	; 19
    7798:	20 e0       	ldi	r18, 0x00	; 0
    779a:	30 e0       	ldi	r19, 0x00	; 0
    779c:	0e 94 00 31 	call	0x6200	; 0x6200 <effect_axis_updown_randsuspend>
    77a0:	8a e7       	ldi	r24, 0x7A	; 122
    77a2:	66 e2       	ldi	r22, 0x26	; 38
    77a4:	72 e0       	ldi	r23, 0x02	; 2
    77a6:	48 e8       	ldi	r20, 0x88	; 136
    77a8:	53 e1       	ldi	r21, 0x13	; 19
    77aa:	21 e0       	ldi	r18, 0x01	; 1
    77ac:	30 e0       	ldi	r19, 0x00	; 0
    77ae:	0e 94 00 31 	call	0x6200	; 0x6200 <effect_axis_updown_randsuspend>
    77b2:	8a e7       	ldi	r24, 0x7A	; 122
    77b4:	66 e2       	ldi	r22, 0x26	; 38
    77b6:	72 e0       	ldi	r23, 0x02	; 2
    77b8:	48 e8       	ldi	r20, 0x88	; 136
    77ba:	53 e1       	ldi	r21, 0x13	; 19
    77bc:	20 e0       	ldi	r18, 0x00	; 0
    77be:	30 e0       	ldi	r19, 0x00	; 0
    77c0:	0e 94 00 31 	call	0x6200	; 0x6200 <effect_axis_updown_randsuspend>
    77c4:	8a e7       	ldi	r24, 0x7A	; 122
    77c6:	66 e2       	ldi	r22, 0x26	; 38
    77c8:	72 e0       	ldi	r23, 0x02	; 2
    77ca:	48 e8       	ldi	r20, 0x88	; 136
    77cc:	53 e1       	ldi	r21, 0x13	; 19
    77ce:	21 e0       	ldi	r18, 0x01	; 1
    77d0:	30 e0       	ldi	r19, 0x00	; 0
    77d2:	0e 94 00 31 	call	0x6200	; 0x6200 <effect_axis_updown_randsuspend>
    77d6:	88 e7       	ldi	r24, 0x78	; 120
    77d8:	66 e2       	ldi	r22, 0x26	; 38
    77da:	72 e0       	ldi	r23, 0x02	; 2
    77dc:	48 e8       	ldi	r20, 0x88	; 136
    77de:	53 e1       	ldi	r21, 0x13	; 19
    77e0:	20 e0       	ldi	r18, 0x00	; 0
    77e2:	30 e0       	ldi	r19, 0x00	; 0
    77e4:	0e 94 00 31 	call	0x6200	; 0x6200 <effect_axis_updown_randsuspend>
    77e8:	88 e7       	ldi	r24, 0x78	; 120
    77ea:	66 e2       	ldi	r22, 0x26	; 38
    77ec:	72 e0       	ldi	r23, 0x02	; 2
    77ee:	48 e8       	ldi	r20, 0x88	; 136
    77f0:	53 e1       	ldi	r21, 0x13	; 19
    77f2:	21 e0       	ldi	r18, 0x01	; 1
    77f4:	30 e0       	ldi	r19, 0x00	; 0
    77f6:	0e 94 00 31 	call	0x6200	; 0x6200 <effect_axis_updown_randsuspend>
    77fa:	89 e7       	ldi	r24, 0x79	; 121
    77fc:	66 e2       	ldi	r22, 0x26	; 38
    77fe:	72 e0       	ldi	r23, 0x02	; 2
    7800:	48 e8       	ldi	r20, 0x88	; 136
    7802:	53 e1       	ldi	r21, 0x13	; 19
    7804:	20 e0       	ldi	r18, 0x00	; 0
    7806:	30 e0       	ldi	r19, 0x00	; 0
    7808:	0e 94 00 31 	call	0x6200	; 0x6200 <effect_axis_updown_randsuspend>
    780c:	89 e7       	ldi	r24, 0x79	; 121
    780e:	66 e2       	ldi	r22, 0x26	; 38
    7810:	72 e0       	ldi	r23, 0x02	; 2
    7812:	48 e8       	ldi	r20, 0x88	; 136
    7814:	53 e1       	ldi	r21, 0x13	; 19
    7816:	21 e0       	ldi	r18, 0x01	; 1
    7818:	30 e0       	ldi	r19, 0x00	; 0
    781a:	0e 94 00 31 	call	0x6200	; 0x6200 <effect_axis_updown_randsuspend>
    781e:	18 c1       	rjmp	.+560    	; 0x7a50 <launch_effect+0x44a>
    7820:	8c eb       	ldi	r24, 0xBC	; 188
    7822:	92 e0       	ldi	r25, 0x02	; 2
    7824:	0e 94 3c 33 	call	0x6678	; 0x6678 <effect_loadbar>
    7828:	13 c1       	rjmp	.+550    	; 0x7a50 <launch_effect+0x44a>
    782a:	81 e0       	ldi	r24, 0x01	; 1
    782c:	90 e0       	ldi	r25, 0x00	; 0
    782e:	6a e7       	ldi	r22, 0x7A	; 122
    7830:	70 e0       	ldi	r23, 0x00	; 0
    7832:	41 e0       	ldi	r20, 0x01	; 1
    7834:	50 e0       	ldi	r21, 0x00	; 0
    7836:	24 e6       	ldi	r18, 0x64	; 100
    7838:	30 e0       	ldi	r19, 0x00	; 0
    783a:	08 ee       	ldi	r16, 0xE8	; 232
    783c:	13 e0       	ldi	r17, 0x03	; 3
    783e:	0e 94 44 34 	call	0x6888	; 0x6888 <effect_wormsqueeze>
    7842:	06 c1       	rjmp	.+524    	; 0x7a50 <launch_effect+0x44a>
    7844:	8d e2       	ldi	r24, 0x2D	; 45
    7846:	91 e0       	ldi	r25, 0x01	; 1
    7848:	01 c1       	rjmp	.+514    	; 0x7a4c <launch_effect+0x446>
    784a:	80 e0       	ldi	r24, 0x00	; 0
    784c:	0e 94 87 24 	call	0x490e	; 0x490e <fill>
    7850:	c4 e1       	ldi	r28, 0x14	; 20
    7852:	d0 e0       	ldi	r29, 0x00	; 0
    7854:	04 e0       	ldi	r16, 0x04	; 4
    7856:	10 e0       	ldi	r17, 0x00	; 0
    7858:	0e 94 72 54 	call	0xa8e4	; 0xa8e4 <rand>
    785c:	7c 01       	movw	r14, r24
    785e:	0e 94 72 54 	call	0xa8e4	; 0xa8e4 <rand>
    7862:	6c 01       	movw	r12, r24
    7864:	0e 94 72 54 	call	0xa8e4	; 0xa8e4 <rand>
    7868:	9c 01       	movw	r18, r24
    786a:	c7 01       	movw	r24, r14
    786c:	b8 01       	movw	r22, r16
    786e:	0e 94 f6 53 	call	0xa7ec	; 0xa7ec <__divmodhi4>
    7872:	fc 01       	movw	r30, r24
    7874:	c6 01       	movw	r24, r12
    7876:	b8 01       	movw	r22, r16
    7878:	0e 94 f6 53 	call	0xa7ec	; 0xa7ec <__divmodhi4>
    787c:	7c 01       	movw	r14, r24
    787e:	c9 01       	movw	r24, r18
    7880:	b8 01       	movw	r22, r16
    7882:	0e 94 f6 53 	call	0xa7ec	; 0xa7ec <__divmodhi4>
    7886:	ac 01       	movw	r20, r24
    7888:	cf 01       	movw	r24, r30
    788a:	b7 01       	movw	r22, r14
    788c:	0e 94 3b 23 	call	0x4676	; 0x4676 <setvoxel>
    7890:	21 97       	sbiw	r28, 0x01	; 1
    7892:	11 f7       	brne	.-60     	; 0x7858 <launch_effect+0x252>
    7894:	84 e1       	ldi	r24, 0x14	; 20
    7896:	90 e0       	ldi	r25, 0x00	; 0
    7898:	60 e9       	ldi	r22, 0x90	; 144
    789a:	71 e0       	ldi	r23, 0x01	; 1
    789c:	0e 94 db 3a 	call	0x75b6	; 0x75b6 <gol_play>
    78a0:	d7 c0       	rjmp	.+430    	; 0x7a50 <launch_effect+0x44a>
    78a2:	8a e7       	ldi	r24, 0x7A	; 122
    78a4:	60 e0       	ldi	r22, 0x00	; 0
    78a6:	70 e0       	ldi	r23, 0x00	; 0
    78a8:	48 ec       	ldi	r20, 0xC8	; 200
    78aa:	50 e0       	ldi	r21, 0x00	; 0
    78ac:	21 e0       	ldi	r18, 0x01	; 1
    78ae:	30 e0       	ldi	r19, 0x00	; 0
    78b0:	0e 94 82 32 	call	0x6504	; 0x6504 <effect_boxside_randsend_parallel>
    78b4:	8c ed       	ldi	r24, 0xDC	; 220
    78b6:	95 e0       	ldi	r25, 0x05	; 5
    78b8:	0e 94 a7 27 	call	0x4f4e	; 0x4f4e <delay_ms>
    78bc:	8a e7       	ldi	r24, 0x7A	; 122
    78be:	61 e0       	ldi	r22, 0x01	; 1
    78c0:	70 e0       	ldi	r23, 0x00	; 0
    78c2:	48 ec       	ldi	r20, 0xC8	; 200
    78c4:	50 e0       	ldi	r21, 0x00	; 0
    78c6:	21 e0       	ldi	r18, 0x01	; 1
    78c8:	30 e0       	ldi	r19, 0x00	; 0
    78ca:	0e 94 82 32 	call	0x6504	; 0x6504 <effect_boxside_randsend_parallel>
    78ce:	8c ed       	ldi	r24, 0xDC	; 220
    78d0:	95 e0       	ldi	r25, 0x05	; 5
    78d2:	0e 94 a7 27 	call	0x4f4e	; 0x4f4e <delay_ms>
    78d6:	8a e7       	ldi	r24, 0x7A	; 122
    78d8:	60 e0       	ldi	r22, 0x00	; 0
    78da:	70 e0       	ldi	r23, 0x00	; 0
    78dc:	48 ec       	ldi	r20, 0xC8	; 200
    78de:	50 e0       	ldi	r21, 0x00	; 0
    78e0:	22 e0       	ldi	r18, 0x02	; 2
    78e2:	30 e0       	ldi	r19, 0x00	; 0
    78e4:	0e 94 82 32 	call	0x6504	; 0x6504 <effect_boxside_randsend_parallel>
    78e8:	8c ed       	ldi	r24, 0xDC	; 220
    78ea:	95 e0       	ldi	r25, 0x05	; 5
    78ec:	0e 94 a7 27 	call	0x4f4e	; 0x4f4e <delay_ms>
    78f0:	8a e7       	ldi	r24, 0x7A	; 122
    78f2:	61 e0       	ldi	r22, 0x01	; 1
    78f4:	70 e0       	ldi	r23, 0x00	; 0
    78f6:	48 ec       	ldi	r20, 0xC8	; 200
    78f8:	50 e0       	ldi	r21, 0x00	; 0
    78fa:	22 e0       	ldi	r18, 0x02	; 2
    78fc:	30 e0       	ldi	r19, 0x00	; 0
    78fe:	0e 94 82 32 	call	0x6504	; 0x6504 <effect_boxside_randsend_parallel>
    7902:	8c ed       	ldi	r24, 0xDC	; 220
    7904:	95 e0       	ldi	r25, 0x05	; 5
    7906:	0e 94 a7 27 	call	0x4f4e	; 0x4f4e <delay_ms>
    790a:	89 e7       	ldi	r24, 0x79	; 121
    790c:	60 e0       	ldi	r22, 0x00	; 0
    790e:	70 e0       	ldi	r23, 0x00	; 0
    7910:	48 ec       	ldi	r20, 0xC8	; 200
    7912:	50 e0       	ldi	r21, 0x00	; 0
    7914:	21 e0       	ldi	r18, 0x01	; 1
    7916:	30 e0       	ldi	r19, 0x00	; 0
    7918:	0e 94 82 32 	call	0x6504	; 0x6504 <effect_boxside_randsend_parallel>
    791c:	8c ed       	ldi	r24, 0xDC	; 220
    791e:	95 e0       	ldi	r25, 0x05	; 5
    7920:	0e 94 a7 27 	call	0x4f4e	; 0x4f4e <delay_ms>
    7924:	89 e7       	ldi	r24, 0x79	; 121
    7926:	61 e0       	ldi	r22, 0x01	; 1
    7928:	70 e0       	ldi	r23, 0x00	; 0
    792a:	48 ec       	ldi	r20, 0xC8	; 200
    792c:	50 e0       	ldi	r21, 0x00	; 0
    792e:	21 e0       	ldi	r18, 0x01	; 1
    7930:	30 e0       	ldi	r19, 0x00	; 0
    7932:	0e 94 82 32 	call	0x6504	; 0x6504 <effect_boxside_randsend_parallel>
    7936:	8c ed       	ldi	r24, 0xDC	; 220
    7938:	95 e0       	ldi	r25, 0x05	; 5
    793a:	0e 94 a7 27 	call	0x4f4e	; 0x4f4e <delay_ms>
    793e:	88 c0       	rjmp	.+272    	; 0x7a50 <launch_effect+0x44a>
    7940:	8a ef       	ldi	r24, 0xFA	; 250
    7942:	90 e0       	ldi	r25, 0x00	; 0
    7944:	68 e5       	ldi	r22, 0x58	; 88
    7946:	72 e0       	ldi	r23, 0x02	; 2
    7948:	41 e0       	ldi	r20, 0x01	; 1
    794a:	22 e0       	ldi	r18, 0x02	; 2
    794c:	41 c0       	rjmp	.+130    	; 0x79d0 <launch_effect+0x3ca>
    794e:	82 e0       	ldi	r24, 0x02	; 2
    7950:	90 e0       	ldi	r25, 0x00	; 0
    7952:	68 ee       	ldi	r22, 0xE8	; 232
    7954:	73 e0       	ldi	r23, 0x03	; 3
    7956:	40 e0       	ldi	r20, 0x00	; 0
    7958:	14 c0       	rjmp	.+40     	; 0x7982 <launch_effect+0x37c>
    795a:	84 e6       	ldi	r24, 0x64	; 100
    795c:	90 e0       	ldi	r25, 0x00	; 0
    795e:	64 ef       	ldi	r22, 0xF4	; 244
    7960:	71 e0       	ldi	r23, 0x01	; 1
    7962:	0e 94 e5 37 	call	0x6fca	; 0x6fca <effect_pathspiral>
    7966:	74 c0       	rjmp	.+232    	; 0x7a50 <launch_effect+0x44a>
    7968:	8c eb       	ldi	r24, 0xBC	; 188
    796a:	92 e0       	ldi	r25, 0x02	; 2
    796c:	62 e0       	ldi	r22, 0x02	; 2
    796e:	43 e0       	ldi	r20, 0x03	; 3
    7970:	50 e0       	ldi	r21, 0x00	; 0
    7972:	0e 94 d8 38 	call	0x71b0	; 0x71b0 <effect_path_bitmap>
    7976:	6c c0       	rjmp	.+216    	; 0x7a50 <launch_effect+0x44a>
    7978:	82 e0       	ldi	r24, 0x02	; 2
    797a:	90 e0       	ldi	r25, 0x00	; 0
    797c:	68 ee       	ldi	r22, 0xE8	; 232
    797e:	73 e0       	ldi	r23, 0x03	; 3
    7980:	41 e0       	ldi	r20, 0x01	; 1
    7982:	0e 94 24 35 	call	0x6a48	; 0x6a48 <effect_smileyspin>
    7986:	64 c0       	rjmp	.+200    	; 0x7a50 <launch_effect+0x44a>
    7988:	88 ee       	ldi	r24, 0xE8	; 232
    798a:	93 e0       	ldi	r25, 0x03	; 3
    798c:	6b e3       	ldi	r22, 0x3B	; 59
    798e:	71 e0       	ldi	r23, 0x01	; 1
    7990:	0e 94 3b 38 	call	0x7076	; 0x7076 <effect_path_text>
    7994:	5d c0       	rjmp	.+186    	; 0x7a50 <launch_effect+0x44a>
    7996:	88 ec       	ldi	r24, 0xC8	; 200
    7998:	90 e0       	ldi	r25, 0x00	; 0
    799a:	64 ef       	ldi	r22, 0xF4	; 244
    799c:	71 e0       	ldi	r23, 0x01	; 1
    799e:	0e 94 79 37 	call	0x6ef2	; 0x6ef2 <effect_rand_patharound>
    79a2:	56 c0       	rjmp	.+172    	; 0x7a50 <launch_effect+0x44a>
    79a4:	81 e0       	ldi	r24, 0x01	; 1
    79a6:	90 e0       	ldi	r25, 0x00	; 0
    79a8:	6a e7       	ldi	r22, 0x7A	; 122
    79aa:	70 e0       	ldi	r23, 0x00	; 0
    79ac:	4f ef       	ldi	r20, 0xFF	; 255
    79ae:	5f ef       	ldi	r21, 0xFF	; 255
    79b0:	42 cf       	rjmp	.-380    	; 0x7836 <launch_effect+0x230>
    79b2:	82 e0       	ldi	r24, 0x02	; 2
    79b4:	90 e0       	ldi	r25, 0x00	; 0
    79b6:	68 ee       	ldi	r22, 0xE8	; 232
    79b8:	73 e0       	ldi	r23, 0x03	; 3
    79ba:	42 e0       	ldi	r20, 0x02	; 2
    79bc:	e2 cf       	rjmp	.-60     	; 0x7982 <launch_effect+0x37c>
    79be:	0e 94 e3 33 	call	0x67c6	; 0x67c6 <effect_random_sparkle>
    79c2:	46 c0       	rjmp	.+140    	; 0x7a50 <launch_effect+0x44a>
    79c4:	8a ef       	ldi	r24, 0xFA	; 250
    79c6:	90 e0       	ldi	r25, 0x00	; 0
    79c8:	68 e5       	ldi	r22, 0x58	; 88
    79ca:	72 e0       	ldi	r23, 0x02	; 2
    79cc:	41 e0       	ldi	r20, 0x01	; 1
    79ce:	23 e0       	ldi	r18, 0x03	; 3
    79d0:	0e 94 ee 2c 	call	0x59dc	; 0x59dc <boingboing>
    79d4:	3d c0       	rjmp	.+122    	; 0x7a50 <launch_effect+0x44a>
    79d6:	8f e3       	ldi	r24, 0x3F	; 63
    79d8:	91 e0       	ldi	r25, 0x01	; 1
    79da:	0e 94 54 18 	call	0x30a8	; 0x30a8 <cube_string_belt>
    79de:	31 c0       	rjmp	.+98     	; 0x7a42 <launch_effect+0x43c>
    79e0:	86 e5       	ldi	r24, 0x56	; 86
    79e2:	91 e0       	ldi	r25, 0x01	; 1
    79e4:	0e 94 ae 18 	call	0x315c	; 0x315c <cube_string_to_front>
    79e8:	29 c0       	rjmp	.+82     	; 0x7a3c <launch_effect+0x436>
    79ea:	0e 94 fa 0f 	call	0x1ff4	; 0x1ff4 <cube_walking>
    79ee:	02 c0       	rjmp	.+4      	; 0x79f4 <launch_effect+0x3ee>
    79f0:	0e 94 98 18 	call	0x3130	; 0x3130 <cube_fixed_string>
    79f4:	0e 94 ef 1c 	call	0x39de	; 0x39de <cube_block_wipe>
    79f8:	2b c0       	rjmp	.+86     	; 0x7a50 <launch_effect+0x44a>
    79fa:	0e 94 0c 13 	call	0x2618	; 0x2618 <cube_2_auto>
    79fe:	0e 94 0c 17 	call	0x2e18	; 0x2e18 <cube_wipe>
    7a02:	26 c0       	rjmp	.+76     	; 0x7a50 <launch_effect+0x44a>
    7a04:	0e 94 3a 10 	call	0x2074	; 0x2074 <cube_stripes>
    7a08:	19 c0       	rjmp	.+50     	; 0x7a3c <launch_effect+0x436>
    7a0a:	0e 94 bc 21 	call	0x4378	; 0x4378 <cube_invaders>
    7a0e:	20 c0       	rjmp	.+64     	; 0x7a50 <launch_effect+0x44a>
    7a10:	0e 94 e1 19 	call	0x33c2	; 0x33c2 <cube_waves>
    7a14:	16 c0       	rjmp	.+44     	; 0x7a42 <launch_effect+0x43c>
    7a16:	0e 94 c1 15 	call	0x2b82	; 0x2b82 <outline_shrink>
    7a1a:	13 c0       	rjmp	.+38     	; 0x7a42 <launch_effect+0x43c>
    7a1c:	81 e6       	ldi	r24, 0x61	; 97
    7a1e:	91 e0       	ldi	r25, 0x01	; 1
    7a20:	0e 94 f2 1d 	call	0x3be4	; 0x3be4 <cube_string>
    7a24:	15 c0       	rjmp	.+42     	; 0x7a50 <launch_effect+0x44a>
    7a26:	0e 94 03 15 	call	0x2a06	; 0x2a06 <cubes_4>
    7a2a:	08 c0       	rjmp	.+16     	; 0x7a3c <launch_effect+0x436>
    7a2c:	0e 94 dd 18 	call	0x31ba	; 0x31ba <cube_outline>
    7a30:	08 c0       	rjmp	.+16     	; 0x7a42 <launch_effect+0x43c>
    7a32:	0e 94 a0 19 	call	0x3340	; 0x3340 <cube_stars>
    7a36:	05 c0       	rjmp	.+10     	; 0x7a42 <launch_effect+0x43c>
    7a38:	0e 94 bd 1a 	call	0x357a	; 0x357a <cube_sonic>
    7a3c:	0e 94 31 1d 	call	0x3a62	; 0x3a62 <cube_belt_wipe>
    7a40:	07 c0       	rjmp	.+14     	; 0x7a50 <launch_effect+0x44a>
    7a42:	0e 94 23 16 	call	0x2c46	; 0x2c46 <cube_explosion>
    7a46:	04 c0       	rjmp	.+8      	; 0x7a50 <launch_effect+0x44a>
    7a48:	84 e6       	ldi	r24, 0x64	; 100
    7a4a:	91 e0       	ldi	r25, 0x01	; 1
    7a4c:	0e 94 ec 29 	call	0x53d8	; 0x53d8 <effect_stringfly2>
    7a50:	df 91       	pop	r29
    7a52:	cf 91       	pop	r28
    7a54:	1f 91       	pop	r17
    7a56:	0f 91       	pop	r16
    7a58:	ff 90       	pop	r15
    7a5a:	ef 90       	pop	r14
    7a5c:	df 90       	pop	r13
    7a5e:	cf 90       	pop	r12
    7a60:	08 95       	ret

00007a62 <cube_show_init>:
    7a62:	85 b5       	in	r24, 0x25	; 37
    7a64:	84 60       	ori	r24, 0x04	; 4
    7a66:	85 bd       	out	0x25, r24	; 37
    7a68:	ee e6       	ldi	r30, 0x6E	; 110
    7a6a:	f0 e0       	ldi	r31, 0x00	; 0
    7a6c:	80 81       	ld	r24, Z
    7a6e:	81 60       	ori	r24, 0x01	; 1
    7a70:	80 83       	st	Z, r24
    7a72:	08 95       	ret

00007a74 <__vector_18>:
    7a74:	1f 92       	push	r1
    7a76:	0f 92       	push	r0
    7a78:	0f b6       	in	r0, 0x3f	; 63
    7a7a:	0f 92       	push	r0
    7a7c:	0b b6       	in	r0, 0x3b	; 59
    7a7e:	0f 92       	push	r0
    7a80:	11 24       	eor	r1, r1
    7a82:	2f 93       	push	r18
    7a84:	3f 93       	push	r19
    7a86:	4f 93       	push	r20
    7a88:	5f 93       	push	r21
    7a8a:	6f 93       	push	r22
    7a8c:	7f 93       	push	r23
    7a8e:	8f 93       	push	r24
    7a90:	9f 93       	push	r25
    7a92:	ef 93       	push	r30
    7a94:	ff 93       	push	r31
    7a96:	80 eb       	ldi	r24, 0xB0	; 176
    7a98:	86 bd       	out	0x26, r24	; 38
    7a9a:	18 b8       	out	0x08, r1	; 8
	...
    7aa4:	00 00       	nop
    7aa6:	80 e0       	ldi	r24, 0x00	; 0
    7aa8:	90 e0       	ldi	r25, 0x00	; 0
    7aaa:	21 e0       	ldi	r18, 0x01	; 1
    7aac:	30 e0       	ldi	r19, 0x00	; 0
    7aae:	60 91 6f 01 	lds	r22, 0x016F
    7ab2:	e6 2f       	mov	r30, r22
    7ab4:	f0 e0       	ldi	r31, 0x00	; 0
    7ab6:	43 e0       	ldi	r20, 0x03	; 3
    7ab8:	ee 0f       	add	r30, r30
    7aba:	ff 1f       	adc	r31, r31
    7abc:	4a 95       	dec	r20
    7abe:	e1 f7       	brne	.-8      	; 0x7ab8 <__vector_18+0x44>
    7ac0:	e8 0f       	add	r30, r24
    7ac2:	f9 1f       	adc	r31, r25
    7ac4:	e0 55       	subi	r30, 0x50	; 80
    7ac6:	fe 4f       	sbci	r31, 0xFE	; 254
    7ac8:	40 81       	ld	r20, Z
    7aca:	45 b9       	out	0x05, r20	; 5
    7acc:	00 00       	nop
    7ace:	72 b1       	in	r23, 0x02	; 2
    7ad0:	a9 01       	movw	r20, r18
    7ad2:	08 2e       	mov	r0, r24
    7ad4:	02 c0       	rjmp	.+4      	; 0x7ada <__vector_18+0x66>
    7ad6:	44 0f       	add	r20, r20
    7ad8:	55 1f       	adc	r21, r21
    7ada:	0a 94       	dec	r0
    7adc:	e2 f7       	brpl	.-8      	; 0x7ad6 <__vector_18+0x62>
    7ade:	74 2b       	or	r23, r20
    7ae0:	72 b9       	out	0x02, r23	; 2
    7ae2:	00 00       	nop
    7ae4:	12 b8       	out	0x02, r1	; 2
    7ae6:	00 00       	nop
    7ae8:	01 96       	adiw	r24, 0x01	; 1
    7aea:	88 30       	cpi	r24, 0x08	; 8
    7aec:	91 05       	cpc	r25, r1
    7aee:	f9 f6       	brne	.-66     	; 0x7aae <__vector_18+0x3a>
    7af0:	28 b1       	in	r18, 0x08	; 8
    7af2:	81 e0       	ldi	r24, 0x01	; 1
    7af4:	90 e0       	ldi	r25, 0x00	; 0
    7af6:	06 2e       	mov	r0, r22
    7af8:	02 c0       	rjmp	.+4      	; 0x7afe <__vector_18+0x8a>
    7afa:	88 0f       	add	r24, r24
    7afc:	99 1f       	adc	r25, r25
    7afe:	0a 94       	dec	r0
    7b00:	e2 f7       	brpl	.-8      	; 0x7afa <__vector_18+0x86>
    7b02:	28 2b       	or	r18, r24
    7b04:	28 b9       	out	0x08, r18	; 8
    7b06:	00 00       	nop
    7b08:	67 30       	cpi	r22, 0x07	; 7
    7b0a:	20 f4       	brcc	.+8      	; 0x7b14 <__vector_18+0xa0>
    7b0c:	6f 5f       	subi	r22, 0xFF	; 255
    7b0e:	60 93 6f 01 	sts	0x016F, r22
    7b12:	02 c0       	rjmp	.+4      	; 0x7b18 <__vector_18+0xa4>
    7b14:	10 92 6f 01 	sts	0x016F, r1
    7b18:	ff 91       	pop	r31
    7b1a:	ef 91       	pop	r30
    7b1c:	9f 91       	pop	r25
    7b1e:	8f 91       	pop	r24
    7b20:	7f 91       	pop	r23
    7b22:	6f 91       	pop	r22
    7b24:	5f 91       	pop	r21
    7b26:	4f 91       	pop	r20
    7b28:	3f 91       	pop	r19
    7b2a:	2f 91       	pop	r18
    7b2c:	0f 90       	pop	r0
    7b2e:	0b be       	out	0x3b, r0	; 59
    7b30:	0f 90       	pop	r0
    7b32:	0f be       	out	0x3f, r0	; 63
    7b34:	0f 90       	pop	r0
    7b36:	1f 90       	pop	r1
    7b38:	18 95       	reti

00007b3a <cube_clear>:
    7b3a:	80 e0       	ldi	r24, 0x00	; 0
    7b3c:	90 e0       	ldi	r25, 0x00	; 0
    7b3e:	fc 01       	movw	r30, r24
    7b40:	53 e0       	ldi	r21, 0x03	; 3
    7b42:	ee 0f       	add	r30, r30
    7b44:	ff 1f       	adc	r31, r31
    7b46:	5a 95       	dec	r21
    7b48:	e1 f7       	brne	.-8      	; 0x7b42 <cube_clear+0x8>
    7b4a:	e0 55       	subi	r30, 0x50	; 80
    7b4c:	fe 4f       	sbci	r31, 0xFE	; 254
    7b4e:	10 82       	st	Z, r1
    7b50:	11 82       	std	Z+1, r1	; 0x01
    7b52:	12 82       	std	Z+2, r1	; 0x02
    7b54:	13 82       	std	Z+3, r1	; 0x03
    7b56:	14 82       	std	Z+4, r1	; 0x04
    7b58:	15 82       	std	Z+5, r1	; 0x05
    7b5a:	16 82       	std	Z+6, r1	; 0x06
    7b5c:	17 82       	std	Z+7, r1	; 0x07
    7b5e:	01 96       	adiw	r24, 0x01	; 1
    7b60:	88 30       	cpi	r24, 0x08	; 8
    7b62:	91 05       	cpc	r25, r1
    7b64:	61 f7       	brne	.-40     	; 0x7b3e <cube_clear+0x4>
    7b66:	08 95       	ret

00007b68 <cube_clear_layer>:
    7b68:	e8 2f       	mov	r30, r24
    7b6a:	f0 e0       	ldi	r31, 0x00	; 0
    7b6c:	63 e0       	ldi	r22, 0x03	; 3
    7b6e:	ee 0f       	add	r30, r30
    7b70:	ff 1f       	adc	r31, r31
    7b72:	6a 95       	dec	r22
    7b74:	e1 f7       	brne	.-8      	; 0x7b6e <cube_clear_layer+0x6>
    7b76:	e0 55       	subi	r30, 0x50	; 80
    7b78:	fe 4f       	sbci	r31, 0xFE	; 254
    7b7a:	10 82       	st	Z, r1
    7b7c:	11 82       	std	Z+1, r1	; 0x01
    7b7e:	12 82       	std	Z+2, r1	; 0x02
    7b80:	13 82       	std	Z+3, r1	; 0x03
    7b82:	14 82       	std	Z+4, r1	; 0x04
    7b84:	15 82       	std	Z+5, r1	; 0x05
    7b86:	16 82       	std	Z+6, r1	; 0x06
    7b88:	17 82       	std	Z+7, r1	; 0x07
    7b8a:	08 95       	ret

00007b8c <cube_full>:
    7b8c:	80 e0       	ldi	r24, 0x00	; 0
    7b8e:	90 e0       	ldi	r25, 0x00	; 0
    7b90:	2f ef       	ldi	r18, 0xFF	; 255
    7b92:	fc 01       	movw	r30, r24
    7b94:	73 e0       	ldi	r23, 0x03	; 3
    7b96:	ee 0f       	add	r30, r30
    7b98:	ff 1f       	adc	r31, r31
    7b9a:	7a 95       	dec	r23
    7b9c:	e1 f7       	brne	.-8      	; 0x7b96 <cube_full+0xa>
    7b9e:	e0 55       	subi	r30, 0x50	; 80
    7ba0:	fe 4f       	sbci	r31, 0xFE	; 254
    7ba2:	20 83       	st	Z, r18
    7ba4:	21 83       	std	Z+1, r18	; 0x01
    7ba6:	22 83       	std	Z+2, r18	; 0x02
    7ba8:	23 83       	std	Z+3, r18	; 0x03
    7baa:	24 83       	std	Z+4, r18	; 0x04
    7bac:	25 83       	std	Z+5, r18	; 0x05
    7bae:	26 83       	std	Z+6, r18	; 0x06
    7bb0:	27 83       	std	Z+7, r18	; 0x07
    7bb2:	01 96       	adiw	r24, 0x01	; 1
    7bb4:	88 30       	cpi	r24, 0x08	; 8
    7bb6:	91 05       	cpc	r25, r1
    7bb8:	61 f7       	brne	.-40     	; 0x7b92 <cube_full+0x6>
    7bba:	08 95       	ret

00007bbc <cube_cube_3>:
    7bbc:	87 e0       	ldi	r24, 0x07	; 7
    7bbe:	80 93 b0 01 	sts	0x01B0, r24
    7bc2:	80 93 b1 01 	sts	0x01B1, r24
    7bc6:	80 93 b2 01 	sts	0x01B2, r24
    7bca:	80 93 b8 01 	sts	0x01B8, r24
    7bce:	80 93 b9 01 	sts	0x01B9, r24
    7bd2:	80 93 ba 01 	sts	0x01BA, r24
    7bd6:	80 93 c0 01 	sts	0x01C0, r24
    7bda:	80 93 c1 01 	sts	0x01C1, r24
    7bde:	80 93 c2 01 	sts	0x01C2, r24
    7be2:	08 95       	ret

00007be4 <cube_cube_4_line>:
    7be4:	9f e0       	ldi	r25, 0x0F	; 15
    7be6:	90 93 b0 01 	sts	0x01B0, r25
    7bea:	89 e0       	ldi	r24, 0x09	; 9
    7bec:	80 93 b1 01 	sts	0x01B1, r24
    7bf0:	80 93 b2 01 	sts	0x01B2, r24
    7bf4:	90 93 b3 01 	sts	0x01B3, r25
    7bf8:	80 93 b8 01 	sts	0x01B8, r24
    7bfc:	80 93 bb 01 	sts	0x01BB, r24
    7c00:	80 93 c0 01 	sts	0x01C0, r24
    7c04:	80 93 c3 01 	sts	0x01C3, r24
    7c08:	90 93 c8 01 	sts	0x01C8, r25
    7c0c:	80 93 c9 01 	sts	0x01C9, r24
    7c10:	80 93 ca 01 	sts	0x01CA, r24
    7c14:	90 93 cb 01 	sts	0x01CB, r25
    7c18:	08 95       	ret

00007c1a <cube_random>:
    7c1a:	cf 92       	push	r12
    7c1c:	df 92       	push	r13
    7c1e:	ef 92       	push	r14
    7c20:	ff 92       	push	r15
    7c22:	0f 93       	push	r16
    7c24:	1f 93       	push	r17
    7c26:	cf 93       	push	r28
    7c28:	df 93       	push	r29
    7c2a:	00 e0       	ldi	r16, 0x00	; 0
    7c2c:	10 e0       	ldi	r17, 0x00	; 0
    7c2e:	ff ef       	ldi	r31, 0xFF	; 255
    7c30:	cf 2e       	mov	r12, r31
    7c32:	d1 2c       	mov	r13, r1
    7c34:	14 c0       	rjmp	.+40     	; 0x7c5e <cube_random+0x44>
    7c36:	0e 94 72 54 	call	0xa8e4	; 0xa8e4 <rand>
    7c3a:	b6 01       	movw	r22, r12
    7c3c:	0e 94 f6 53 	call	0xa7ec	; 0xa7ec <__divmodhi4>
    7c40:	f7 01       	movw	r30, r14
    7c42:	ec 0f       	add	r30, r28
    7c44:	fd 1f       	adc	r31, r29
    7c46:	e0 55       	subi	r30, 0x50	; 80
    7c48:	fe 4f       	sbci	r31, 0xFE	; 254
    7c4a:	80 83       	st	Z, r24
    7c4c:	21 96       	adiw	r28, 0x01	; 1
    7c4e:	c8 30       	cpi	r28, 0x08	; 8
    7c50:	d1 05       	cpc	r29, r1
    7c52:	89 f7       	brne	.-30     	; 0x7c36 <cube_random+0x1c>
    7c54:	0f 5f       	subi	r16, 0xFF	; 255
    7c56:	1f 4f       	sbci	r17, 0xFF	; 255
    7c58:	08 30       	cpi	r16, 0x08	; 8
    7c5a:	11 05       	cpc	r17, r1
    7c5c:	49 f0       	breq	.+18     	; 0x7c70 <cube_random+0x56>
    7c5e:	c0 e0       	ldi	r28, 0x00	; 0
    7c60:	d0 e0       	ldi	r29, 0x00	; 0
    7c62:	78 01       	movw	r14, r16
    7c64:	e3 e0       	ldi	r30, 0x03	; 3
    7c66:	ee 0c       	add	r14, r14
    7c68:	ff 1c       	adc	r15, r15
    7c6a:	ea 95       	dec	r30
    7c6c:	e1 f7       	brne	.-8      	; 0x7c66 <cube_random+0x4c>
    7c6e:	e3 cf       	rjmp	.-58     	; 0x7c36 <cube_random+0x1c>
    7c70:	df 91       	pop	r29
    7c72:	cf 91       	pop	r28
    7c74:	1f 91       	pop	r17
    7c76:	0f 91       	pop	r16
    7c78:	ff 90       	pop	r15
    7c7a:	ef 90       	pop	r14
    7c7c:	df 90       	pop	r13
    7c7e:	cf 90       	pop	r12
    7c80:	08 95       	ret

00007c82 <cube_test_z>:
    7c82:	80 e0       	ldi	r24, 0x00	; 0
    7c84:	90 e0       	ldi	r25, 0x00	; 0
    7c86:	21 e0       	ldi	r18, 0x01	; 1
    7c88:	fc 01       	movw	r30, r24
    7c8a:	a3 e0       	ldi	r26, 0x03	; 3
    7c8c:	ee 0f       	add	r30, r30
    7c8e:	ff 1f       	adc	r31, r31
    7c90:	aa 95       	dec	r26
    7c92:	e1 f7       	brne	.-8      	; 0x7c8c <cube_test_z+0xa>
    7c94:	e0 55       	subi	r30, 0x50	; 80
    7c96:	fe 4f       	sbci	r31, 0xFE	; 254
    7c98:	20 83       	st	Z, r18
    7c9a:	21 83       	std	Z+1, r18	; 0x01
    7c9c:	22 83       	std	Z+2, r18	; 0x02
    7c9e:	23 83       	std	Z+3, r18	; 0x03
    7ca0:	24 83       	std	Z+4, r18	; 0x04
    7ca2:	25 83       	std	Z+5, r18	; 0x05
    7ca4:	26 83       	std	Z+6, r18	; 0x06
    7ca6:	27 83       	std	Z+7, r18	; 0x07
    7ca8:	01 96       	adiw	r24, 0x01	; 1
    7caa:	88 30       	cpi	r24, 0x08	; 8
    7cac:	91 05       	cpc	r25, r1
    7cae:	61 f7       	brne	.-40     	; 0x7c88 <cube_test_z+0x6>
    7cb0:	08 95       	ret

00007cb2 <cube_test_y>:
    7cb2:	8f ef       	ldi	r24, 0xFF	; 255
    7cb4:	80 93 b0 01 	sts	0x01B0, r24
    7cb8:	80 93 b1 01 	sts	0x01B1, r24
    7cbc:	80 93 b2 01 	sts	0x01B2, r24
    7cc0:	80 93 b3 01 	sts	0x01B3, r24
    7cc4:	80 93 b4 01 	sts	0x01B4, r24
    7cc8:	80 93 b5 01 	sts	0x01B5, r24
    7ccc:	80 93 b6 01 	sts	0x01B6, r24
    7cd0:	80 93 b7 01 	sts	0x01B7, r24
    7cd4:	08 95       	ret

00007cd6 <cube_test_x>:
    7cd6:	8f ef       	ldi	r24, 0xFF	; 255
    7cd8:	80 93 b0 01 	sts	0x01B0, r24
    7cdc:	80 93 b8 01 	sts	0x01B8, r24
    7ce0:	80 93 c0 01 	sts	0x01C0, r24
    7ce4:	80 93 c8 01 	sts	0x01C8, r24
    7ce8:	80 93 d0 01 	sts	0x01D0, r24
    7cec:	80 93 d8 01 	sts	0x01D8, r24
    7cf0:	80 93 e0 01 	sts	0x01E0, r24
    7cf4:	80 93 e8 01 	sts	0x01E8, r24
    7cf8:	08 95       	ret

00007cfa <cube_show>:
    7cfa:	cf 93       	push	r28
    7cfc:	df 93       	push	r29
    7cfe:	00 00       	nop
    7d00:	40 e0       	ldi	r20, 0x00	; 0
    7d02:	50 e0       	ldi	r21, 0x00	; 0
    7d04:	a1 e0       	ldi	r26, 0x01	; 1
    7d06:	b0 e0       	ldi	r27, 0x00	; 0
    7d08:	c1 e0       	ldi	r28, 0x01	; 1
    7d0a:	d0 e0       	ldi	r29, 0x00	; 0
    7d0c:	35 c0       	rjmp	.+106    	; 0x7d78 <cube_show+0x7e>
    7d0e:	fb 01       	movw	r30, r22
    7d10:	e2 0f       	add	r30, r18
    7d12:	f3 1f       	adc	r31, r19
    7d14:	e0 55       	subi	r30, 0x50	; 80
    7d16:	fe 4f       	sbci	r31, 0xFE	; 254
    7d18:	80 81       	ld	r24, Z
    7d1a:	85 b9       	out	0x05, r24	; 5
    7d1c:	00 00       	nop
    7d1e:	e2 b1       	in	r30, 0x02	; 2
    7d20:	cd 01       	movw	r24, r26
    7d22:	02 2e       	mov	r0, r18
    7d24:	02 c0       	rjmp	.+4      	; 0x7d2a <cube_show+0x30>
    7d26:	88 0f       	add	r24, r24
    7d28:	99 1f       	adc	r25, r25
    7d2a:	0a 94       	dec	r0
    7d2c:	e2 f7       	brpl	.-8      	; 0x7d26 <cube_show+0x2c>
    7d2e:	e8 2b       	or	r30, r24
    7d30:	e2 b9       	out	0x02, r30	; 2
    7d32:	00 00       	nop
    7d34:	12 b8       	out	0x02, r1	; 2
    7d36:	00 00       	nop
    7d38:	2f 5f       	subi	r18, 0xFF	; 255
    7d3a:	3f 4f       	sbci	r19, 0xFF	; 255
    7d3c:	28 30       	cpi	r18, 0x08	; 8
    7d3e:	31 05       	cpc	r19, r1
    7d40:	31 f7       	brne	.-52     	; 0x7d0e <cube_show+0x14>
    7d42:	28 b1       	in	r18, 0x08	; 8
    7d44:	ce 01       	movw	r24, r28
    7d46:	04 2e       	mov	r0, r20
    7d48:	02 c0       	rjmp	.+4      	; 0x7d4e <cube_show+0x54>
    7d4a:	88 0f       	add	r24, r24
    7d4c:	99 1f       	adc	r25, r25
    7d4e:	0a 94       	dec	r0
    7d50:	e2 f7       	brpl	.-8      	; 0x7d4a <cube_show+0x50>
    7d52:	28 2b       	or	r18, r24
    7d54:	28 b9       	out	0x08, r18	; 8
    7d56:	87 e8       	ldi	r24, 0x87	; 135
    7d58:	93 e1       	ldi	r25, 0x13	; 19
    7d5a:	01 97       	sbiw	r24, 0x01	; 1
    7d5c:	f1 f7       	brne	.-4      	; 0x7d5a <cube_show+0x60>
    7d5e:	00 c0       	rjmp	.+0      	; 0x7d60 <cube_show+0x66>
    7d60:	00 00       	nop
    7d62:	18 b8       	out	0x08, r1	; 8
	...
    7d6c:	00 00       	nop
    7d6e:	4f 5f       	subi	r20, 0xFF	; 255
    7d70:	5f 4f       	sbci	r21, 0xFF	; 255
    7d72:	48 30       	cpi	r20, 0x08	; 8
    7d74:	51 05       	cpc	r21, r1
    7d76:	49 f0       	breq	.+18     	; 0x7d8a <cube_show+0x90>
    7d78:	20 e0       	ldi	r18, 0x00	; 0
    7d7a:	30 e0       	ldi	r19, 0x00	; 0
    7d7c:	ba 01       	movw	r22, r20
    7d7e:	83 e0       	ldi	r24, 0x03	; 3
    7d80:	66 0f       	add	r22, r22
    7d82:	77 1f       	adc	r23, r23
    7d84:	8a 95       	dec	r24
    7d86:	e1 f7       	brne	.-8      	; 0x7d80 <cube_show+0x86>
    7d88:	c2 cf       	rjmp	.-124    	; 0x7d0e <cube_show+0x14>
    7d8a:	df 91       	pop	r29
    7d8c:	cf 91       	pop	r28
    7d8e:	08 95       	ret

00007d90 <cube_show_loop>:
    7d90:	90 e0       	ldi	r25, 0x00	; 0
    7d92:	88 0f       	add	r24, r24
    7d94:	99 1f       	adc	r25, r25
    7d96:	20 e0       	ldi	r18, 0x00	; 0
    7d98:	30 e0       	ldi	r19, 0x00	; 0
    7d9a:	08 c0       	rjmp	.+16     	; 0x7dac <cube_show_loop+0x1c>
    7d9c:	ef e3       	ldi	r30, 0x3F	; 63
    7d9e:	fc e9       	ldi	r31, 0x9C	; 156
    7da0:	31 97       	sbiw	r30, 0x01	; 1
    7da2:	f1 f7       	brne	.-4      	; 0x7da0 <cube_show_loop+0x10>
    7da4:	00 c0       	rjmp	.+0      	; 0x7da6 <cube_show_loop+0x16>
    7da6:	00 00       	nop
    7da8:	2f 5f       	subi	r18, 0xFF	; 255
    7daa:	3f 4f       	sbci	r19, 0xFF	; 255
    7dac:	28 17       	cp	r18, r24
    7dae:	39 07       	cpc	r19, r25
    7db0:	a9 f7       	brne	.-22     	; 0x7d9c <cube_show_loop+0xc>
    7db2:	08 95       	ret

00007db4 <cube_show_loop_wo_int>:
    7db4:	0f 93       	push	r16
    7db6:	1f 93       	push	r17
    7db8:	cf 93       	push	r28
    7dba:	df 93       	push	r29
    7dbc:	08 2f       	mov	r16, r24
    7dbe:	10 e0       	ldi	r17, 0x00	; 0
    7dc0:	00 0f       	add	r16, r16
    7dc2:	11 1f       	adc	r17, r17
    7dc4:	c0 e0       	ldi	r28, 0x00	; 0
    7dc6:	d0 e0       	ldi	r29, 0x00	; 0
    7dc8:	03 c0       	rjmp	.+6      	; 0x7dd0 <cube_show_loop_wo_int+0x1c>
    7dca:	0e 94 7d 3e 	call	0x7cfa	; 0x7cfa <cube_show>
    7dce:	21 96       	adiw	r28, 0x01	; 1
    7dd0:	c0 17       	cp	r28, r16
    7dd2:	d1 07       	cpc	r29, r17
    7dd4:	d1 f7       	brne	.-12     	; 0x7dca <cube_show_loop_wo_int+0x16>
    7dd6:	df 91       	pop	r29
    7dd8:	cf 91       	pop	r28
    7dda:	1f 91       	pop	r17
    7ddc:	0f 91       	pop	r16
    7dde:	08 95       	ret

00007de0 <ioinit>:
	// PORTA is latch enable
	// PORTB is 8 bit latch data
	// PORTC is layer enable
	// PORTD is rs232, buttons, status leds

	DDRA = 0xff;	// latch enable output
    7de0:	8f ef       	ldi	r24, 0xFF	; 255
    7de2:	81 b9       	out	0x01, r24	; 1
	DDRB = 0xFF;	// 8 bit latch data output
    7de4:	84 b9       	out	0x04, r24	; 4
	//DDRB = 0xef;	// Button on B4
	DDRC = 0xff;	// layer enable output
    7de6:	87 b9       	out	0x07, r24	; 7
	DDRD = 0xAF;	// buttons on d4, d6
    7de8:	8f ea       	ldi	r24, 0xAF	; 175
    7dea:	8a b9       	out	0x0a, r24	; 10
	//DDRD = 0xdf;	// Button on D5
	
	PORTA = 0x00;	// set latch enable off
    7dec:	12 b8       	out	0x02, r1	; 2
	PORTB = 0x00;	// set 8 bit latch data off
    7dee:	15 b8       	out	0x05, r1	; 5
	//PORTB = 0x10;	// Enable pull up on button.
	PORTC = 0x00;	// set layer enable off
    7df0:	18 b8       	out	0x08, r1	; 8
	PORTD = 0x50;	// enable pull up on buttons
    7df2:	80 e5       	ldi	r24, 0x50	; 80
    7df4:	8b b9       	out	0x0b, r24	; 11
	//PORTD = 0x20;	// Enable pull up on button.

	cube_show_init();	// fornax timer0
    7df6:	0e 94 31 3d 	call	0x7a62	; 0x7a62 <cube_show_init>
	//TCNT2 = 0x00;	// initial counter value = 0;
	//TIMSK2/*TIMSK*/ |= (1 << OCIE2A/*OCIE2*/);	// Enable CTC interrupt	// ATmega1284 adapt
	
    // Initiate RS232
    // UART Baud rate is defined in MYUBRR
    UBRR0H/*UBRRH*/ = MYUBRR >> 8;	// ATmega1284 adapt
    7dfa:	10 92 c5 00 	sts	0x00C5, r1
    UBRR0L/*UBRRL*/ = MYUBRR;	// ATmega1284 adapt
    7dfe:	80 e2       	ldi	r24, 0x20	; 32
    7e00:	80 93 c4 00 	sts	0x00C4, r24
    // bit 7-6      sync/ascyn 00 = async,  01 = sync
    // bit 5-4      parity 00 = disabled
    // bit 3        stop bits 0 = 1 bit  1 = 2 bits
    // bit 2-1      frame length 11 = 8
    // bit 0        clock polarity = 0
    UCSR0C/*UCSRC*/  = 0b10000110;	// ATmega1284 adapt
    7e04:	86 e8       	ldi	r24, 0x86	; 134
    7e06:	80 93 c2 00 	sts	0x00C2, r24
    // Enable RS232, tx and rx
    UCSR0B/*UCSRB*/ = (1<<RXEN0/*RXEN*/)|(1<<TXEN0/*TXEN*/);	// ATmega1284 adapt
    7e0a:	88 e1       	ldi	r24, 0x18	; 24
    7e0c:	80 93 c1 00 	sts	0x00C1, r24
    UDR0/*UDR*/ = 0x00;	// send an empty byte to indicate powerup.	// ATmega1284 adapt
    7e10:	10 92 c6 00 	sts	0x00C6, r1
}
    7e14:	08 95       	ret

00007e16 <bootwait>:
//    those LEDs on and off generates some noise.
// 2) Set a random random seed based on the delay between boot time and
//    the time you press a button.
// 3) Select mode of operation, autonomous or rs232 controlled.
unsigned int bootwait (void)
{
    7e16:	cf 93       	push	r28
    7e18:	df 93       	push	r29
	// All the LED_PORT... code blinks the red and green status LEDs.

	unsigned int x = 0;
	LED_PORT |= LED_GREEN;
    7e1a:	5d 9a       	sbi	0x0b, 5	; 11
// 3) Select mode of operation, autonomous or rs232 controlled.
unsigned int bootwait (void)
{
	// All the LED_PORT... code blinks the red and green status LEDs.

	unsigned int x = 0;
    7e1c:	c0 e0       	ldi	r28, 0x00	; 0
    7e1e:	d0 e0       	ldi	r29, 0x00	; 0
	LED_PORT |= LED_GREEN;
	while (1)
	{
        x++; // increment x by one.
    7e20:	21 96       	adiw	r28, 0x01	; 1
		srand(x); // use counter x as random seed
    7e22:	ce 01       	movw	r24, r28
    7e24:	0e 94 77 54 	call	0xa8ee	; 0xa8ee <srand>
		
		delay_ms(2000);
    7e28:	80 ed       	ldi	r24, 0xD0	; 208
    7e2a:	97 e0       	ldi	r25, 0x07	; 7
    7e2c:	0e 94 a7 27 	call	0x4f4e	; 0x4f4e <delay_ms>
		LED_PORT &= ~LED_GREEN; // green off, red on
    7e30:	5d 98       	cbi	0x0b, 5	; 11
		LED_PORT |= LED_RED;
    7e32:	5a 9a       	sbi	0x0b, 2	; 11
		
		// Listen for button presses and return with the
		// appropriate number.
		if /*(!*/(PIND & RS232_BTN)//) // NC
    7e34:	4c 99       	sbic	0x09, 4	; 9
    7e36:	0f c0       	rjmp	.+30     	; 0x7e56 <bootwait+0x40>
			return 2;
		
		if (PIND & MAIN_BTN) // NC
    7e38:	4e 99       	sbic	0x09, 6	; 9
    7e3a:	0a c0       	rjmp	.+20     	; 0x7e50 <bootwait+0x3a>
		//if (!(PINB & MAIN_BTN))
			return 1;
		
		delay_ms(2000);
    7e3c:	80 ed       	ldi	r24, 0xD0	; 208
    7e3e:	97 e0       	ldi	r25, 0x07	; 7
    7e40:	0e 94 a7 27 	call	0x4f4e	; 0x4f4e <delay_ms>
		LED_PORT &= ~LED_RED; // red off, green on
    7e44:	5a 98       	cbi	0x0b, 2	; 11
		LED_PORT |= LED_GREEN;
    7e46:	5d 9a       	sbi	0x0b, 5	; 11
		
		// Same as above. I do it twise because there are two delays
		// in this loop, used for the red and green led blinking..
		if /*(!*/(PIND & RS232_BTN)//) // NC
    7e48:	4c 99       	sbic	0x09, 4	; 9
    7e4a:	05 c0       	rjmp	.+10     	; 0x7e56 <bootwait+0x40>
			return 2;
		
		if (PIND & MAIN_BTN) // NC
    7e4c:	4e 9b       	sbis	0x09, 6	; 9
    7e4e:	e8 cf       	rjmp	.-48     	; 0x7e20 <bootwait+0xa>
		if /*(!*/(PIND & RS232_BTN)//) // NC
			return 2;
		
		if (PIND & MAIN_BTN) // NC
		//if (!(PINB & MAIN_BTN))
			return 1;
    7e50:	81 e0       	ldi	r24, 0x01	; 1
    7e52:	90 e0       	ldi	r25, 0x00	; 0
    7e54:	02 c0       	rjmp	.+4      	; 0x7e5a <bootwait+0x44>
		LED_PORT |= LED_GREEN;
		
		// Same as above. I do it twise because there are two delays
		// in this loop, used for the red and green led blinking..
		if /*(!*/(PIND & RS232_BTN)//) // NC
			return 2;
    7e56:	82 e0       	ldi	r24, 0x02	; 2
    7e58:	90 e0       	ldi	r25, 0x00	; 0
		
		if (PIND & MAIN_BTN) // NC
		//if (!(PINB & MAIN_BTN))
			return 1;
	}
}
    7e5a:	df 91       	pop	r29
    7e5c:	cf 91       	pop	r28
    7e5e:	08 95       	ret

00007e60 <rs232>:
// Take input from a computer and load it onto the cube buffer
void rs232(void)
{
	int tempval;
	int x = 0;
	int y = 0;
    7e60:	80 e0       	ldi	r24, 0x00	; 0
    7e62:	90 e0       	ldi	r25, 0x00	; 0

// Take input from a computer and load it onto the cube buffer
void rs232(void)
{
	int tempval;
	int x = 0;
    7e64:	20 e0       	ldi	r18, 0x00	; 0
    7e66:	30 e0       	ldi	r19, 0x00	; 0
	while (1)
	{
		// Switch state on red LED for debugging
		// Should switch state every time the code
		// is waiting for a byte to be received.
		LED_PORT ^= LED_RED;
    7e68:	c4 e0       	ldi	r28, 0x04	; 4
    7e6a:	04 c0       	rjmp	.+8      	; 0x7e74 <rs232+0x14>
			 // Sync signal is received.
			 // Reset x and y counters to 0.
			 if (tempval == 0x00)
			 {
				x = 0;
				y = 0;
    7e6c:	80 e0       	ldi	r24, 0x00	; 0
    7e6e:	90 e0       	ldi	r25, 0x00	; 0

			 // Sync signal is received.
			 // Reset x and y counters to 0.
			 if (tempval == 0x00)
			 {
				x = 0;
    7e70:	20 e0       	ldi	r18, 0x00	; 0
    7e72:	30 e0       	ldi	r19, 0x00	; 0
	while (1)
	{
		// Switch state on red LED for debugging
		// Should switch state every time the code
		// is waiting for a byte to be received.
		LED_PORT ^= LED_RED;
    7e74:	4b b1       	in	r20, 0x0b	; 11
    7e76:	4c 27       	eor	r20, r28
    7e78:	4b b9       	out	0x0b, r20	; 11

		// Wait until a byte has been received
		while ( !(UCSR0A/*UCSRA*/ & (1<<RXC0/*RXC*/)) );	// ATmega1284 adapt
    7e7a:	40 91 c0 00 	lds	r20, 0x00C0
    7e7e:	47 ff       	sbrs	r20, 7
    7e80:	fc cf       	rjmp	.-8      	; 0x7e7a <rs232+0x1a>

		// Load the received byte from rs232 into a buffer.
		tempval = UDR0/*UDR*/;	// ATmega1284 adapt
    7e82:	40 91 c6 00 	lds	r20, 0x00C6
    7e86:	50 e0       	ldi	r21, 0x00	; 0
		// are reset to 0. This way the x and y counters are
		// always the same on the computer and in the cube.
		// To send an 0xff byte, you have to send it twice!

		// Go into sync escape mode
		if (tempval == 0xff)
    7e88:	4f 3f       	cpi	r20, 0xFF	; 255
    7e8a:	51 05       	cpc	r21, r1
    7e8c:	51 f4       	brne	.+20     	; 0x7ea2 <rs232+0x42>
		{
			// Wait for the next byte
			 while ( !(UCSR0A/*UCSRA*/ & (1<<RXC0/*RXC*/)) );	// ATmega1284 adapt
    7e8e:	40 91 c0 00 	lds	r20, 0x00C0
    7e92:	47 ff       	sbrs	r20, 7
    7e94:	fc cf       	rjmp	.-8      	; 0x7e8e <rs232+0x2e>
			 // Get the next byte
			 tempval = UDR0/*UDR*/;	// ATmega1284 adapt
    7e96:	40 91 c6 00 	lds	r20, 0x00C6
    7e9a:	50 e0       	ldi	r21, 0x00	; 0

			 // Sync signal is received.
			 // Reset x and y counters to 0.
			 if (tempval == 0x00)
    7e9c:	41 15       	cp	r20, r1
    7e9e:	51 05       	cpc	r21, r1
    7ea0:	29 f3       	breq	.-54     	; 0x7e6c <rs232+0xc>
		}

        if (escape == 0)
        {
		// Load data into the current position in the buffer
		fb[x][y] = tempval;
    7ea2:	f9 01       	movw	r30, r18
    7ea4:	53 e0       	ldi	r21, 0x03	; 3
    7ea6:	ee 0f       	add	r30, r30
    7ea8:	ff 1f       	adc	r31, r31
    7eaa:	5a 95       	dec	r21
    7eac:	e1 f7       	brne	.-8      	; 0x7ea6 <rs232+0x46>
    7eae:	e8 0f       	add	r30, r24
    7eb0:	f9 1f       	adc	r31, r25
    7eb2:	e0 59       	subi	r30, 0x90	; 144
    7eb4:	fe 4f       	sbci	r31, 0xFE	; 254
    7eb6:	40 83       	st	Z, r20

    		// Check if we have reached the limits of the buffer array.
    		if (y == 7)
    7eb8:	87 30       	cpi	r24, 0x07	; 7
    7eba:	91 05       	cpc	r25, r1
    7ebc:	59 f4       	brne	.+22     	; 0x7ed4 <rs232+0x74>
    		{
    			if (x == 7)
    7ebe:	27 30       	cpi	r18, 0x07	; 7
    7ec0:	31 05       	cpc	r19, r1
    7ec2:	19 f4       	brne	.+6      	; 0x7eca <rs232+0x6a>
    			{
    				// All data is loaded. Reset both counters
    				y = 0;
    				x = 0;
                    // Copy the data onto the cube.
    				tmp2cube();
    7ec4:	0e 94 b5 27 	call	0x4f6a	; 0x4f6a <tmp2cube>
    7ec8:	d1 cf       	rjmp	.-94     	; 0x7e6c <rs232+0xc>
    			} else
    			{
    				// A layer is loaded, reset y and increment x.
    				x++;
    7eca:	2f 5f       	subi	r18, 0xFF	; 255
    7ecc:	3f 4f       	sbci	r19, 0xFF	; 255
    				y = 0;
    7ece:	80 e0       	ldi	r24, 0x00	; 0
    7ed0:	90 e0       	ldi	r25, 0x00	; 0
    7ed2:	d0 cf       	rjmp	.-96     	; 0x7e74 <rs232+0x14>
    			}
    		} else
    		{
    			// We are in the middle of loading a layer. increment y.
    			y++;
    7ed4:	01 96       	adiw	r24, 0x01	; 1
    7ed6:	ce cf       	rjmp	.-100    	; 0x7e74 <rs232+0x14>

00007ed8 <rotate_90_auto>:
    7ed8:	2f 92       	push	r2
    7eda:	3f 92       	push	r3
    7edc:	4f 92       	push	r4
    7ede:	5f 92       	push	r5
    7ee0:	6f 92       	push	r6
    7ee2:	7f 92       	push	r7
    7ee4:	8f 92       	push	r8
    7ee6:	9f 92       	push	r9
    7ee8:	af 92       	push	r10
    7eea:	bf 92       	push	r11
    7eec:	cf 92       	push	r12
    7eee:	df 92       	push	r13
    7ef0:	ef 92       	push	r14
    7ef2:	ff 92       	push	r15
    7ef4:	0f 93       	push	r16
    7ef6:	1f 93       	push	r17
    7ef8:	cf 93       	push	r28
    7efa:	df 93       	push	r29
    7efc:	cd b7       	in	r28, 0x3d	; 61
    7efe:	de b7       	in	r29, 0x3e	; 62
    7f00:	c0 54       	subi	r28, 0x40	; 64
    7f02:	d0 40       	sbci	r29, 0x00	; 0
    7f04:	0f b6       	in	r0, 0x3f	; 63
    7f06:	f8 94       	cli
    7f08:	de bf       	out	0x3e, r29	; 62
    7f0a:	0f be       	out	0x3f, r0	; 63
    7f0c:	cd bf       	out	0x3d, r28	; 61
    7f0e:	88 2e       	mov	r8, r24
    7f10:	99 24       	eor	r9, r9
    7f12:	f7 e0       	ldi	r31, 0x07	; 7
    7f14:	4f 2e       	mov	r4, r31
    7f16:	51 2c       	mov	r5, r1
    7f18:	a1 e0       	ldi	r26, 0x01	; 1
    7f1a:	2a 2e       	mov	r2, r26
    7f1c:	31 2c       	mov	r3, r1
    7f1e:	0c 94 d9 4e 	jmp	0x9db2	; 0x9db2 <rotate_90_auto+0x1eda>
    7f22:	fb 01       	movw	r30, r22
    7f24:	e8 0f       	add	r30, r24
    7f26:	f9 1f       	adc	r31, r25
    7f28:	e0 55       	subi	r30, 0x50	; 80
    7f2a:	fe 4f       	sbci	r31, 0xFE	; 254
    7f2c:	a0 81       	ld	r26, Z
    7f2e:	fa 01       	movw	r30, r20
    7f30:	e8 0f       	add	r30, r24
    7f32:	f9 1f       	adc	r31, r25
    7f34:	a0 83       	st	Z, r26
    7f36:	01 96       	adiw	r24, 0x01	; 1
    7f38:	88 30       	cpi	r24, 0x08	; 8
    7f3a:	91 05       	cpc	r25, r1
    7f3c:	91 f7       	brne	.-28     	; 0x7f22 <rotate_90_auto+0x4a>
    7f3e:	2f 5f       	subi	r18, 0xFF	; 255
    7f40:	3f 4f       	sbci	r19, 0xFF	; 255
    7f42:	48 5f       	subi	r20, 0xF8	; 248
    7f44:	5f 4f       	sbci	r21, 0xFF	; 255
    7f46:	28 30       	cpi	r18, 0x08	; 8
    7f48:	31 05       	cpc	r19, r1
    7f4a:	49 f0       	breq	.+18     	; 0x7f5e <rotate_90_auto+0x86>
    7f4c:	80 e0       	ldi	r24, 0x00	; 0
    7f4e:	90 e0       	ldi	r25, 0x00	; 0
    7f50:	b9 01       	movw	r22, r18
    7f52:	e3 e0       	ldi	r30, 0x03	; 3
    7f54:	66 0f       	add	r22, r22
    7f56:	77 1f       	adc	r23, r23
    7f58:	ea 95       	dec	r30
    7f5a:	e1 f7       	brne	.-8      	; 0x7f54 <rotate_90_auto+0x7c>
    7f5c:	e2 cf       	rjmp	.-60     	; 0x7f22 <rotate_90_auto+0x4a>
    7f5e:	0e 94 9d 3d 	call	0x7b3a	; 0x7b3a <cube_clear>
    7f62:	8e 01       	movw	r16, r28
    7f64:	08 5f       	subi	r16, 0xF8	; 248
    7f66:	1f 4f       	sbci	r17, 0xFF	; 255
    7f68:	d8 01       	movw	r26, r16
    7f6a:	20 e0       	ldi	r18, 0x00	; 0
    7f6c:	30 e0       	ldi	r19, 0x00	; 0
    7f6e:	fd 01       	movw	r30, r26
    7f70:	37 97       	sbiw	r30, 0x07	; 7
    7f72:	80 81       	ld	r24, Z
    7f74:	82 ff       	sbrs	r24, 2
    7f76:	0b c0       	rjmp	.+22     	; 0x7f8e <rotate_90_auto+0xb6>
    7f78:	f9 01       	movw	r30, r18
    7f7a:	63 e0       	ldi	r22, 0x03	; 3
    7f7c:	ee 0f       	add	r30, r30
    7f7e:	ff 1f       	adc	r31, r31
    7f80:	6a 95       	dec	r22
    7f82:	e1 f7       	brne	.-8      	; 0x7f7c <rotate_90_auto+0xa4>
    7f84:	e0 55       	subi	r30, 0x50	; 80
    7f86:	fe 4f       	sbci	r31, 0xFE	; 254
    7f88:	90 81       	ld	r25, Z
    7f8a:	98 60       	ori	r25, 0x08	; 8
    7f8c:	90 83       	st	Z, r25
    7f8e:	83 ff       	sbrs	r24, 3
    7f90:	0b c0       	rjmp	.+22     	; 0x7fa8 <rotate_90_auto+0xd0>
    7f92:	f9 01       	movw	r30, r18
    7f94:	53 e0       	ldi	r21, 0x03	; 3
    7f96:	ee 0f       	add	r30, r30
    7f98:	ff 1f       	adc	r31, r31
    7f9a:	5a 95       	dec	r21
    7f9c:	e1 f7       	brne	.-8      	; 0x7f96 <rotate_90_auto+0xbe>
    7f9e:	e0 55       	subi	r30, 0x50	; 80
    7fa0:	fe 4f       	sbci	r31, 0xFE	; 254
    7fa2:	90 81       	ld	r25, Z
    7fa4:	90 61       	ori	r25, 0x10	; 16
    7fa6:	90 83       	st	Z, r25
    7fa8:	84 ff       	sbrs	r24, 4
    7faa:	0b c0       	rjmp	.+22     	; 0x7fc2 <rotate_90_auto+0xea>
    7fac:	f9 01       	movw	r30, r18
    7fae:	43 e0       	ldi	r20, 0x03	; 3
    7fb0:	ee 0f       	add	r30, r30
    7fb2:	ff 1f       	adc	r31, r31
    7fb4:	4a 95       	dec	r20
    7fb6:	e1 f7       	brne	.-8      	; 0x7fb0 <rotate_90_auto+0xd8>
    7fb8:	e0 55       	subi	r30, 0x50	; 80
    7fba:	fe 4f       	sbci	r31, 0xFE	; 254
    7fbc:	90 81       	ld	r25, Z
    7fbe:	90 62       	ori	r25, 0x20	; 32
    7fc0:	90 83       	st	Z, r25
    7fc2:	85 ff       	sbrs	r24, 5
    7fc4:	0b c0       	rjmp	.+22     	; 0x7fdc <rotate_90_auto+0x104>
    7fc6:	f9 01       	movw	r30, r18
    7fc8:	93 e0       	ldi	r25, 0x03	; 3
    7fca:	ee 0f       	add	r30, r30
    7fcc:	ff 1f       	adc	r31, r31
    7fce:	9a 95       	dec	r25
    7fd0:	e1 f7       	brne	.-8      	; 0x7fca <rotate_90_auto+0xf2>
    7fd2:	e0 55       	subi	r30, 0x50	; 80
    7fd4:	fe 4f       	sbci	r31, 0xFE	; 254
    7fd6:	91 81       	ldd	r25, Z+1	; 0x01
    7fd8:	90 64       	ori	r25, 0x40	; 64
    7fda:	91 83       	std	Z+1, r25	; 0x01
    7fdc:	86 ff       	sbrs	r24, 6
    7fde:	0b c0       	rjmp	.+22     	; 0x7ff6 <rotate_90_auto+0x11e>
    7fe0:	f9 01       	movw	r30, r18
    7fe2:	73 e0       	ldi	r23, 0x03	; 3
    7fe4:	ee 0f       	add	r30, r30
    7fe6:	ff 1f       	adc	r31, r31
    7fe8:	7a 95       	dec	r23
    7fea:	e1 f7       	brne	.-8      	; 0x7fe4 <rotate_90_auto+0x10c>
    7fec:	e0 55       	subi	r30, 0x50	; 80
    7fee:	fe 4f       	sbci	r31, 0xFE	; 254
    7ff0:	81 81       	ldd	r24, Z+1	; 0x01
    7ff2:	80 68       	ori	r24, 0x80	; 128
    7ff4:	81 83       	std	Z+1, r24	; 0x01
    7ff6:	fd 01       	movw	r30, r26
    7ff8:	36 97       	sbiw	r30, 0x06	; 6
    7ffa:	80 81       	ld	r24, Z
    7ffc:	80 ff       	sbrs	r24, 0
    7ffe:	0b c0       	rjmp	.+22     	; 0x8016 <rotate_90_auto+0x13e>
    8000:	f9 01       	movw	r30, r18
    8002:	63 e0       	ldi	r22, 0x03	; 3
    8004:	ee 0f       	add	r30, r30
    8006:	ff 1f       	adc	r31, r31
    8008:	6a 95       	dec	r22
    800a:	e1 f7       	brne	.-8      	; 0x8004 <rotate_90_auto+0x12c>
    800c:	e0 55       	subi	r30, 0x50	; 80
    800e:	fe 4f       	sbci	r31, 0xFE	; 254
    8010:	90 81       	ld	r25, Z
    8012:	92 60       	ori	r25, 0x02	; 2
    8014:	90 83       	st	Z, r25
    8016:	81 ff       	sbrs	r24, 1
    8018:	0b c0       	rjmp	.+22     	; 0x8030 <rotate_90_auto+0x158>
    801a:	f9 01       	movw	r30, r18
    801c:	53 e0       	ldi	r21, 0x03	; 3
    801e:	ee 0f       	add	r30, r30
    8020:	ff 1f       	adc	r31, r31
    8022:	5a 95       	dec	r21
    8024:	e1 f7       	brne	.-8      	; 0x801e <rotate_90_auto+0x146>
    8026:	e0 55       	subi	r30, 0x50	; 80
    8028:	fe 4f       	sbci	r31, 0xFE	; 254
    802a:	90 81       	ld	r25, Z
    802c:	94 60       	ori	r25, 0x04	; 4
    802e:	90 83       	st	Z, r25
    8030:	82 ff       	sbrs	r24, 2
    8032:	0b c0       	rjmp	.+22     	; 0x804a <rotate_90_auto+0x172>
    8034:	f9 01       	movw	r30, r18
    8036:	43 e0       	ldi	r20, 0x03	; 3
    8038:	ee 0f       	add	r30, r30
    803a:	ff 1f       	adc	r31, r31
    803c:	4a 95       	dec	r20
    803e:	e1 f7       	brne	.-8      	; 0x8038 <rotate_90_auto+0x160>
    8040:	e0 55       	subi	r30, 0x50	; 80
    8042:	fe 4f       	sbci	r31, 0xFE	; 254
    8044:	91 81       	ldd	r25, Z+1	; 0x01
    8046:	98 60       	ori	r25, 0x08	; 8
    8048:	91 83       	std	Z+1, r25	; 0x01
    804a:	83 ff       	sbrs	r24, 3
    804c:	0b c0       	rjmp	.+22     	; 0x8064 <rotate_90_auto+0x18c>
    804e:	f9 01       	movw	r30, r18
    8050:	93 e0       	ldi	r25, 0x03	; 3
    8052:	ee 0f       	add	r30, r30
    8054:	ff 1f       	adc	r31, r31
    8056:	9a 95       	dec	r25
    8058:	e1 f7       	brne	.-8      	; 0x8052 <rotate_90_auto+0x17a>
    805a:	e0 55       	subi	r30, 0x50	; 80
    805c:	fe 4f       	sbci	r31, 0xFE	; 254
    805e:	91 81       	ldd	r25, Z+1	; 0x01
    8060:	90 61       	ori	r25, 0x10	; 16
    8062:	91 83       	std	Z+1, r25	; 0x01
    8064:	84 ff       	sbrs	r24, 4
    8066:	0b c0       	rjmp	.+22     	; 0x807e <rotate_90_auto+0x1a6>
    8068:	f9 01       	movw	r30, r18
    806a:	73 e0       	ldi	r23, 0x03	; 3
    806c:	ee 0f       	add	r30, r30
    806e:	ff 1f       	adc	r31, r31
    8070:	7a 95       	dec	r23
    8072:	e1 f7       	brne	.-8      	; 0x806c <rotate_90_auto+0x194>
    8074:	e0 55       	subi	r30, 0x50	; 80
    8076:	fe 4f       	sbci	r31, 0xFE	; 254
    8078:	91 81       	ldd	r25, Z+1	; 0x01
    807a:	90 62       	ori	r25, 0x20	; 32
    807c:	91 83       	std	Z+1, r25	; 0x01
    807e:	85 ff       	sbrs	r24, 5
    8080:	0b c0       	rjmp	.+22     	; 0x8098 <rotate_90_auto+0x1c0>
    8082:	f9 01       	movw	r30, r18
    8084:	63 e0       	ldi	r22, 0x03	; 3
    8086:	ee 0f       	add	r30, r30
    8088:	ff 1f       	adc	r31, r31
    808a:	6a 95       	dec	r22
    808c:	e1 f7       	brne	.-8      	; 0x8086 <rotate_90_auto+0x1ae>
    808e:	e0 55       	subi	r30, 0x50	; 80
    8090:	fe 4f       	sbci	r31, 0xFE	; 254
    8092:	91 81       	ldd	r25, Z+1	; 0x01
    8094:	90 64       	ori	r25, 0x40	; 64
    8096:	91 83       	std	Z+1, r25	; 0x01
    8098:	86 ff       	sbrs	r24, 6
    809a:	0b c0       	rjmp	.+22     	; 0x80b2 <rotate_90_auto+0x1da>
    809c:	f9 01       	movw	r30, r18
    809e:	53 e0       	ldi	r21, 0x03	; 3
    80a0:	ee 0f       	add	r30, r30
    80a2:	ff 1f       	adc	r31, r31
    80a4:	5a 95       	dec	r21
    80a6:	e1 f7       	brne	.-8      	; 0x80a0 <rotate_90_auto+0x1c8>
    80a8:	e0 55       	subi	r30, 0x50	; 80
    80aa:	fe 4f       	sbci	r31, 0xFE	; 254
    80ac:	82 81       	ldd	r24, Z+2	; 0x02
    80ae:	80 68       	ori	r24, 0x80	; 128
    80b0:	82 83       	std	Z+2, r24	; 0x02
    80b2:	fd 01       	movw	r30, r26
    80b4:	35 97       	sbiw	r30, 0x05	; 5
    80b6:	90 81       	ld	r25, Z
    80b8:	89 2f       	mov	r24, r25
    80ba:	90 ff       	sbrs	r25, 0
    80bc:	0b c0       	rjmp	.+22     	; 0x80d4 <rotate_90_auto+0x1fc>
    80be:	f9 01       	movw	r30, r18
    80c0:	43 e0       	ldi	r20, 0x03	; 3
    80c2:	ee 0f       	add	r30, r30
    80c4:	ff 1f       	adc	r31, r31
    80c6:	4a 95       	dec	r20
    80c8:	e1 f7       	brne	.-8      	; 0x80c2 <rotate_90_auto+0x1ea>
    80ca:	e0 55       	subi	r30, 0x50	; 80
    80cc:	fe 4f       	sbci	r31, 0xFE	; 254
    80ce:	41 81       	ldd	r20, Z+1	; 0x01
    80d0:	42 60       	ori	r20, 0x02	; 2
    80d2:	41 83       	std	Z+1, r20	; 0x01
    80d4:	81 ff       	sbrs	r24, 1
    80d6:	0b c0       	rjmp	.+22     	; 0x80ee <rotate_90_auto+0x216>
    80d8:	f9 01       	movw	r30, r18
    80da:	73 e0       	ldi	r23, 0x03	; 3
    80dc:	ee 0f       	add	r30, r30
    80de:	ff 1f       	adc	r31, r31
    80e0:	7a 95       	dec	r23
    80e2:	e1 f7       	brne	.-8      	; 0x80dc <rotate_90_auto+0x204>
    80e4:	e0 55       	subi	r30, 0x50	; 80
    80e6:	fe 4f       	sbci	r31, 0xFE	; 254
    80e8:	41 81       	ldd	r20, Z+1	; 0x01
    80ea:	42 60       	ori	r20, 0x02	; 2
    80ec:	41 83       	std	Z+1, r20	; 0x01
    80ee:	82 ff       	sbrs	r24, 2
    80f0:	0b c0       	rjmp	.+22     	; 0x8108 <rotate_90_auto+0x230>
    80f2:	f9 01       	movw	r30, r18
    80f4:	63 e0       	ldi	r22, 0x03	; 3
    80f6:	ee 0f       	add	r30, r30
    80f8:	ff 1f       	adc	r31, r31
    80fa:	6a 95       	dec	r22
    80fc:	e1 f7       	brne	.-8      	; 0x80f6 <rotate_90_auto+0x21e>
    80fe:	e0 55       	subi	r30, 0x50	; 80
    8100:	fe 4f       	sbci	r31, 0xFE	; 254
    8102:	42 81       	ldd	r20, Z+2	; 0x02
    8104:	44 60       	ori	r20, 0x04	; 4
    8106:	42 83       	std	Z+2, r20	; 0x02
    8108:	83 ff       	sbrs	r24, 3
    810a:	0b c0       	rjmp	.+22     	; 0x8122 <rotate_90_auto+0x24a>
    810c:	f9 01       	movw	r30, r18
    810e:	53 e0       	ldi	r21, 0x03	; 3
    8110:	ee 0f       	add	r30, r30
    8112:	ff 1f       	adc	r31, r31
    8114:	5a 95       	dec	r21
    8116:	e1 f7       	brne	.-8      	; 0x8110 <rotate_90_auto+0x238>
    8118:	e0 55       	subi	r30, 0x50	; 80
    811a:	fe 4f       	sbci	r31, 0xFE	; 254
    811c:	42 81       	ldd	r20, Z+2	; 0x02
    811e:	48 60       	ori	r20, 0x08	; 8
    8120:	42 83       	std	Z+2, r20	; 0x02
    8122:	84 ff       	sbrs	r24, 4
    8124:	0b c0       	rjmp	.+22     	; 0x813c <rotate_90_auto+0x264>
    8126:	f9 01       	movw	r30, r18
    8128:	43 e0       	ldi	r20, 0x03	; 3
    812a:	ee 0f       	add	r30, r30
    812c:	ff 1f       	adc	r31, r31
    812e:	4a 95       	dec	r20
    8130:	e1 f7       	brne	.-8      	; 0x812a <rotate_90_auto+0x252>
    8132:	e0 55       	subi	r30, 0x50	; 80
    8134:	fe 4f       	sbci	r31, 0xFE	; 254
    8136:	42 81       	ldd	r20, Z+2	; 0x02
    8138:	40 61       	ori	r20, 0x10	; 16
    813a:	42 83       	std	Z+2, r20	; 0x02
    813c:	85 ff       	sbrs	r24, 5
    813e:	0b c0       	rjmp	.+22     	; 0x8156 <rotate_90_auto+0x27e>
    8140:	f9 01       	movw	r30, r18
    8142:	73 e0       	ldi	r23, 0x03	; 3
    8144:	ee 0f       	add	r30, r30
    8146:	ff 1f       	adc	r31, r31
    8148:	7a 95       	dec	r23
    814a:	e1 f7       	brne	.-8      	; 0x8144 <rotate_90_auto+0x26c>
    814c:	e0 55       	subi	r30, 0x50	; 80
    814e:	fe 4f       	sbci	r31, 0xFE	; 254
    8150:	42 81       	ldd	r20, Z+2	; 0x02
    8152:	40 62       	ori	r20, 0x20	; 32
    8154:	42 83       	std	Z+2, r20	; 0x02
    8156:	86 ff       	sbrs	r24, 6
    8158:	0b c0       	rjmp	.+22     	; 0x8170 <rotate_90_auto+0x298>
    815a:	f9 01       	movw	r30, r18
    815c:	63 e0       	ldi	r22, 0x03	; 3
    815e:	ee 0f       	add	r30, r30
    8160:	ff 1f       	adc	r31, r31
    8162:	6a 95       	dec	r22
    8164:	e1 f7       	brne	.-8      	; 0x815e <rotate_90_auto+0x286>
    8166:	e0 55       	subi	r30, 0x50	; 80
    8168:	fe 4f       	sbci	r31, 0xFE	; 254
    816a:	83 81       	ldd	r24, Z+3	; 0x03
    816c:	80 64       	ori	r24, 0x40	; 64
    816e:	83 83       	std	Z+3, r24	; 0x03
    8170:	97 ff       	sbrs	r25, 7
    8172:	0b c0       	rjmp	.+22     	; 0x818a <rotate_90_auto+0x2b2>
    8174:	f9 01       	movw	r30, r18
    8176:	53 e0       	ldi	r21, 0x03	; 3
    8178:	ee 0f       	add	r30, r30
    817a:	ff 1f       	adc	r31, r31
    817c:	5a 95       	dec	r21
    817e:	e1 f7       	brne	.-8      	; 0x8178 <rotate_90_auto+0x2a0>
    8180:	e0 55       	subi	r30, 0x50	; 80
    8182:	fe 4f       	sbci	r31, 0xFE	; 254
    8184:	83 81       	ldd	r24, Z+3	; 0x03
    8186:	80 68       	ori	r24, 0x80	; 128
    8188:	83 83       	std	Z+3, r24	; 0x03
    818a:	fd 01       	movw	r30, r26
    818c:	34 97       	sbiw	r30, 0x04	; 4
    818e:	90 81       	ld	r25, Z
    8190:	89 2f       	mov	r24, r25
    8192:	90 ff       	sbrs	r25, 0
    8194:	0b c0       	rjmp	.+22     	; 0x81ac <rotate_90_auto+0x2d4>
    8196:	f9 01       	movw	r30, r18
    8198:	43 e0       	ldi	r20, 0x03	; 3
    819a:	ee 0f       	add	r30, r30
    819c:	ff 1f       	adc	r31, r31
    819e:	4a 95       	dec	r20
    81a0:	e1 f7       	brne	.-8      	; 0x819a <rotate_90_auto+0x2c2>
    81a2:	e0 55       	subi	r30, 0x50	; 80
    81a4:	fe 4f       	sbci	r31, 0xFE	; 254
    81a6:	42 81       	ldd	r20, Z+2	; 0x02
    81a8:	41 60       	ori	r20, 0x01	; 1
    81aa:	42 83       	std	Z+2, r20	; 0x02
    81ac:	81 ff       	sbrs	r24, 1
    81ae:	0b c0       	rjmp	.+22     	; 0x81c6 <rotate_90_auto+0x2ee>
    81b0:	f9 01       	movw	r30, r18
    81b2:	73 e0       	ldi	r23, 0x03	; 3
    81b4:	ee 0f       	add	r30, r30
    81b6:	ff 1f       	adc	r31, r31
    81b8:	7a 95       	dec	r23
    81ba:	e1 f7       	brne	.-8      	; 0x81b4 <rotate_90_auto+0x2dc>
    81bc:	e0 55       	subi	r30, 0x50	; 80
    81be:	fe 4f       	sbci	r31, 0xFE	; 254
    81c0:	42 81       	ldd	r20, Z+2	; 0x02
    81c2:	42 60       	ori	r20, 0x02	; 2
    81c4:	42 83       	std	Z+2, r20	; 0x02
    81c6:	82 ff       	sbrs	r24, 2
    81c8:	0b c0       	rjmp	.+22     	; 0x81e0 <rotate_90_auto+0x308>
    81ca:	f9 01       	movw	r30, r18
    81cc:	63 e0       	ldi	r22, 0x03	; 3
    81ce:	ee 0f       	add	r30, r30
    81d0:	ff 1f       	adc	r31, r31
    81d2:	6a 95       	dec	r22
    81d4:	e1 f7       	brne	.-8      	; 0x81ce <rotate_90_auto+0x2f6>
    81d6:	e0 55       	subi	r30, 0x50	; 80
    81d8:	fe 4f       	sbci	r31, 0xFE	; 254
    81da:	43 81       	ldd	r20, Z+3	; 0x03
    81dc:	44 60       	ori	r20, 0x04	; 4
    81de:	43 83       	std	Z+3, r20	; 0x03
    81e0:	83 ff       	sbrs	r24, 3
    81e2:	0b c0       	rjmp	.+22     	; 0x81fa <rotate_90_auto+0x322>
    81e4:	f9 01       	movw	r30, r18
    81e6:	53 e0       	ldi	r21, 0x03	; 3
    81e8:	ee 0f       	add	r30, r30
    81ea:	ff 1f       	adc	r31, r31
    81ec:	5a 95       	dec	r21
    81ee:	e1 f7       	brne	.-8      	; 0x81e8 <rotate_90_auto+0x310>
    81f0:	e0 55       	subi	r30, 0x50	; 80
    81f2:	fe 4f       	sbci	r31, 0xFE	; 254
    81f4:	43 81       	ldd	r20, Z+3	; 0x03
    81f6:	48 60       	ori	r20, 0x08	; 8
    81f8:	43 83       	std	Z+3, r20	; 0x03
    81fa:	84 ff       	sbrs	r24, 4
    81fc:	0b c0       	rjmp	.+22     	; 0x8214 <rotate_90_auto+0x33c>
    81fe:	f9 01       	movw	r30, r18
    8200:	43 e0       	ldi	r20, 0x03	; 3
    8202:	ee 0f       	add	r30, r30
    8204:	ff 1f       	adc	r31, r31
    8206:	4a 95       	dec	r20
    8208:	e1 f7       	brne	.-8      	; 0x8202 <rotate_90_auto+0x32a>
    820a:	e0 55       	subi	r30, 0x50	; 80
    820c:	fe 4f       	sbci	r31, 0xFE	; 254
    820e:	43 81       	ldd	r20, Z+3	; 0x03
    8210:	40 61       	ori	r20, 0x10	; 16
    8212:	43 83       	std	Z+3, r20	; 0x03
    8214:	85 ff       	sbrs	r24, 5
    8216:	0b c0       	rjmp	.+22     	; 0x822e <rotate_90_auto+0x356>
    8218:	f9 01       	movw	r30, r18
    821a:	73 e0       	ldi	r23, 0x03	; 3
    821c:	ee 0f       	add	r30, r30
    821e:	ff 1f       	adc	r31, r31
    8220:	7a 95       	dec	r23
    8222:	e1 f7       	brne	.-8      	; 0x821c <rotate_90_auto+0x344>
    8224:	e0 55       	subi	r30, 0x50	; 80
    8226:	fe 4f       	sbci	r31, 0xFE	; 254
    8228:	43 81       	ldd	r20, Z+3	; 0x03
    822a:	40 62       	ori	r20, 0x20	; 32
    822c:	43 83       	std	Z+3, r20	; 0x03
    822e:	86 ff       	sbrs	r24, 6
    8230:	0b c0       	rjmp	.+22     	; 0x8248 <rotate_90_auto+0x370>
    8232:	f9 01       	movw	r30, r18
    8234:	63 e0       	ldi	r22, 0x03	; 3
    8236:	ee 0f       	add	r30, r30
    8238:	ff 1f       	adc	r31, r31
    823a:	6a 95       	dec	r22
    823c:	e1 f7       	brne	.-8      	; 0x8236 <rotate_90_auto+0x35e>
    823e:	e0 55       	subi	r30, 0x50	; 80
    8240:	fe 4f       	sbci	r31, 0xFE	; 254
    8242:	84 81       	ldd	r24, Z+4	; 0x04
    8244:	80 64       	ori	r24, 0x40	; 64
    8246:	84 83       	std	Z+4, r24	; 0x04
    8248:	97 ff       	sbrs	r25, 7
    824a:	0b c0       	rjmp	.+22     	; 0x8262 <rotate_90_auto+0x38a>
    824c:	f9 01       	movw	r30, r18
    824e:	53 e0       	ldi	r21, 0x03	; 3
    8250:	ee 0f       	add	r30, r30
    8252:	ff 1f       	adc	r31, r31
    8254:	5a 95       	dec	r21
    8256:	e1 f7       	brne	.-8      	; 0x8250 <rotate_90_auto+0x378>
    8258:	e0 55       	subi	r30, 0x50	; 80
    825a:	fe 4f       	sbci	r31, 0xFE	; 254
    825c:	84 81       	ldd	r24, Z+4	; 0x04
    825e:	80 68       	ori	r24, 0x80	; 128
    8260:	84 83       	std	Z+4, r24	; 0x04
    8262:	fd 01       	movw	r30, r26
    8264:	33 97       	sbiw	r30, 0x03	; 3
    8266:	90 81       	ld	r25, Z
    8268:	89 2f       	mov	r24, r25
    826a:	90 ff       	sbrs	r25, 0
    826c:	0b c0       	rjmp	.+22     	; 0x8284 <rotate_90_auto+0x3ac>
    826e:	f9 01       	movw	r30, r18
    8270:	43 e0       	ldi	r20, 0x03	; 3
    8272:	ee 0f       	add	r30, r30
    8274:	ff 1f       	adc	r31, r31
    8276:	4a 95       	dec	r20
    8278:	e1 f7       	brne	.-8      	; 0x8272 <rotate_90_auto+0x39a>
    827a:	e0 55       	subi	r30, 0x50	; 80
    827c:	fe 4f       	sbci	r31, 0xFE	; 254
    827e:	43 81       	ldd	r20, Z+3	; 0x03
    8280:	41 60       	ori	r20, 0x01	; 1
    8282:	43 83       	std	Z+3, r20	; 0x03
    8284:	81 ff       	sbrs	r24, 1
    8286:	0b c0       	rjmp	.+22     	; 0x829e <rotate_90_auto+0x3c6>
    8288:	f9 01       	movw	r30, r18
    828a:	73 e0       	ldi	r23, 0x03	; 3
    828c:	ee 0f       	add	r30, r30
    828e:	ff 1f       	adc	r31, r31
    8290:	7a 95       	dec	r23
    8292:	e1 f7       	brne	.-8      	; 0x828c <rotate_90_auto+0x3b4>
    8294:	e0 55       	subi	r30, 0x50	; 80
    8296:	fe 4f       	sbci	r31, 0xFE	; 254
    8298:	43 81       	ldd	r20, Z+3	; 0x03
    829a:	42 60       	ori	r20, 0x02	; 2
    829c:	43 83       	std	Z+3, r20	; 0x03
    829e:	82 ff       	sbrs	r24, 2
    82a0:	0b c0       	rjmp	.+22     	; 0x82b8 <rotate_90_auto+0x3e0>
    82a2:	f9 01       	movw	r30, r18
    82a4:	63 e0       	ldi	r22, 0x03	; 3
    82a6:	ee 0f       	add	r30, r30
    82a8:	ff 1f       	adc	r31, r31
    82aa:	6a 95       	dec	r22
    82ac:	e1 f7       	brne	.-8      	; 0x82a6 <rotate_90_auto+0x3ce>
    82ae:	e0 55       	subi	r30, 0x50	; 80
    82b0:	fe 4f       	sbci	r31, 0xFE	; 254
    82b2:	44 81       	ldd	r20, Z+4	; 0x04
    82b4:	44 60       	ori	r20, 0x04	; 4
    82b6:	44 83       	std	Z+4, r20	; 0x04
    82b8:	83 ff       	sbrs	r24, 3
    82ba:	0b c0       	rjmp	.+22     	; 0x82d2 <rotate_90_auto+0x3fa>
    82bc:	f9 01       	movw	r30, r18
    82be:	53 e0       	ldi	r21, 0x03	; 3
    82c0:	ee 0f       	add	r30, r30
    82c2:	ff 1f       	adc	r31, r31
    82c4:	5a 95       	dec	r21
    82c6:	e1 f7       	brne	.-8      	; 0x82c0 <rotate_90_auto+0x3e8>
    82c8:	e0 55       	subi	r30, 0x50	; 80
    82ca:	fe 4f       	sbci	r31, 0xFE	; 254
    82cc:	44 81       	ldd	r20, Z+4	; 0x04
    82ce:	48 60       	ori	r20, 0x08	; 8
    82d0:	44 83       	std	Z+4, r20	; 0x04
    82d2:	84 ff       	sbrs	r24, 4
    82d4:	0b c0       	rjmp	.+22     	; 0x82ec <rotate_90_auto+0x414>
    82d6:	f9 01       	movw	r30, r18
    82d8:	43 e0       	ldi	r20, 0x03	; 3
    82da:	ee 0f       	add	r30, r30
    82dc:	ff 1f       	adc	r31, r31
    82de:	4a 95       	dec	r20
    82e0:	e1 f7       	brne	.-8      	; 0x82da <rotate_90_auto+0x402>
    82e2:	e0 55       	subi	r30, 0x50	; 80
    82e4:	fe 4f       	sbci	r31, 0xFE	; 254
    82e6:	44 81       	ldd	r20, Z+4	; 0x04
    82e8:	40 61       	ori	r20, 0x10	; 16
    82ea:	44 83       	std	Z+4, r20	; 0x04
    82ec:	85 ff       	sbrs	r24, 5
    82ee:	0b c0       	rjmp	.+22     	; 0x8306 <rotate_90_auto+0x42e>
    82f0:	f9 01       	movw	r30, r18
    82f2:	73 e0       	ldi	r23, 0x03	; 3
    82f4:	ee 0f       	add	r30, r30
    82f6:	ff 1f       	adc	r31, r31
    82f8:	7a 95       	dec	r23
    82fa:	e1 f7       	brne	.-8      	; 0x82f4 <rotate_90_auto+0x41c>
    82fc:	e0 55       	subi	r30, 0x50	; 80
    82fe:	fe 4f       	sbci	r31, 0xFE	; 254
    8300:	44 81       	ldd	r20, Z+4	; 0x04
    8302:	40 62       	ori	r20, 0x20	; 32
    8304:	44 83       	std	Z+4, r20	; 0x04
    8306:	86 ff       	sbrs	r24, 6
    8308:	0b c0       	rjmp	.+22     	; 0x8320 <rotate_90_auto+0x448>
    830a:	f9 01       	movw	r30, r18
    830c:	63 e0       	ldi	r22, 0x03	; 3
    830e:	ee 0f       	add	r30, r30
    8310:	ff 1f       	adc	r31, r31
    8312:	6a 95       	dec	r22
    8314:	e1 f7       	brne	.-8      	; 0x830e <rotate_90_auto+0x436>
    8316:	e0 55       	subi	r30, 0x50	; 80
    8318:	fe 4f       	sbci	r31, 0xFE	; 254
    831a:	85 81       	ldd	r24, Z+5	; 0x05
    831c:	80 64       	ori	r24, 0x40	; 64
    831e:	85 83       	std	Z+5, r24	; 0x05
    8320:	97 ff       	sbrs	r25, 7
    8322:	0b c0       	rjmp	.+22     	; 0x833a <rotate_90_auto+0x462>
    8324:	f9 01       	movw	r30, r18
    8326:	53 e0       	ldi	r21, 0x03	; 3
    8328:	ee 0f       	add	r30, r30
    832a:	ff 1f       	adc	r31, r31
    832c:	5a 95       	dec	r21
    832e:	e1 f7       	brne	.-8      	; 0x8328 <rotate_90_auto+0x450>
    8330:	e0 55       	subi	r30, 0x50	; 80
    8332:	fe 4f       	sbci	r31, 0xFE	; 254
    8334:	85 81       	ldd	r24, Z+5	; 0x05
    8336:	80 68       	ori	r24, 0x80	; 128
    8338:	85 83       	std	Z+5, r24	; 0x05
    833a:	fd 01       	movw	r30, r26
    833c:	32 97       	sbiw	r30, 0x02	; 2
    833e:	90 81       	ld	r25, Z
    8340:	89 2f       	mov	r24, r25
    8342:	90 ff       	sbrs	r25, 0
    8344:	0b c0       	rjmp	.+22     	; 0x835c <rotate_90_auto+0x484>
    8346:	f9 01       	movw	r30, r18
    8348:	43 e0       	ldi	r20, 0x03	; 3
    834a:	ee 0f       	add	r30, r30
    834c:	ff 1f       	adc	r31, r31
    834e:	4a 95       	dec	r20
    8350:	e1 f7       	brne	.-8      	; 0x834a <rotate_90_auto+0x472>
    8352:	e0 55       	subi	r30, 0x50	; 80
    8354:	fe 4f       	sbci	r31, 0xFE	; 254
    8356:	44 81       	ldd	r20, Z+4	; 0x04
    8358:	41 60       	ori	r20, 0x01	; 1
    835a:	44 83       	std	Z+4, r20	; 0x04
    835c:	81 ff       	sbrs	r24, 1
    835e:	0b c0       	rjmp	.+22     	; 0x8376 <rotate_90_auto+0x49e>
    8360:	f9 01       	movw	r30, r18
    8362:	73 e0       	ldi	r23, 0x03	; 3
    8364:	ee 0f       	add	r30, r30
    8366:	ff 1f       	adc	r31, r31
    8368:	7a 95       	dec	r23
    836a:	e1 f7       	brne	.-8      	; 0x8364 <rotate_90_auto+0x48c>
    836c:	e0 55       	subi	r30, 0x50	; 80
    836e:	fe 4f       	sbci	r31, 0xFE	; 254
    8370:	44 81       	ldd	r20, Z+4	; 0x04
    8372:	42 60       	ori	r20, 0x02	; 2
    8374:	44 83       	std	Z+4, r20	; 0x04
    8376:	82 ff       	sbrs	r24, 2
    8378:	0b c0       	rjmp	.+22     	; 0x8390 <rotate_90_auto+0x4b8>
    837a:	f9 01       	movw	r30, r18
    837c:	63 e0       	ldi	r22, 0x03	; 3
    837e:	ee 0f       	add	r30, r30
    8380:	ff 1f       	adc	r31, r31
    8382:	6a 95       	dec	r22
    8384:	e1 f7       	brne	.-8      	; 0x837e <rotate_90_auto+0x4a6>
    8386:	e0 55       	subi	r30, 0x50	; 80
    8388:	fe 4f       	sbci	r31, 0xFE	; 254
    838a:	45 81       	ldd	r20, Z+5	; 0x05
    838c:	44 60       	ori	r20, 0x04	; 4
    838e:	45 83       	std	Z+5, r20	; 0x05
    8390:	83 ff       	sbrs	r24, 3
    8392:	0b c0       	rjmp	.+22     	; 0x83aa <rotate_90_auto+0x4d2>
    8394:	f9 01       	movw	r30, r18
    8396:	53 e0       	ldi	r21, 0x03	; 3
    8398:	ee 0f       	add	r30, r30
    839a:	ff 1f       	adc	r31, r31
    839c:	5a 95       	dec	r21
    839e:	e1 f7       	brne	.-8      	; 0x8398 <rotate_90_auto+0x4c0>
    83a0:	e0 55       	subi	r30, 0x50	; 80
    83a2:	fe 4f       	sbci	r31, 0xFE	; 254
    83a4:	45 81       	ldd	r20, Z+5	; 0x05
    83a6:	48 60       	ori	r20, 0x08	; 8
    83a8:	45 83       	std	Z+5, r20	; 0x05
    83aa:	84 ff       	sbrs	r24, 4
    83ac:	0b c0       	rjmp	.+22     	; 0x83c4 <rotate_90_auto+0x4ec>
    83ae:	f9 01       	movw	r30, r18
    83b0:	43 e0       	ldi	r20, 0x03	; 3
    83b2:	ee 0f       	add	r30, r30
    83b4:	ff 1f       	adc	r31, r31
    83b6:	4a 95       	dec	r20
    83b8:	e1 f7       	brne	.-8      	; 0x83b2 <rotate_90_auto+0x4da>
    83ba:	e0 55       	subi	r30, 0x50	; 80
    83bc:	fe 4f       	sbci	r31, 0xFE	; 254
    83be:	45 81       	ldd	r20, Z+5	; 0x05
    83c0:	40 61       	ori	r20, 0x10	; 16
    83c2:	45 83       	std	Z+5, r20	; 0x05
    83c4:	85 ff       	sbrs	r24, 5
    83c6:	0b c0       	rjmp	.+22     	; 0x83de <rotate_90_auto+0x506>
    83c8:	f9 01       	movw	r30, r18
    83ca:	73 e0       	ldi	r23, 0x03	; 3
    83cc:	ee 0f       	add	r30, r30
    83ce:	ff 1f       	adc	r31, r31
    83d0:	7a 95       	dec	r23
    83d2:	e1 f7       	brne	.-8      	; 0x83cc <rotate_90_auto+0x4f4>
    83d4:	e0 55       	subi	r30, 0x50	; 80
    83d6:	fe 4f       	sbci	r31, 0xFE	; 254
    83d8:	45 81       	ldd	r20, Z+5	; 0x05
    83da:	40 62       	ori	r20, 0x20	; 32
    83dc:	45 83       	std	Z+5, r20	; 0x05
    83de:	86 ff       	sbrs	r24, 6
    83e0:	0b c0       	rjmp	.+22     	; 0x83f8 <rotate_90_auto+0x520>
    83e2:	f9 01       	movw	r30, r18
    83e4:	63 e0       	ldi	r22, 0x03	; 3
    83e6:	ee 0f       	add	r30, r30
    83e8:	ff 1f       	adc	r31, r31
    83ea:	6a 95       	dec	r22
    83ec:	e1 f7       	brne	.-8      	; 0x83e6 <rotate_90_auto+0x50e>
    83ee:	e0 55       	subi	r30, 0x50	; 80
    83f0:	fe 4f       	sbci	r31, 0xFE	; 254
    83f2:	86 81       	ldd	r24, Z+6	; 0x06
    83f4:	80 64       	ori	r24, 0x40	; 64
    83f6:	86 83       	std	Z+6, r24	; 0x06
    83f8:	97 ff       	sbrs	r25, 7
    83fa:	0b c0       	rjmp	.+22     	; 0x8412 <rotate_90_auto+0x53a>
    83fc:	f9 01       	movw	r30, r18
    83fe:	53 e0       	ldi	r21, 0x03	; 3
    8400:	ee 0f       	add	r30, r30
    8402:	ff 1f       	adc	r31, r31
    8404:	5a 95       	dec	r21
    8406:	e1 f7       	brne	.-8      	; 0x8400 <rotate_90_auto+0x528>
    8408:	e0 55       	subi	r30, 0x50	; 80
    840a:	fe 4f       	sbci	r31, 0xFE	; 254
    840c:	86 81       	ldd	r24, Z+6	; 0x06
    840e:	80 64       	ori	r24, 0x40	; 64
    8410:	86 83       	std	Z+6, r24	; 0x06
    8412:	fd 01       	movw	r30, r26
    8414:	31 97       	sbiw	r30, 0x01	; 1
    8416:	90 81       	ld	r25, Z
    8418:	89 2f       	mov	r24, r25
    841a:	91 ff       	sbrs	r25, 1
    841c:	0b c0       	rjmp	.+22     	; 0x8434 <rotate_90_auto+0x55c>
    841e:	f9 01       	movw	r30, r18
    8420:	43 e0       	ldi	r20, 0x03	; 3
    8422:	ee 0f       	add	r30, r30
    8424:	ff 1f       	adc	r31, r31
    8426:	4a 95       	dec	r20
    8428:	e1 f7       	brne	.-8      	; 0x8422 <rotate_90_auto+0x54a>
    842a:	e0 55       	subi	r30, 0x50	; 80
    842c:	fe 4f       	sbci	r31, 0xFE	; 254
    842e:	45 81       	ldd	r20, Z+5	; 0x05
    8430:	41 60       	ori	r20, 0x01	; 1
    8432:	45 83       	std	Z+5, r20	; 0x05
    8434:	82 ff       	sbrs	r24, 2
    8436:	0b c0       	rjmp	.+22     	; 0x844e <rotate_90_auto+0x576>
    8438:	f9 01       	movw	r30, r18
    843a:	73 e0       	ldi	r23, 0x03	; 3
    843c:	ee 0f       	add	r30, r30
    843e:	ff 1f       	adc	r31, r31
    8440:	7a 95       	dec	r23
    8442:	e1 f7       	brne	.-8      	; 0x843c <rotate_90_auto+0x564>
    8444:	e0 55       	subi	r30, 0x50	; 80
    8446:	fe 4f       	sbci	r31, 0xFE	; 254
    8448:	46 81       	ldd	r20, Z+6	; 0x06
    844a:	42 60       	ori	r20, 0x02	; 2
    844c:	46 83       	std	Z+6, r20	; 0x06
    844e:	83 ff       	sbrs	r24, 3
    8450:	0b c0       	rjmp	.+22     	; 0x8468 <rotate_90_auto+0x590>
    8452:	f9 01       	movw	r30, r18
    8454:	63 e0       	ldi	r22, 0x03	; 3
    8456:	ee 0f       	add	r30, r30
    8458:	ff 1f       	adc	r31, r31
    845a:	6a 95       	dec	r22
    845c:	e1 f7       	brne	.-8      	; 0x8456 <rotate_90_auto+0x57e>
    845e:	e0 55       	subi	r30, 0x50	; 80
    8460:	fe 4f       	sbci	r31, 0xFE	; 254
    8462:	46 81       	ldd	r20, Z+6	; 0x06
    8464:	44 60       	ori	r20, 0x04	; 4
    8466:	46 83       	std	Z+6, r20	; 0x06
    8468:	84 ff       	sbrs	r24, 4
    846a:	0b c0       	rjmp	.+22     	; 0x8482 <rotate_90_auto+0x5aa>
    846c:	f9 01       	movw	r30, r18
    846e:	53 e0       	ldi	r21, 0x03	; 3
    8470:	ee 0f       	add	r30, r30
    8472:	ff 1f       	adc	r31, r31
    8474:	5a 95       	dec	r21
    8476:	e1 f7       	brne	.-8      	; 0x8470 <rotate_90_auto+0x598>
    8478:	e0 55       	subi	r30, 0x50	; 80
    847a:	fe 4f       	sbci	r31, 0xFE	; 254
    847c:	46 81       	ldd	r20, Z+6	; 0x06
    847e:	48 60       	ori	r20, 0x08	; 8
    8480:	46 83       	std	Z+6, r20	; 0x06
    8482:	85 ff       	sbrs	r24, 5
    8484:	0b c0       	rjmp	.+22     	; 0x849c <rotate_90_auto+0x5c4>
    8486:	f9 01       	movw	r30, r18
    8488:	43 e0       	ldi	r20, 0x03	; 3
    848a:	ee 0f       	add	r30, r30
    848c:	ff 1f       	adc	r31, r31
    848e:	4a 95       	dec	r20
    8490:	e1 f7       	brne	.-8      	; 0x848a <rotate_90_auto+0x5b2>
    8492:	e0 55       	subi	r30, 0x50	; 80
    8494:	fe 4f       	sbci	r31, 0xFE	; 254
    8496:	46 81       	ldd	r20, Z+6	; 0x06
    8498:	40 61       	ori	r20, 0x10	; 16
    849a:	46 83       	std	Z+6, r20	; 0x06
    849c:	86 ff       	sbrs	r24, 6
    849e:	0b c0       	rjmp	.+22     	; 0x84b6 <rotate_90_auto+0x5de>
    84a0:	f9 01       	movw	r30, r18
    84a2:	83 e0       	ldi	r24, 0x03	; 3
    84a4:	ee 0f       	add	r30, r30
    84a6:	ff 1f       	adc	r31, r31
    84a8:	8a 95       	dec	r24
    84aa:	e1 f7       	brne	.-8      	; 0x84a4 <rotate_90_auto+0x5cc>
    84ac:	e0 55       	subi	r30, 0x50	; 80
    84ae:	fe 4f       	sbci	r31, 0xFE	; 254
    84b0:	87 81       	ldd	r24, Z+7	; 0x07
    84b2:	80 62       	ori	r24, 0x20	; 32
    84b4:	87 83       	std	Z+7, r24	; 0x07
    84b6:	97 ff       	sbrs	r25, 7
    84b8:	0b c0       	rjmp	.+22     	; 0x84d0 <rotate_90_auto+0x5f8>
    84ba:	f9 01       	movw	r30, r18
    84bc:	73 e0       	ldi	r23, 0x03	; 3
    84be:	ee 0f       	add	r30, r30
    84c0:	ff 1f       	adc	r31, r31
    84c2:	7a 95       	dec	r23
    84c4:	e1 f7       	brne	.-8      	; 0x84be <rotate_90_auto+0x5e6>
    84c6:	e0 55       	subi	r30, 0x50	; 80
    84c8:	fe 4f       	sbci	r31, 0xFE	; 254
    84ca:	87 81       	ldd	r24, Z+7	; 0x07
    84cc:	80 64       	ori	r24, 0x40	; 64
    84ce:	87 83       	std	Z+7, r24	; 0x07
    84d0:	8c 91       	ld	r24, X
    84d2:	81 ff       	sbrs	r24, 1
    84d4:	0b c0       	rjmp	.+22     	; 0x84ec <rotate_90_auto+0x614>
    84d6:	f9 01       	movw	r30, r18
    84d8:	63 e0       	ldi	r22, 0x03	; 3
    84da:	ee 0f       	add	r30, r30
    84dc:	ff 1f       	adc	r31, r31
    84de:	6a 95       	dec	r22
    84e0:	e1 f7       	brne	.-8      	; 0x84da <rotate_90_auto+0x602>
    84e2:	e0 55       	subi	r30, 0x50	; 80
    84e4:	fe 4f       	sbci	r31, 0xFE	; 254
    84e6:	96 81       	ldd	r25, Z+6	; 0x06
    84e8:	91 60       	ori	r25, 0x01	; 1
    84ea:	96 83       	std	Z+6, r25	; 0x06
    84ec:	82 ff       	sbrs	r24, 2
    84ee:	0b c0       	rjmp	.+22     	; 0x8506 <rotate_90_auto+0x62e>
    84f0:	f9 01       	movw	r30, r18
    84f2:	53 e0       	ldi	r21, 0x03	; 3
    84f4:	ee 0f       	add	r30, r30
    84f6:	ff 1f       	adc	r31, r31
    84f8:	5a 95       	dec	r21
    84fa:	e1 f7       	brne	.-8      	; 0x84f4 <rotate_90_auto+0x61c>
    84fc:	e0 55       	subi	r30, 0x50	; 80
    84fe:	fe 4f       	sbci	r31, 0xFE	; 254
    8500:	96 81       	ldd	r25, Z+6	; 0x06
    8502:	92 60       	ori	r25, 0x02	; 2
    8504:	96 83       	std	Z+6, r25	; 0x06
    8506:	83 ff       	sbrs	r24, 3
    8508:	0b c0       	rjmp	.+22     	; 0x8520 <rotate_90_auto+0x648>
    850a:	f9 01       	movw	r30, r18
    850c:	43 e0       	ldi	r20, 0x03	; 3
    850e:	ee 0f       	add	r30, r30
    8510:	ff 1f       	adc	r31, r31
    8512:	4a 95       	dec	r20
    8514:	e1 f7       	brne	.-8      	; 0x850e <rotate_90_auto+0x636>
    8516:	e0 55       	subi	r30, 0x50	; 80
    8518:	fe 4f       	sbci	r31, 0xFE	; 254
    851a:	97 81       	ldd	r25, Z+7	; 0x07
    851c:	94 60       	ori	r25, 0x04	; 4
    851e:	97 83       	std	Z+7, r25	; 0x07
    8520:	84 ff       	sbrs	r24, 4
    8522:	0b c0       	rjmp	.+22     	; 0x853a <rotate_90_auto+0x662>
    8524:	f9 01       	movw	r30, r18
    8526:	93 e0       	ldi	r25, 0x03	; 3
    8528:	ee 0f       	add	r30, r30
    852a:	ff 1f       	adc	r31, r31
    852c:	9a 95       	dec	r25
    852e:	e1 f7       	brne	.-8      	; 0x8528 <rotate_90_auto+0x650>
    8530:	e0 55       	subi	r30, 0x50	; 80
    8532:	fe 4f       	sbci	r31, 0xFE	; 254
    8534:	97 81       	ldd	r25, Z+7	; 0x07
    8536:	98 60       	ori	r25, 0x08	; 8
    8538:	97 83       	std	Z+7, r25	; 0x07
    853a:	85 ff       	sbrs	r24, 5
    853c:	0b c0       	rjmp	.+22     	; 0x8554 <rotate_90_auto+0x67c>
    853e:	f9 01       	movw	r30, r18
    8540:	73 e0       	ldi	r23, 0x03	; 3
    8542:	ee 0f       	add	r30, r30
    8544:	ff 1f       	adc	r31, r31
    8546:	7a 95       	dec	r23
    8548:	e1 f7       	brne	.-8      	; 0x8542 <rotate_90_auto+0x66a>
    854a:	e0 55       	subi	r30, 0x50	; 80
    854c:	fe 4f       	sbci	r31, 0xFE	; 254
    854e:	87 81       	ldd	r24, Z+7	; 0x07
    8550:	80 61       	ori	r24, 0x10	; 16
    8552:	87 83       	std	Z+7, r24	; 0x07
    8554:	2f 5f       	subi	r18, 0xFF	; 255
    8556:	3f 4f       	sbci	r19, 0xFF	; 255
    8558:	18 96       	adiw	r26, 0x08	; 8
    855a:	28 30       	cpi	r18, 0x08	; 8
    855c:	31 05       	cpc	r19, r1
    855e:	09 f0       	breq	.+2      	; 0x8562 <rotate_90_auto+0x68a>
    8560:	06 cd       	rjmp	.-1524   	; 0x7f6e <rotate_90_auto+0x96>
    8562:	85 e0       	ldi	r24, 0x05	; 5
    8564:	0e 94 c8 3e 	call	0x7d90	; 0x7d90 <cube_show_loop>
    8568:	0e 94 9d 3d 	call	0x7b3a	; 0x7b3a <cube_clear>
    856c:	de 01       	movw	r26, r28
    856e:	18 96       	adiw	r26, 0x08	; 8
    8570:	20 e0       	ldi	r18, 0x00	; 0
    8572:	30 e0       	ldi	r19, 0x00	; 0
    8574:	fd 01       	movw	r30, r26
    8576:	37 97       	sbiw	r30, 0x07	; 7
    8578:	80 81       	ld	r24, Z
    857a:	82 ff       	sbrs	r24, 2
    857c:	0b c0       	rjmp	.+22     	; 0x8594 <rotate_90_auto+0x6bc>
    857e:	f9 01       	movw	r30, r18
    8580:	63 e0       	ldi	r22, 0x03	; 3
    8582:	ee 0f       	add	r30, r30
    8584:	ff 1f       	adc	r31, r31
    8586:	6a 95       	dec	r22
    8588:	e1 f7       	brne	.-8      	; 0x8582 <rotate_90_auto+0x6aa>
    858a:	e0 55       	subi	r30, 0x50	; 80
    858c:	fe 4f       	sbci	r31, 0xFE	; 254
    858e:	90 81       	ld	r25, Z
    8590:	90 61       	ori	r25, 0x10	; 16
    8592:	90 83       	st	Z, r25
    8594:	83 ff       	sbrs	r24, 3
    8596:	0b c0       	rjmp	.+22     	; 0x85ae <rotate_90_auto+0x6d6>
    8598:	f9 01       	movw	r30, r18
    859a:	53 e0       	ldi	r21, 0x03	; 3
    859c:	ee 0f       	add	r30, r30
    859e:	ff 1f       	adc	r31, r31
    85a0:	5a 95       	dec	r21
    85a2:	e1 f7       	brne	.-8      	; 0x859c <rotate_90_auto+0x6c4>
    85a4:	e0 55       	subi	r30, 0x50	; 80
    85a6:	fe 4f       	sbci	r31, 0xFE	; 254
    85a8:	90 81       	ld	r25, Z
    85aa:	90 62       	ori	r25, 0x20	; 32
    85ac:	90 83       	st	Z, r25
    85ae:	84 ff       	sbrs	r24, 4
    85b0:	0b c0       	rjmp	.+22     	; 0x85c8 <rotate_90_auto+0x6f0>
    85b2:	f9 01       	movw	r30, r18
    85b4:	43 e0       	ldi	r20, 0x03	; 3
    85b6:	ee 0f       	add	r30, r30
    85b8:	ff 1f       	adc	r31, r31
    85ba:	4a 95       	dec	r20
    85bc:	e1 f7       	brne	.-8      	; 0x85b6 <rotate_90_auto+0x6de>
    85be:	e0 55       	subi	r30, 0x50	; 80
    85c0:	fe 4f       	sbci	r31, 0xFE	; 254
    85c2:	91 81       	ldd	r25, Z+1	; 0x01
    85c4:	90 64       	ori	r25, 0x40	; 64
    85c6:	91 83       	std	Z+1, r25	; 0x01
    85c8:	85 ff       	sbrs	r24, 5
    85ca:	0b c0       	rjmp	.+22     	; 0x85e2 <rotate_90_auto+0x70a>
    85cc:	f9 01       	movw	r30, r18
    85ce:	93 e0       	ldi	r25, 0x03	; 3
    85d0:	ee 0f       	add	r30, r30
    85d2:	ff 1f       	adc	r31, r31
    85d4:	9a 95       	dec	r25
    85d6:	e1 f7       	brne	.-8      	; 0x85d0 <rotate_90_auto+0x6f8>
    85d8:	e0 55       	subi	r30, 0x50	; 80
    85da:	fe 4f       	sbci	r31, 0xFE	; 254
    85dc:	91 81       	ldd	r25, Z+1	; 0x01
    85de:	90 68       	ori	r25, 0x80	; 128
    85e0:	91 83       	std	Z+1, r25	; 0x01
    85e2:	86 ff       	sbrs	r24, 6
    85e4:	0b c0       	rjmp	.+22     	; 0x85fc <rotate_90_auto+0x724>
    85e6:	f9 01       	movw	r30, r18
    85e8:	83 e0       	ldi	r24, 0x03	; 3
    85ea:	ee 0f       	add	r30, r30
    85ec:	ff 1f       	adc	r31, r31
    85ee:	8a 95       	dec	r24
    85f0:	e1 f7       	brne	.-8      	; 0x85ea <rotate_90_auto+0x712>
    85f2:	e0 55       	subi	r30, 0x50	; 80
    85f4:	fe 4f       	sbci	r31, 0xFE	; 254
    85f6:	82 81       	ldd	r24, Z+2	; 0x02
    85f8:	80 68       	ori	r24, 0x80	; 128
    85fa:	82 83       	std	Z+2, r24	; 0x02
    85fc:	fd 01       	movw	r30, r26
    85fe:	36 97       	sbiw	r30, 0x06	; 6
    8600:	80 81       	ld	r24, Z
    8602:	80 ff       	sbrs	r24, 0
    8604:	0b c0       	rjmp	.+22     	; 0x861c <rotate_90_auto+0x744>
    8606:	f9 01       	movw	r30, r18
    8608:	73 e0       	ldi	r23, 0x03	; 3
    860a:	ee 0f       	add	r30, r30
    860c:	ff 1f       	adc	r31, r31
    860e:	7a 95       	dec	r23
    8610:	e1 f7       	brne	.-8      	; 0x860a <rotate_90_auto+0x732>
    8612:	e0 55       	subi	r30, 0x50	; 80
    8614:	fe 4f       	sbci	r31, 0xFE	; 254
    8616:	90 81       	ld	r25, Z
    8618:	94 60       	ori	r25, 0x04	; 4
    861a:	90 83       	st	Z, r25
    861c:	81 ff       	sbrs	r24, 1
    861e:	0b c0       	rjmp	.+22     	; 0x8636 <rotate_90_auto+0x75e>
    8620:	f9 01       	movw	r30, r18
    8622:	63 e0       	ldi	r22, 0x03	; 3
    8624:	ee 0f       	add	r30, r30
    8626:	ff 1f       	adc	r31, r31
    8628:	6a 95       	dec	r22
    862a:	e1 f7       	brne	.-8      	; 0x8624 <rotate_90_auto+0x74c>
    862c:	e0 55       	subi	r30, 0x50	; 80
    862e:	fe 4f       	sbci	r31, 0xFE	; 254
    8630:	90 81       	ld	r25, Z
    8632:	98 60       	ori	r25, 0x08	; 8
    8634:	90 83       	st	Z, r25
    8636:	82 ff       	sbrs	r24, 2
    8638:	0b c0       	rjmp	.+22     	; 0x8650 <rotate_90_auto+0x778>
    863a:	f9 01       	movw	r30, r18
    863c:	53 e0       	ldi	r21, 0x03	; 3
    863e:	ee 0f       	add	r30, r30
    8640:	ff 1f       	adc	r31, r31
    8642:	5a 95       	dec	r21
    8644:	e1 f7       	brne	.-8      	; 0x863e <rotate_90_auto+0x766>
    8646:	e0 55       	subi	r30, 0x50	; 80
    8648:	fe 4f       	sbci	r31, 0xFE	; 254
    864a:	91 81       	ldd	r25, Z+1	; 0x01
    864c:	98 60       	ori	r25, 0x08	; 8
    864e:	91 83       	std	Z+1, r25	; 0x01
    8650:	83 ff       	sbrs	r24, 3
    8652:	0b c0       	rjmp	.+22     	; 0x866a <rotate_90_auto+0x792>
    8654:	f9 01       	movw	r30, r18
    8656:	43 e0       	ldi	r20, 0x03	; 3
    8658:	ee 0f       	add	r30, r30
    865a:	ff 1f       	adc	r31, r31
    865c:	4a 95       	dec	r20
    865e:	e1 f7       	brne	.-8      	; 0x8658 <rotate_90_auto+0x780>
    8660:	e0 55       	subi	r30, 0x50	; 80
    8662:	fe 4f       	sbci	r31, 0xFE	; 254
    8664:	91 81       	ldd	r25, Z+1	; 0x01
    8666:	90 61       	ori	r25, 0x10	; 16
    8668:	91 83       	std	Z+1, r25	; 0x01
    866a:	84 ff       	sbrs	r24, 4
    866c:	0b c0       	rjmp	.+22     	; 0x8684 <rotate_90_auto+0x7ac>
    866e:	f9 01       	movw	r30, r18
    8670:	93 e0       	ldi	r25, 0x03	; 3
    8672:	ee 0f       	add	r30, r30
    8674:	ff 1f       	adc	r31, r31
    8676:	9a 95       	dec	r25
    8678:	e1 f7       	brne	.-8      	; 0x8672 <rotate_90_auto+0x79a>
    867a:	e0 55       	subi	r30, 0x50	; 80
    867c:	fe 4f       	sbci	r31, 0xFE	; 254
    867e:	92 81       	ldd	r25, Z+2	; 0x02
    8680:	90 62       	ori	r25, 0x20	; 32
    8682:	92 83       	std	Z+2, r25	; 0x02
    8684:	85 ff       	sbrs	r24, 5
    8686:	0b c0       	rjmp	.+22     	; 0x869e <rotate_90_auto+0x7c6>
    8688:	f9 01       	movw	r30, r18
    868a:	73 e0       	ldi	r23, 0x03	; 3
    868c:	ee 0f       	add	r30, r30
    868e:	ff 1f       	adc	r31, r31
    8690:	7a 95       	dec	r23
    8692:	e1 f7       	brne	.-8      	; 0x868c <rotate_90_auto+0x7b4>
    8694:	e0 55       	subi	r30, 0x50	; 80
    8696:	fe 4f       	sbci	r31, 0xFE	; 254
    8698:	92 81       	ldd	r25, Z+2	; 0x02
    869a:	90 64       	ori	r25, 0x40	; 64
    869c:	92 83       	std	Z+2, r25	; 0x02
    869e:	86 ff       	sbrs	r24, 6
    86a0:	0b c0       	rjmp	.+22     	; 0x86b8 <rotate_90_auto+0x7e0>
    86a2:	f9 01       	movw	r30, r18
    86a4:	63 e0       	ldi	r22, 0x03	; 3
    86a6:	ee 0f       	add	r30, r30
    86a8:	ff 1f       	adc	r31, r31
    86aa:	6a 95       	dec	r22
    86ac:	e1 f7       	brne	.-8      	; 0x86a6 <rotate_90_auto+0x7ce>
    86ae:	e0 55       	subi	r30, 0x50	; 80
    86b0:	fe 4f       	sbci	r31, 0xFE	; 254
    86b2:	83 81       	ldd	r24, Z+3	; 0x03
    86b4:	80 68       	ori	r24, 0x80	; 128
    86b6:	83 83       	std	Z+3, r24	; 0x03
    86b8:	fd 01       	movw	r30, r26
    86ba:	35 97       	sbiw	r30, 0x05	; 5
    86bc:	90 81       	ld	r25, Z
    86be:	89 2f       	mov	r24, r25
    86c0:	90 ff       	sbrs	r25, 0
    86c2:	0b c0       	rjmp	.+22     	; 0x86da <rotate_90_auto+0x802>
    86c4:	f9 01       	movw	r30, r18
    86c6:	53 e0       	ldi	r21, 0x03	; 3
    86c8:	ee 0f       	add	r30, r30
    86ca:	ff 1f       	adc	r31, r31
    86cc:	5a 95       	dec	r21
    86ce:	e1 f7       	brne	.-8      	; 0x86c8 <rotate_90_auto+0x7f0>
    86d0:	e0 55       	subi	r30, 0x50	; 80
    86d2:	fe 4f       	sbci	r31, 0xFE	; 254
    86d4:	40 81       	ld	r20, Z
    86d6:	42 60       	ori	r20, 0x02	; 2
    86d8:	40 83       	st	Z, r20
    86da:	81 ff       	sbrs	r24, 1
    86dc:	0b c0       	rjmp	.+22     	; 0x86f4 <rotate_90_auto+0x81c>
    86de:	f9 01       	movw	r30, r18
    86e0:	43 e0       	ldi	r20, 0x03	; 3
    86e2:	ee 0f       	add	r30, r30
    86e4:	ff 1f       	adc	r31, r31
    86e6:	4a 95       	dec	r20
    86e8:	e1 f7       	brne	.-8      	; 0x86e2 <rotate_90_auto+0x80a>
    86ea:	e0 55       	subi	r30, 0x50	; 80
    86ec:	fe 4f       	sbci	r31, 0xFE	; 254
    86ee:	41 81       	ldd	r20, Z+1	; 0x01
    86f0:	44 60       	ori	r20, 0x04	; 4
    86f2:	41 83       	std	Z+1, r20	; 0x01
    86f4:	82 ff       	sbrs	r24, 2
    86f6:	0b c0       	rjmp	.+22     	; 0x870e <rotate_90_auto+0x836>
    86f8:	f9 01       	movw	r30, r18
    86fa:	73 e0       	ldi	r23, 0x03	; 3
    86fc:	ee 0f       	add	r30, r30
    86fe:	ff 1f       	adc	r31, r31
    8700:	7a 95       	dec	r23
    8702:	e1 f7       	brne	.-8      	; 0x86fc <rotate_90_auto+0x824>
    8704:	e0 55       	subi	r30, 0x50	; 80
    8706:	fe 4f       	sbci	r31, 0xFE	; 254
    8708:	41 81       	ldd	r20, Z+1	; 0x01
    870a:	48 60       	ori	r20, 0x08	; 8
    870c:	41 83       	std	Z+1, r20	; 0x01
    870e:	83 ff       	sbrs	r24, 3
    8710:	0b c0       	rjmp	.+22     	; 0x8728 <rotate_90_auto+0x850>
    8712:	f9 01       	movw	r30, r18
    8714:	63 e0       	ldi	r22, 0x03	; 3
    8716:	ee 0f       	add	r30, r30
    8718:	ff 1f       	adc	r31, r31
    871a:	6a 95       	dec	r22
    871c:	e1 f7       	brne	.-8      	; 0x8716 <rotate_90_auto+0x83e>
    871e:	e0 55       	subi	r30, 0x50	; 80
    8720:	fe 4f       	sbci	r31, 0xFE	; 254
    8722:	42 81       	ldd	r20, Z+2	; 0x02
    8724:	40 61       	ori	r20, 0x10	; 16
    8726:	42 83       	std	Z+2, r20	; 0x02
    8728:	84 ff       	sbrs	r24, 4
    872a:	0b c0       	rjmp	.+22     	; 0x8742 <rotate_90_auto+0x86a>
    872c:	f9 01       	movw	r30, r18
    872e:	53 e0       	ldi	r21, 0x03	; 3
    8730:	ee 0f       	add	r30, r30
    8732:	ff 1f       	adc	r31, r31
    8734:	5a 95       	dec	r21
    8736:	e1 f7       	brne	.-8      	; 0x8730 <rotate_90_auto+0x858>
    8738:	e0 55       	subi	r30, 0x50	; 80
    873a:	fe 4f       	sbci	r31, 0xFE	; 254
    873c:	42 81       	ldd	r20, Z+2	; 0x02
    873e:	40 62       	ori	r20, 0x20	; 32
    8740:	42 83       	std	Z+2, r20	; 0x02
    8742:	85 ff       	sbrs	r24, 5
    8744:	0b c0       	rjmp	.+22     	; 0x875c <rotate_90_auto+0x884>
    8746:	f9 01       	movw	r30, r18
    8748:	43 e0       	ldi	r20, 0x03	; 3
    874a:	ee 0f       	add	r30, r30
    874c:	ff 1f       	adc	r31, r31
    874e:	4a 95       	dec	r20
    8750:	e1 f7       	brne	.-8      	; 0x874a <rotate_90_auto+0x872>
    8752:	e0 55       	subi	r30, 0x50	; 80
    8754:	fe 4f       	sbci	r31, 0xFE	; 254
    8756:	43 81       	ldd	r20, Z+3	; 0x03
    8758:	40 64       	ori	r20, 0x40	; 64
    875a:	43 83       	std	Z+3, r20	; 0x03
    875c:	86 ff       	sbrs	r24, 6
    875e:	0b c0       	rjmp	.+22     	; 0x8776 <rotate_90_auto+0x89e>
    8760:	f9 01       	movw	r30, r18
    8762:	73 e0       	ldi	r23, 0x03	; 3
    8764:	ee 0f       	add	r30, r30
    8766:	ff 1f       	adc	r31, r31
    8768:	7a 95       	dec	r23
    876a:	e1 f7       	brne	.-8      	; 0x8764 <rotate_90_auto+0x88c>
    876c:	e0 55       	subi	r30, 0x50	; 80
    876e:	fe 4f       	sbci	r31, 0xFE	; 254
    8770:	83 81       	ldd	r24, Z+3	; 0x03
    8772:	80 64       	ori	r24, 0x40	; 64
    8774:	83 83       	std	Z+3, r24	; 0x03
    8776:	97 ff       	sbrs	r25, 7
    8778:	0b c0       	rjmp	.+22     	; 0x8790 <rotate_90_auto+0x8b8>
    877a:	f9 01       	movw	r30, r18
    877c:	63 e0       	ldi	r22, 0x03	; 3
    877e:	ee 0f       	add	r30, r30
    8780:	ff 1f       	adc	r31, r31
    8782:	6a 95       	dec	r22
    8784:	e1 f7       	brne	.-8      	; 0x877e <rotate_90_auto+0x8a6>
    8786:	e0 55       	subi	r30, 0x50	; 80
    8788:	fe 4f       	sbci	r31, 0xFE	; 254
    878a:	84 81       	ldd	r24, Z+4	; 0x04
    878c:	80 68       	ori	r24, 0x80	; 128
    878e:	84 83       	std	Z+4, r24	; 0x04
    8790:	fd 01       	movw	r30, r26
    8792:	34 97       	sbiw	r30, 0x04	; 4
    8794:	90 81       	ld	r25, Z
    8796:	89 2f       	mov	r24, r25
    8798:	90 ff       	sbrs	r25, 0
    879a:	0b c0       	rjmp	.+22     	; 0x87b2 <rotate_90_auto+0x8da>
    879c:	f9 01       	movw	r30, r18
    879e:	53 e0       	ldi	r21, 0x03	; 3
    87a0:	ee 0f       	add	r30, r30
    87a2:	ff 1f       	adc	r31, r31
    87a4:	5a 95       	dec	r21
    87a6:	e1 f7       	brne	.-8      	; 0x87a0 <rotate_90_auto+0x8c8>
    87a8:	e0 55       	subi	r30, 0x50	; 80
    87aa:	fe 4f       	sbci	r31, 0xFE	; 254
    87ac:	41 81       	ldd	r20, Z+1	; 0x01
    87ae:	42 60       	ori	r20, 0x02	; 2
    87b0:	41 83       	std	Z+1, r20	; 0x01
    87b2:	81 ff       	sbrs	r24, 1
    87b4:	0b c0       	rjmp	.+22     	; 0x87cc <rotate_90_auto+0x8f4>
    87b6:	f9 01       	movw	r30, r18
    87b8:	43 e0       	ldi	r20, 0x03	; 3
    87ba:	ee 0f       	add	r30, r30
    87bc:	ff 1f       	adc	r31, r31
    87be:	4a 95       	dec	r20
    87c0:	e1 f7       	brne	.-8      	; 0x87ba <rotate_90_auto+0x8e2>
    87c2:	e0 55       	subi	r30, 0x50	; 80
    87c4:	fe 4f       	sbci	r31, 0xFE	; 254
    87c6:	42 81       	ldd	r20, Z+2	; 0x02
    87c8:	44 60       	ori	r20, 0x04	; 4
    87ca:	42 83       	std	Z+2, r20	; 0x02
    87cc:	82 ff       	sbrs	r24, 2
    87ce:	0b c0       	rjmp	.+22     	; 0x87e6 <rotate_90_auto+0x90e>
    87d0:	f9 01       	movw	r30, r18
    87d2:	73 e0       	ldi	r23, 0x03	; 3
    87d4:	ee 0f       	add	r30, r30
    87d6:	ff 1f       	adc	r31, r31
    87d8:	7a 95       	dec	r23
    87da:	e1 f7       	brne	.-8      	; 0x87d4 <rotate_90_auto+0x8fc>
    87dc:	e0 55       	subi	r30, 0x50	; 80
    87de:	fe 4f       	sbci	r31, 0xFE	; 254
    87e0:	42 81       	ldd	r20, Z+2	; 0x02
    87e2:	44 60       	ori	r20, 0x04	; 4
    87e4:	42 83       	std	Z+2, r20	; 0x02
    87e6:	83 ff       	sbrs	r24, 3
    87e8:	0b c0       	rjmp	.+22     	; 0x8800 <rotate_90_auto+0x928>
    87ea:	f9 01       	movw	r30, r18
    87ec:	63 e0       	ldi	r22, 0x03	; 3
    87ee:	ee 0f       	add	r30, r30
    87f0:	ff 1f       	adc	r31, r31
    87f2:	6a 95       	dec	r22
    87f4:	e1 f7       	brne	.-8      	; 0x87ee <rotate_90_auto+0x916>
    87f6:	e0 55       	subi	r30, 0x50	; 80
    87f8:	fe 4f       	sbci	r31, 0xFE	; 254
    87fa:	43 81       	ldd	r20, Z+3	; 0x03
    87fc:	48 60       	ori	r20, 0x08	; 8
    87fe:	43 83       	std	Z+3, r20	; 0x03
    8800:	84 ff       	sbrs	r24, 4
    8802:	0b c0       	rjmp	.+22     	; 0x881a <rotate_90_auto+0x942>
    8804:	f9 01       	movw	r30, r18
    8806:	53 e0       	ldi	r21, 0x03	; 3
    8808:	ee 0f       	add	r30, r30
    880a:	ff 1f       	adc	r31, r31
    880c:	5a 95       	dec	r21
    880e:	e1 f7       	brne	.-8      	; 0x8808 <rotate_90_auto+0x930>
    8810:	e0 55       	subi	r30, 0x50	; 80
    8812:	fe 4f       	sbci	r31, 0xFE	; 254
    8814:	43 81       	ldd	r20, Z+3	; 0x03
    8816:	40 61       	ori	r20, 0x10	; 16
    8818:	43 83       	std	Z+3, r20	; 0x03
    881a:	85 ff       	sbrs	r24, 5
    881c:	0b c0       	rjmp	.+22     	; 0x8834 <rotate_90_auto+0x95c>
    881e:	f9 01       	movw	r30, r18
    8820:	43 e0       	ldi	r20, 0x03	; 3
    8822:	ee 0f       	add	r30, r30
    8824:	ff 1f       	adc	r31, r31
    8826:	4a 95       	dec	r20
    8828:	e1 f7       	brne	.-8      	; 0x8822 <rotate_90_auto+0x94a>
    882a:	e0 55       	subi	r30, 0x50	; 80
    882c:	fe 4f       	sbci	r31, 0xFE	; 254
    882e:	44 81       	ldd	r20, Z+4	; 0x04
    8830:	40 62       	ori	r20, 0x20	; 32
    8832:	44 83       	std	Z+4, r20	; 0x04
    8834:	86 ff       	sbrs	r24, 6
    8836:	0b c0       	rjmp	.+22     	; 0x884e <rotate_90_auto+0x976>
    8838:	f9 01       	movw	r30, r18
    883a:	73 e0       	ldi	r23, 0x03	; 3
    883c:	ee 0f       	add	r30, r30
    883e:	ff 1f       	adc	r31, r31
    8840:	7a 95       	dec	r23
    8842:	e1 f7       	brne	.-8      	; 0x883c <rotate_90_auto+0x964>
    8844:	e0 55       	subi	r30, 0x50	; 80
    8846:	fe 4f       	sbci	r31, 0xFE	; 254
    8848:	84 81       	ldd	r24, Z+4	; 0x04
    884a:	80 64       	ori	r24, 0x40	; 64
    884c:	84 83       	std	Z+4, r24	; 0x04
    884e:	97 ff       	sbrs	r25, 7
    8850:	0b c0       	rjmp	.+22     	; 0x8868 <rotate_90_auto+0x990>
    8852:	f9 01       	movw	r30, r18
    8854:	63 e0       	ldi	r22, 0x03	; 3
    8856:	ee 0f       	add	r30, r30
    8858:	ff 1f       	adc	r31, r31
    885a:	6a 95       	dec	r22
    885c:	e1 f7       	brne	.-8      	; 0x8856 <rotate_90_auto+0x97e>
    885e:	e0 55       	subi	r30, 0x50	; 80
    8860:	fe 4f       	sbci	r31, 0xFE	; 254
    8862:	85 81       	ldd	r24, Z+5	; 0x05
    8864:	80 68       	ori	r24, 0x80	; 128
    8866:	85 83       	std	Z+5, r24	; 0x05
    8868:	fd 01       	movw	r30, r26
    886a:	33 97       	sbiw	r30, 0x03	; 3
    886c:	90 81       	ld	r25, Z
    886e:	89 2f       	mov	r24, r25
    8870:	90 ff       	sbrs	r25, 0
    8872:	0b c0       	rjmp	.+22     	; 0x888a <rotate_90_auto+0x9b2>
    8874:	f9 01       	movw	r30, r18
    8876:	53 e0       	ldi	r21, 0x03	; 3
    8878:	ee 0f       	add	r30, r30
    887a:	ff 1f       	adc	r31, r31
    887c:	5a 95       	dec	r21
    887e:	e1 f7       	brne	.-8      	; 0x8878 <rotate_90_auto+0x9a0>
    8880:	e0 55       	subi	r30, 0x50	; 80
    8882:	fe 4f       	sbci	r31, 0xFE	; 254
    8884:	42 81       	ldd	r20, Z+2	; 0x02
    8886:	41 60       	ori	r20, 0x01	; 1
    8888:	42 83       	std	Z+2, r20	; 0x02
    888a:	81 ff       	sbrs	r24, 1
    888c:	0b c0       	rjmp	.+22     	; 0x88a4 <rotate_90_auto+0x9cc>
    888e:	f9 01       	movw	r30, r18
    8890:	43 e0       	ldi	r20, 0x03	; 3
    8892:	ee 0f       	add	r30, r30
    8894:	ff 1f       	adc	r31, r31
    8896:	4a 95       	dec	r20
    8898:	e1 f7       	brne	.-8      	; 0x8892 <rotate_90_auto+0x9ba>
    889a:	e0 55       	subi	r30, 0x50	; 80
    889c:	fe 4f       	sbci	r31, 0xFE	; 254
    889e:	43 81       	ldd	r20, Z+3	; 0x03
    88a0:	42 60       	ori	r20, 0x02	; 2
    88a2:	43 83       	std	Z+3, r20	; 0x03
    88a4:	82 ff       	sbrs	r24, 2
    88a6:	0b c0       	rjmp	.+22     	; 0x88be <rotate_90_auto+0x9e6>
    88a8:	f9 01       	movw	r30, r18
    88aa:	73 e0       	ldi	r23, 0x03	; 3
    88ac:	ee 0f       	add	r30, r30
    88ae:	ff 1f       	adc	r31, r31
    88b0:	7a 95       	dec	r23
    88b2:	e1 f7       	brne	.-8      	; 0x88ac <rotate_90_auto+0x9d4>
    88b4:	e0 55       	subi	r30, 0x50	; 80
    88b6:	fe 4f       	sbci	r31, 0xFE	; 254
    88b8:	43 81       	ldd	r20, Z+3	; 0x03
    88ba:	44 60       	ori	r20, 0x04	; 4
    88bc:	43 83       	std	Z+3, r20	; 0x03
    88be:	83 ff       	sbrs	r24, 3
    88c0:	0b c0       	rjmp	.+22     	; 0x88d8 <rotate_90_auto+0xa00>
    88c2:	f9 01       	movw	r30, r18
    88c4:	63 e0       	ldi	r22, 0x03	; 3
    88c6:	ee 0f       	add	r30, r30
    88c8:	ff 1f       	adc	r31, r31
    88ca:	6a 95       	dec	r22
    88cc:	e1 f7       	brne	.-8      	; 0x88c6 <rotate_90_auto+0x9ee>
    88ce:	e0 55       	subi	r30, 0x50	; 80
    88d0:	fe 4f       	sbci	r31, 0xFE	; 254
    88d2:	44 81       	ldd	r20, Z+4	; 0x04
    88d4:	48 60       	ori	r20, 0x08	; 8
    88d6:	44 83       	std	Z+4, r20	; 0x04
    88d8:	84 ff       	sbrs	r24, 4
    88da:	0b c0       	rjmp	.+22     	; 0x88f2 <rotate_90_auto+0xa1a>
    88dc:	f9 01       	movw	r30, r18
    88de:	53 e0       	ldi	r21, 0x03	; 3
    88e0:	ee 0f       	add	r30, r30
    88e2:	ff 1f       	adc	r31, r31
    88e4:	5a 95       	dec	r21
    88e6:	e1 f7       	brne	.-8      	; 0x88e0 <rotate_90_auto+0xa08>
    88e8:	e0 55       	subi	r30, 0x50	; 80
    88ea:	fe 4f       	sbci	r31, 0xFE	; 254
    88ec:	44 81       	ldd	r20, Z+4	; 0x04
    88ee:	40 61       	ori	r20, 0x10	; 16
    88f0:	44 83       	std	Z+4, r20	; 0x04
    88f2:	85 ff       	sbrs	r24, 5
    88f4:	0b c0       	rjmp	.+22     	; 0x890c <rotate_90_auto+0xa34>
    88f6:	f9 01       	movw	r30, r18
    88f8:	43 e0       	ldi	r20, 0x03	; 3
    88fa:	ee 0f       	add	r30, r30
    88fc:	ff 1f       	adc	r31, r31
    88fe:	4a 95       	dec	r20
    8900:	e1 f7       	brne	.-8      	; 0x88fa <rotate_90_auto+0xa22>
    8902:	e0 55       	subi	r30, 0x50	; 80
    8904:	fe 4f       	sbci	r31, 0xFE	; 254
    8906:	45 81       	ldd	r20, Z+5	; 0x05
    8908:	40 62       	ori	r20, 0x20	; 32
    890a:	45 83       	std	Z+5, r20	; 0x05
    890c:	86 ff       	sbrs	r24, 6
    890e:	0b c0       	rjmp	.+22     	; 0x8926 <rotate_90_auto+0xa4e>
    8910:	f9 01       	movw	r30, r18
    8912:	83 e0       	ldi	r24, 0x03	; 3
    8914:	ee 0f       	add	r30, r30
    8916:	ff 1f       	adc	r31, r31
    8918:	8a 95       	dec	r24
    891a:	e1 f7       	brne	.-8      	; 0x8914 <rotate_90_auto+0xa3c>
    891c:	e0 55       	subi	r30, 0x50	; 80
    891e:	fe 4f       	sbci	r31, 0xFE	; 254
    8920:	85 81       	ldd	r24, Z+5	; 0x05
    8922:	80 62       	ori	r24, 0x20	; 32
    8924:	85 83       	std	Z+5, r24	; 0x05
    8926:	97 ff       	sbrs	r25, 7
    8928:	0b c0       	rjmp	.+22     	; 0x8940 <rotate_90_auto+0xa68>
    892a:	f9 01       	movw	r30, r18
    892c:	73 e0       	ldi	r23, 0x03	; 3
    892e:	ee 0f       	add	r30, r30
    8930:	ff 1f       	adc	r31, r31
    8932:	7a 95       	dec	r23
    8934:	e1 f7       	brne	.-8      	; 0x892e <rotate_90_auto+0xa56>
    8936:	e0 55       	subi	r30, 0x50	; 80
    8938:	fe 4f       	sbci	r31, 0xFE	; 254
    893a:	86 81       	ldd	r24, Z+6	; 0x06
    893c:	80 64       	ori	r24, 0x40	; 64
    893e:	86 83       	std	Z+6, r24	; 0x06
    8940:	fd 01       	movw	r30, r26
    8942:	32 97       	sbiw	r30, 0x02	; 2
    8944:	90 81       	ld	r25, Z
    8946:	89 2f       	mov	r24, r25
    8948:	90 ff       	sbrs	r25, 0
    894a:	0b c0       	rjmp	.+22     	; 0x8962 <rotate_90_auto+0xa8a>
    894c:	f9 01       	movw	r30, r18
    894e:	63 e0       	ldi	r22, 0x03	; 3
    8950:	ee 0f       	add	r30, r30
    8952:	ff 1f       	adc	r31, r31
    8954:	6a 95       	dec	r22
    8956:	e1 f7       	brne	.-8      	; 0x8950 <rotate_90_auto+0xa78>
    8958:	e0 55       	subi	r30, 0x50	; 80
    895a:	fe 4f       	sbci	r31, 0xFE	; 254
    895c:	43 81       	ldd	r20, Z+3	; 0x03
    895e:	41 60       	ori	r20, 0x01	; 1
    8960:	43 83       	std	Z+3, r20	; 0x03
    8962:	81 ff       	sbrs	r24, 1
    8964:	0b c0       	rjmp	.+22     	; 0x897c <rotate_90_auto+0xaa4>
    8966:	f9 01       	movw	r30, r18
    8968:	53 e0       	ldi	r21, 0x03	; 3
    896a:	ee 0f       	add	r30, r30
    896c:	ff 1f       	adc	r31, r31
    896e:	5a 95       	dec	r21
    8970:	e1 f7       	brne	.-8      	; 0x896a <rotate_90_auto+0xa92>
    8972:	e0 55       	subi	r30, 0x50	; 80
    8974:	fe 4f       	sbci	r31, 0xFE	; 254
    8976:	44 81       	ldd	r20, Z+4	; 0x04
    8978:	42 60       	ori	r20, 0x02	; 2
    897a:	44 83       	std	Z+4, r20	; 0x04
    897c:	82 ff       	sbrs	r24, 2
    897e:	0b c0       	rjmp	.+22     	; 0x8996 <rotate_90_auto+0xabe>
    8980:	f9 01       	movw	r30, r18
    8982:	43 e0       	ldi	r20, 0x03	; 3
    8984:	ee 0f       	add	r30, r30
    8986:	ff 1f       	adc	r31, r31
    8988:	4a 95       	dec	r20
    898a:	e1 f7       	brne	.-8      	; 0x8984 <rotate_90_auto+0xaac>
    898c:	e0 55       	subi	r30, 0x50	; 80
    898e:	fe 4f       	sbci	r31, 0xFE	; 254
    8990:	44 81       	ldd	r20, Z+4	; 0x04
    8992:	42 60       	ori	r20, 0x02	; 2
    8994:	44 83       	std	Z+4, r20	; 0x04
    8996:	83 ff       	sbrs	r24, 3
    8998:	0b c0       	rjmp	.+22     	; 0x89b0 <rotate_90_auto+0xad8>
    899a:	f9 01       	movw	r30, r18
    899c:	73 e0       	ldi	r23, 0x03	; 3
    899e:	ee 0f       	add	r30, r30
    89a0:	ff 1f       	adc	r31, r31
    89a2:	7a 95       	dec	r23
    89a4:	e1 f7       	brne	.-8      	; 0x899e <rotate_90_auto+0xac6>
    89a6:	e0 55       	subi	r30, 0x50	; 80
    89a8:	fe 4f       	sbci	r31, 0xFE	; 254
    89aa:	45 81       	ldd	r20, Z+5	; 0x05
    89ac:	44 60       	ori	r20, 0x04	; 4
    89ae:	45 83       	std	Z+5, r20	; 0x05
    89b0:	84 ff       	sbrs	r24, 4
    89b2:	0b c0       	rjmp	.+22     	; 0x89ca <rotate_90_auto+0xaf2>
    89b4:	f9 01       	movw	r30, r18
    89b6:	63 e0       	ldi	r22, 0x03	; 3
    89b8:	ee 0f       	add	r30, r30
    89ba:	ff 1f       	adc	r31, r31
    89bc:	6a 95       	dec	r22
    89be:	e1 f7       	brne	.-8      	; 0x89b8 <rotate_90_auto+0xae0>
    89c0:	e0 55       	subi	r30, 0x50	; 80
    89c2:	fe 4f       	sbci	r31, 0xFE	; 254
    89c4:	45 81       	ldd	r20, Z+5	; 0x05
    89c6:	48 60       	ori	r20, 0x08	; 8
    89c8:	45 83       	std	Z+5, r20	; 0x05
    89ca:	85 ff       	sbrs	r24, 5
    89cc:	0b c0       	rjmp	.+22     	; 0x89e4 <rotate_90_auto+0xb0c>
    89ce:	f9 01       	movw	r30, r18
    89d0:	53 e0       	ldi	r21, 0x03	; 3
    89d2:	ee 0f       	add	r30, r30
    89d4:	ff 1f       	adc	r31, r31
    89d6:	5a 95       	dec	r21
    89d8:	e1 f7       	brne	.-8      	; 0x89d2 <rotate_90_auto+0xafa>
    89da:	e0 55       	subi	r30, 0x50	; 80
    89dc:	fe 4f       	sbci	r31, 0xFE	; 254
    89de:	46 81       	ldd	r20, Z+6	; 0x06
    89e0:	40 61       	ori	r20, 0x10	; 16
    89e2:	46 83       	std	Z+6, r20	; 0x06
    89e4:	86 ff       	sbrs	r24, 6
    89e6:	0b c0       	rjmp	.+22     	; 0x89fe <rotate_90_auto+0xb26>
    89e8:	f9 01       	movw	r30, r18
    89ea:	43 e0       	ldi	r20, 0x03	; 3
    89ec:	ee 0f       	add	r30, r30
    89ee:	ff 1f       	adc	r31, r31
    89f0:	4a 95       	dec	r20
    89f2:	e1 f7       	brne	.-8      	; 0x89ec <rotate_90_auto+0xb14>
    89f4:	e0 55       	subi	r30, 0x50	; 80
    89f6:	fe 4f       	sbci	r31, 0xFE	; 254
    89f8:	86 81       	ldd	r24, Z+6	; 0x06
    89fa:	80 62       	ori	r24, 0x20	; 32
    89fc:	86 83       	std	Z+6, r24	; 0x06
    89fe:	97 ff       	sbrs	r25, 7
    8a00:	0b c0       	rjmp	.+22     	; 0x8a18 <rotate_90_auto+0xb40>
    8a02:	f9 01       	movw	r30, r18
    8a04:	83 e0       	ldi	r24, 0x03	; 3
    8a06:	ee 0f       	add	r30, r30
    8a08:	ff 1f       	adc	r31, r31
    8a0a:	8a 95       	dec	r24
    8a0c:	e1 f7       	brne	.-8      	; 0x8a06 <rotate_90_auto+0xb2e>
    8a0e:	e0 55       	subi	r30, 0x50	; 80
    8a10:	fe 4f       	sbci	r31, 0xFE	; 254
    8a12:	87 81       	ldd	r24, Z+7	; 0x07
    8a14:	80 64       	ori	r24, 0x40	; 64
    8a16:	87 83       	std	Z+7, r24	; 0x07
    8a18:	fd 01       	movw	r30, r26
    8a1a:	31 97       	sbiw	r30, 0x01	; 1
    8a1c:	90 81       	ld	r25, Z
    8a1e:	89 2f       	mov	r24, r25
    8a20:	91 ff       	sbrs	r25, 1
    8a22:	0b c0       	rjmp	.+22     	; 0x8a3a <rotate_90_auto+0xb62>
    8a24:	f9 01       	movw	r30, r18
    8a26:	73 e0       	ldi	r23, 0x03	; 3
    8a28:	ee 0f       	add	r30, r30
    8a2a:	ff 1f       	adc	r31, r31
    8a2c:	7a 95       	dec	r23
    8a2e:	e1 f7       	brne	.-8      	; 0x8a28 <rotate_90_auto+0xb50>
    8a30:	e0 55       	subi	r30, 0x50	; 80
    8a32:	fe 4f       	sbci	r31, 0xFE	; 254
    8a34:	44 81       	ldd	r20, Z+4	; 0x04
    8a36:	41 60       	ori	r20, 0x01	; 1
    8a38:	44 83       	std	Z+4, r20	; 0x04
    8a3a:	82 ff       	sbrs	r24, 2
    8a3c:	0b c0       	rjmp	.+22     	; 0x8a54 <rotate_90_auto+0xb7c>
    8a3e:	f9 01       	movw	r30, r18
    8a40:	63 e0       	ldi	r22, 0x03	; 3
    8a42:	ee 0f       	add	r30, r30
    8a44:	ff 1f       	adc	r31, r31
    8a46:	6a 95       	dec	r22
    8a48:	e1 f7       	brne	.-8      	; 0x8a42 <rotate_90_auto+0xb6a>
    8a4a:	e0 55       	subi	r30, 0x50	; 80
    8a4c:	fe 4f       	sbci	r31, 0xFE	; 254
    8a4e:	45 81       	ldd	r20, Z+5	; 0x05
    8a50:	42 60       	ori	r20, 0x02	; 2
    8a52:	45 83       	std	Z+5, r20	; 0x05
    8a54:	83 ff       	sbrs	r24, 3
    8a56:	0b c0       	rjmp	.+22     	; 0x8a6e <rotate_90_auto+0xb96>
    8a58:	f9 01       	movw	r30, r18
    8a5a:	53 e0       	ldi	r21, 0x03	; 3
    8a5c:	ee 0f       	add	r30, r30
    8a5e:	ff 1f       	adc	r31, r31
    8a60:	5a 95       	dec	r21
    8a62:	e1 f7       	brne	.-8      	; 0x8a5c <rotate_90_auto+0xb84>
    8a64:	e0 55       	subi	r30, 0x50	; 80
    8a66:	fe 4f       	sbci	r31, 0xFE	; 254
    8a68:	45 81       	ldd	r20, Z+5	; 0x05
    8a6a:	44 60       	ori	r20, 0x04	; 4
    8a6c:	45 83       	std	Z+5, r20	; 0x05
    8a6e:	84 ff       	sbrs	r24, 4
    8a70:	0b c0       	rjmp	.+22     	; 0x8a88 <rotate_90_auto+0xbb0>
    8a72:	f9 01       	movw	r30, r18
    8a74:	43 e0       	ldi	r20, 0x03	; 3
    8a76:	ee 0f       	add	r30, r30
    8a78:	ff 1f       	adc	r31, r31
    8a7a:	4a 95       	dec	r20
    8a7c:	e1 f7       	brne	.-8      	; 0x8a76 <rotate_90_auto+0xb9e>
    8a7e:	e0 55       	subi	r30, 0x50	; 80
    8a80:	fe 4f       	sbci	r31, 0xFE	; 254
    8a82:	46 81       	ldd	r20, Z+6	; 0x06
    8a84:	48 60       	ori	r20, 0x08	; 8
    8a86:	46 83       	std	Z+6, r20	; 0x06
    8a88:	85 ff       	sbrs	r24, 5
    8a8a:	0b c0       	rjmp	.+22     	; 0x8aa2 <rotate_90_auto+0xbca>
    8a8c:	f9 01       	movw	r30, r18
    8a8e:	73 e0       	ldi	r23, 0x03	; 3
    8a90:	ee 0f       	add	r30, r30
    8a92:	ff 1f       	adc	r31, r31
    8a94:	7a 95       	dec	r23
    8a96:	e1 f7       	brne	.-8      	; 0x8a90 <rotate_90_auto+0xbb8>
    8a98:	e0 55       	subi	r30, 0x50	; 80
    8a9a:	fe 4f       	sbci	r31, 0xFE	; 254
    8a9c:	46 81       	ldd	r20, Z+6	; 0x06
    8a9e:	40 61       	ori	r20, 0x10	; 16
    8aa0:	46 83       	std	Z+6, r20	; 0x06
    8aa2:	86 ff       	sbrs	r24, 6
    8aa4:	0b c0       	rjmp	.+22     	; 0x8abc <rotate_90_auto+0xbe4>
    8aa6:	f9 01       	movw	r30, r18
    8aa8:	63 e0       	ldi	r22, 0x03	; 3
    8aaa:	ee 0f       	add	r30, r30
    8aac:	ff 1f       	adc	r31, r31
    8aae:	6a 95       	dec	r22
    8ab0:	e1 f7       	brne	.-8      	; 0x8aaa <rotate_90_auto+0xbd2>
    8ab2:	e0 55       	subi	r30, 0x50	; 80
    8ab4:	fe 4f       	sbci	r31, 0xFE	; 254
    8ab6:	87 81       	ldd	r24, Z+7	; 0x07
    8ab8:	80 61       	ori	r24, 0x10	; 16
    8aba:	87 83       	std	Z+7, r24	; 0x07
    8abc:	97 ff       	sbrs	r25, 7
    8abe:	0b c0       	rjmp	.+22     	; 0x8ad6 <rotate_90_auto+0xbfe>
    8ac0:	f9 01       	movw	r30, r18
    8ac2:	53 e0       	ldi	r21, 0x03	; 3
    8ac4:	ee 0f       	add	r30, r30
    8ac6:	ff 1f       	adc	r31, r31
    8ac8:	5a 95       	dec	r21
    8aca:	e1 f7       	brne	.-8      	; 0x8ac4 <rotate_90_auto+0xbec>
    8acc:	e0 55       	subi	r30, 0x50	; 80
    8ace:	fe 4f       	sbci	r31, 0xFE	; 254
    8ad0:	87 81       	ldd	r24, Z+7	; 0x07
    8ad2:	80 62       	ori	r24, 0x20	; 32
    8ad4:	87 83       	std	Z+7, r24	; 0x07
    8ad6:	8c 91       	ld	r24, X
    8ad8:	81 ff       	sbrs	r24, 1
    8ada:	0b c0       	rjmp	.+22     	; 0x8af2 <rotate_90_auto+0xc1a>
    8adc:	f9 01       	movw	r30, r18
    8ade:	43 e0       	ldi	r20, 0x03	; 3
    8ae0:	ee 0f       	add	r30, r30
    8ae2:	ff 1f       	adc	r31, r31
    8ae4:	4a 95       	dec	r20
    8ae6:	e1 f7       	brne	.-8      	; 0x8ae0 <rotate_90_auto+0xc08>
    8ae8:	e0 55       	subi	r30, 0x50	; 80
    8aea:	fe 4f       	sbci	r31, 0xFE	; 254
    8aec:	95 81       	ldd	r25, Z+5	; 0x05
    8aee:	91 60       	ori	r25, 0x01	; 1
    8af0:	95 83       	std	Z+5, r25	; 0x05
    8af2:	82 ff       	sbrs	r24, 2
    8af4:	0b c0       	rjmp	.+22     	; 0x8b0c <rotate_90_auto+0xc34>
    8af6:	f9 01       	movw	r30, r18
    8af8:	93 e0       	ldi	r25, 0x03	; 3
    8afa:	ee 0f       	add	r30, r30
    8afc:	ff 1f       	adc	r31, r31
    8afe:	9a 95       	dec	r25
    8b00:	e1 f7       	brne	.-8      	; 0x8afa <rotate_90_auto+0xc22>
    8b02:	e0 55       	subi	r30, 0x50	; 80
    8b04:	fe 4f       	sbci	r31, 0xFE	; 254
    8b06:	96 81       	ldd	r25, Z+6	; 0x06
    8b08:	91 60       	ori	r25, 0x01	; 1
    8b0a:	96 83       	std	Z+6, r25	; 0x06
    8b0c:	83 ff       	sbrs	r24, 3
    8b0e:	0b c0       	rjmp	.+22     	; 0x8b26 <rotate_90_auto+0xc4e>
    8b10:	f9 01       	movw	r30, r18
    8b12:	73 e0       	ldi	r23, 0x03	; 3
    8b14:	ee 0f       	add	r30, r30
    8b16:	ff 1f       	adc	r31, r31
    8b18:	7a 95       	dec	r23
    8b1a:	e1 f7       	brne	.-8      	; 0x8b14 <rotate_90_auto+0xc3c>
    8b1c:	e0 55       	subi	r30, 0x50	; 80
    8b1e:	fe 4f       	sbci	r31, 0xFE	; 254
    8b20:	96 81       	ldd	r25, Z+6	; 0x06
    8b22:	92 60       	ori	r25, 0x02	; 2
    8b24:	96 83       	std	Z+6, r25	; 0x06
    8b26:	84 ff       	sbrs	r24, 4
    8b28:	0b c0       	rjmp	.+22     	; 0x8b40 <rotate_90_auto+0xc68>
    8b2a:	f9 01       	movw	r30, r18
    8b2c:	63 e0       	ldi	r22, 0x03	; 3
    8b2e:	ee 0f       	add	r30, r30
    8b30:	ff 1f       	adc	r31, r31
    8b32:	6a 95       	dec	r22
    8b34:	e1 f7       	brne	.-8      	; 0x8b2e <rotate_90_auto+0xc56>
    8b36:	e0 55       	subi	r30, 0x50	; 80
    8b38:	fe 4f       	sbci	r31, 0xFE	; 254
    8b3a:	97 81       	ldd	r25, Z+7	; 0x07
    8b3c:	94 60       	ori	r25, 0x04	; 4
    8b3e:	97 83       	std	Z+7, r25	; 0x07
    8b40:	85 ff       	sbrs	r24, 5
    8b42:	0b c0       	rjmp	.+22     	; 0x8b5a <rotate_90_auto+0xc82>
    8b44:	f9 01       	movw	r30, r18
    8b46:	53 e0       	ldi	r21, 0x03	; 3
    8b48:	ee 0f       	add	r30, r30
    8b4a:	ff 1f       	adc	r31, r31
    8b4c:	5a 95       	dec	r21
    8b4e:	e1 f7       	brne	.-8      	; 0x8b48 <rotate_90_auto+0xc70>
    8b50:	e0 55       	subi	r30, 0x50	; 80
    8b52:	fe 4f       	sbci	r31, 0xFE	; 254
    8b54:	87 81       	ldd	r24, Z+7	; 0x07
    8b56:	88 60       	ori	r24, 0x08	; 8
    8b58:	87 83       	std	Z+7, r24	; 0x07
    8b5a:	2f 5f       	subi	r18, 0xFF	; 255
    8b5c:	3f 4f       	sbci	r19, 0xFF	; 255
    8b5e:	18 96       	adiw	r26, 0x08	; 8
    8b60:	28 30       	cpi	r18, 0x08	; 8
    8b62:	31 05       	cpc	r19, r1
    8b64:	09 f0       	breq	.+2      	; 0x8b68 <rotate_90_auto+0xc90>
    8b66:	06 cd       	rjmp	.-1524   	; 0x8574 <rotate_90_auto+0x69c>
    8b68:	85 e0       	ldi	r24, 0x05	; 5
    8b6a:	0e 94 c8 3e 	call	0x7d90	; 0x7d90 <cube_show_loop>
    8b6e:	0e 94 9d 3d 	call	0x7b3a	; 0x7b3a <cube_clear>
    8b72:	de 01       	movw	r26, r28
    8b74:	18 96       	adiw	r26, 0x08	; 8
    8b76:	20 e0       	ldi	r18, 0x00	; 0
    8b78:	30 e0       	ldi	r19, 0x00	; 0
    8b7a:	fd 01       	movw	r30, r26
    8b7c:	37 97       	sbiw	r30, 0x07	; 7
    8b7e:	80 81       	ld	r24, Z
    8b80:	82 ff       	sbrs	r24, 2
    8b82:	0b c0       	rjmp	.+22     	; 0x8b9a <rotate_90_auto+0xcc2>
    8b84:	f9 01       	movw	r30, r18
    8b86:	43 e0       	ldi	r20, 0x03	; 3
    8b88:	ee 0f       	add	r30, r30
    8b8a:	ff 1f       	adc	r31, r31
    8b8c:	4a 95       	dec	r20
    8b8e:	e1 f7       	brne	.-8      	; 0x8b88 <rotate_90_auto+0xcb0>
    8b90:	e0 55       	subi	r30, 0x50	; 80
    8b92:	fe 4f       	sbci	r31, 0xFE	; 254
    8b94:	90 81       	ld	r25, Z
    8b96:	90 62       	ori	r25, 0x20	; 32
    8b98:	90 83       	st	Z, r25
    8b9a:	83 ff       	sbrs	r24, 3
    8b9c:	0b c0       	rjmp	.+22     	; 0x8bb4 <rotate_90_auto+0xcdc>
    8b9e:	f9 01       	movw	r30, r18
    8ba0:	93 e0       	ldi	r25, 0x03	; 3
    8ba2:	ee 0f       	add	r30, r30
    8ba4:	ff 1f       	adc	r31, r31
    8ba6:	9a 95       	dec	r25
    8ba8:	e1 f7       	brne	.-8      	; 0x8ba2 <rotate_90_auto+0xcca>
    8baa:	e0 55       	subi	r30, 0x50	; 80
    8bac:	fe 4f       	sbci	r31, 0xFE	; 254
    8bae:	91 81       	ldd	r25, Z+1	; 0x01
    8bb0:	90 64       	ori	r25, 0x40	; 64
    8bb2:	91 83       	std	Z+1, r25	; 0x01
    8bb4:	84 ff       	sbrs	r24, 4
    8bb6:	0b c0       	rjmp	.+22     	; 0x8bce <rotate_90_auto+0xcf6>
    8bb8:	f9 01       	movw	r30, r18
    8bba:	73 e0       	ldi	r23, 0x03	; 3
    8bbc:	ee 0f       	add	r30, r30
    8bbe:	ff 1f       	adc	r31, r31
    8bc0:	7a 95       	dec	r23
    8bc2:	e1 f7       	brne	.-8      	; 0x8bbc <rotate_90_auto+0xce4>
    8bc4:	e0 55       	subi	r30, 0x50	; 80
    8bc6:	fe 4f       	sbci	r31, 0xFE	; 254
    8bc8:	91 81       	ldd	r25, Z+1	; 0x01
    8bca:	90 64       	ori	r25, 0x40	; 64
    8bcc:	91 83       	std	Z+1, r25	; 0x01
    8bce:	85 ff       	sbrs	r24, 5
    8bd0:	0b c0       	rjmp	.+22     	; 0x8be8 <rotate_90_auto+0xd10>
    8bd2:	f9 01       	movw	r30, r18
    8bd4:	63 e0       	ldi	r22, 0x03	; 3
    8bd6:	ee 0f       	add	r30, r30
    8bd8:	ff 1f       	adc	r31, r31
    8bda:	6a 95       	dec	r22
    8bdc:	e1 f7       	brne	.-8      	; 0x8bd6 <rotate_90_auto+0xcfe>
    8bde:	e0 55       	subi	r30, 0x50	; 80
    8be0:	fe 4f       	sbci	r31, 0xFE	; 254
    8be2:	82 81       	ldd	r24, Z+2	; 0x02
    8be4:	80 68       	ori	r24, 0x80	; 128
    8be6:	82 83       	std	Z+2, r24	; 0x02
    8be8:	fd 01       	movw	r30, r26
    8bea:	36 97       	sbiw	r30, 0x06	; 6
    8bec:	80 81       	ld	r24, Z
    8bee:	81 ff       	sbrs	r24, 1
    8bf0:	0b c0       	rjmp	.+22     	; 0x8c08 <rotate_90_auto+0xd30>
    8bf2:	f9 01       	movw	r30, r18
    8bf4:	53 e0       	ldi	r21, 0x03	; 3
    8bf6:	ee 0f       	add	r30, r30
    8bf8:	ff 1f       	adc	r31, r31
    8bfa:	5a 95       	dec	r21
    8bfc:	e1 f7       	brne	.-8      	; 0x8bf6 <rotate_90_auto+0xd1e>
    8bfe:	e0 55       	subi	r30, 0x50	; 80
    8c00:	fe 4f       	sbci	r31, 0xFE	; 254
    8c02:	90 81       	ld	r25, Z
    8c04:	90 61       	ori	r25, 0x10	; 16
    8c06:	90 83       	st	Z, r25
    8c08:	82 ff       	sbrs	r24, 2
    8c0a:	0b c0       	rjmp	.+22     	; 0x8c22 <rotate_90_auto+0xd4a>
    8c0c:	f9 01       	movw	r30, r18
    8c0e:	43 e0       	ldi	r20, 0x03	; 3
    8c10:	ee 0f       	add	r30, r30
    8c12:	ff 1f       	adc	r31, r31
    8c14:	4a 95       	dec	r20
    8c16:	e1 f7       	brne	.-8      	; 0x8c10 <rotate_90_auto+0xd38>
    8c18:	e0 55       	subi	r30, 0x50	; 80
    8c1a:	fe 4f       	sbci	r31, 0xFE	; 254
    8c1c:	91 81       	ldd	r25, Z+1	; 0x01
    8c1e:	90 61       	ori	r25, 0x10	; 16
    8c20:	91 83       	std	Z+1, r25	; 0x01
    8c22:	83 ff       	sbrs	r24, 3
    8c24:	0b c0       	rjmp	.+22     	; 0x8c3c <rotate_90_auto+0xd64>
    8c26:	f9 01       	movw	r30, r18
    8c28:	93 e0       	ldi	r25, 0x03	; 3
    8c2a:	ee 0f       	add	r30, r30
    8c2c:	ff 1f       	adc	r31, r31
    8c2e:	9a 95       	dec	r25
    8c30:	e1 f7       	brne	.-8      	; 0x8c2a <rotate_90_auto+0xd52>
    8c32:	e0 55       	subi	r30, 0x50	; 80
    8c34:	fe 4f       	sbci	r31, 0xFE	; 254
    8c36:	91 81       	ldd	r25, Z+1	; 0x01
    8c38:	90 62       	ori	r25, 0x20	; 32
    8c3a:	91 83       	std	Z+1, r25	; 0x01
    8c3c:	84 ff       	sbrs	r24, 4
    8c3e:	0b c0       	rjmp	.+22     	; 0x8c56 <rotate_90_auto+0xd7e>
    8c40:	f9 01       	movw	r30, r18
    8c42:	73 e0       	ldi	r23, 0x03	; 3
    8c44:	ee 0f       	add	r30, r30
    8c46:	ff 1f       	adc	r31, r31
    8c48:	7a 95       	dec	r23
    8c4a:	e1 f7       	brne	.-8      	; 0x8c44 <rotate_90_auto+0xd6c>
    8c4c:	e0 55       	subi	r30, 0x50	; 80
    8c4e:	fe 4f       	sbci	r31, 0xFE	; 254
    8c50:	92 81       	ldd	r25, Z+2	; 0x02
    8c52:	90 64       	ori	r25, 0x40	; 64
    8c54:	92 83       	std	Z+2, r25	; 0x02
    8c56:	85 ff       	sbrs	r24, 5
    8c58:	0b c0       	rjmp	.+22     	; 0x8c70 <rotate_90_auto+0xd98>
    8c5a:	f9 01       	movw	r30, r18
    8c5c:	63 e0       	ldi	r22, 0x03	; 3
    8c5e:	ee 0f       	add	r30, r30
    8c60:	ff 1f       	adc	r31, r31
    8c62:	6a 95       	dec	r22
    8c64:	e1 f7       	brne	.-8      	; 0x8c5e <rotate_90_auto+0xd86>
    8c66:	e0 55       	subi	r30, 0x50	; 80
    8c68:	fe 4f       	sbci	r31, 0xFE	; 254
    8c6a:	93 81       	ldd	r25, Z+3	; 0x03
    8c6c:	90 64       	ori	r25, 0x40	; 64
    8c6e:	93 83       	std	Z+3, r25	; 0x03
    8c70:	86 ff       	sbrs	r24, 6
    8c72:	0b c0       	rjmp	.+22     	; 0x8c8a <rotate_90_auto+0xdb2>
    8c74:	f9 01       	movw	r30, r18
    8c76:	53 e0       	ldi	r21, 0x03	; 3
    8c78:	ee 0f       	add	r30, r30
    8c7a:	ff 1f       	adc	r31, r31
    8c7c:	5a 95       	dec	r21
    8c7e:	e1 f7       	brne	.-8      	; 0x8c78 <rotate_90_auto+0xda0>
    8c80:	e0 55       	subi	r30, 0x50	; 80
    8c82:	fe 4f       	sbci	r31, 0xFE	; 254
    8c84:	84 81       	ldd	r24, Z+4	; 0x04
    8c86:	80 68       	ori	r24, 0x80	; 128
    8c88:	84 83       	std	Z+4, r24	; 0x04
    8c8a:	fd 01       	movw	r30, r26
    8c8c:	35 97       	sbiw	r30, 0x05	; 5
    8c8e:	90 81       	ld	r25, Z
    8c90:	89 2f       	mov	r24, r25
    8c92:	90 ff       	sbrs	r25, 0
    8c94:	0b c0       	rjmp	.+22     	; 0x8cac <rotate_90_auto+0xdd4>
    8c96:	f9 01       	movw	r30, r18
    8c98:	43 e0       	ldi	r20, 0x03	; 3
    8c9a:	ee 0f       	add	r30, r30
    8c9c:	ff 1f       	adc	r31, r31
    8c9e:	4a 95       	dec	r20
    8ca0:	e1 f7       	brne	.-8      	; 0x8c9a <rotate_90_auto+0xdc2>
    8ca2:	e0 55       	subi	r30, 0x50	; 80
    8ca4:	fe 4f       	sbci	r31, 0xFE	; 254
    8ca6:	40 81       	ld	r20, Z
    8ca8:	44 60       	ori	r20, 0x04	; 4
    8caa:	40 83       	st	Z, r20
    8cac:	81 ff       	sbrs	r24, 1
    8cae:	0b c0       	rjmp	.+22     	; 0x8cc6 <rotate_90_auto+0xdee>
    8cb0:	f9 01       	movw	r30, r18
    8cb2:	73 e0       	ldi	r23, 0x03	; 3
    8cb4:	ee 0f       	add	r30, r30
    8cb6:	ff 1f       	adc	r31, r31
    8cb8:	7a 95       	dec	r23
    8cba:	e1 f7       	brne	.-8      	; 0x8cb4 <rotate_90_auto+0xddc>
    8cbc:	e0 55       	subi	r30, 0x50	; 80
    8cbe:	fe 4f       	sbci	r31, 0xFE	; 254
    8cc0:	41 81       	ldd	r20, Z+1	; 0x01
    8cc2:	48 60       	ori	r20, 0x08	; 8
    8cc4:	41 83       	std	Z+1, r20	; 0x01
    8cc6:	82 ff       	sbrs	r24, 2
    8cc8:	0b c0       	rjmp	.+22     	; 0x8ce0 <rotate_90_auto+0xe08>
    8cca:	f9 01       	movw	r30, r18
    8ccc:	63 e0       	ldi	r22, 0x03	; 3
    8cce:	ee 0f       	add	r30, r30
    8cd0:	ff 1f       	adc	r31, r31
    8cd2:	6a 95       	dec	r22
    8cd4:	e1 f7       	brne	.-8      	; 0x8cce <rotate_90_auto+0xdf6>
    8cd6:	e0 55       	subi	r30, 0x50	; 80
    8cd8:	fe 4f       	sbci	r31, 0xFE	; 254
    8cda:	41 81       	ldd	r20, Z+1	; 0x01
    8cdc:	40 61       	ori	r20, 0x10	; 16
    8cde:	41 83       	std	Z+1, r20	; 0x01
    8ce0:	83 ff       	sbrs	r24, 3
    8ce2:	0b c0       	rjmp	.+22     	; 0x8cfa <rotate_90_auto+0xe22>
    8ce4:	f9 01       	movw	r30, r18
    8ce6:	53 e0       	ldi	r21, 0x03	; 3
    8ce8:	ee 0f       	add	r30, r30
    8cea:	ff 1f       	adc	r31, r31
    8cec:	5a 95       	dec	r21
    8cee:	e1 f7       	brne	.-8      	; 0x8ce8 <rotate_90_auto+0xe10>
    8cf0:	e0 55       	subi	r30, 0x50	; 80
    8cf2:	fe 4f       	sbci	r31, 0xFE	; 254
    8cf4:	42 81       	ldd	r20, Z+2	; 0x02
    8cf6:	40 61       	ori	r20, 0x10	; 16
    8cf8:	42 83       	std	Z+2, r20	; 0x02
    8cfa:	84 ff       	sbrs	r24, 4
    8cfc:	0b c0       	rjmp	.+22     	; 0x8d14 <rotate_90_auto+0xe3c>
    8cfe:	f9 01       	movw	r30, r18
    8d00:	43 e0       	ldi	r20, 0x03	; 3
    8d02:	ee 0f       	add	r30, r30
    8d04:	ff 1f       	adc	r31, r31
    8d06:	4a 95       	dec	r20
    8d08:	e1 f7       	brne	.-8      	; 0x8d02 <rotate_90_auto+0xe2a>
    8d0a:	e0 55       	subi	r30, 0x50	; 80
    8d0c:	fe 4f       	sbci	r31, 0xFE	; 254
    8d0e:	43 81       	ldd	r20, Z+3	; 0x03
    8d10:	40 62       	ori	r20, 0x20	; 32
    8d12:	43 83       	std	Z+3, r20	; 0x03
    8d14:	85 ff       	sbrs	r24, 5
    8d16:	0b c0       	rjmp	.+22     	; 0x8d2e <rotate_90_auto+0xe56>
    8d18:	f9 01       	movw	r30, r18
    8d1a:	73 e0       	ldi	r23, 0x03	; 3
    8d1c:	ee 0f       	add	r30, r30
    8d1e:	ff 1f       	adc	r31, r31
    8d20:	7a 95       	dec	r23
    8d22:	e1 f7       	brne	.-8      	; 0x8d1c <rotate_90_auto+0xe44>
    8d24:	e0 55       	subi	r30, 0x50	; 80
    8d26:	fe 4f       	sbci	r31, 0xFE	; 254
    8d28:	44 81       	ldd	r20, Z+4	; 0x04
    8d2a:	40 64       	ori	r20, 0x40	; 64
    8d2c:	44 83       	std	Z+4, r20	; 0x04
    8d2e:	86 ff       	sbrs	r24, 6
    8d30:	0b c0       	rjmp	.+22     	; 0x8d48 <rotate_90_auto+0xe70>
    8d32:	f9 01       	movw	r30, r18
    8d34:	63 e0       	ldi	r22, 0x03	; 3
    8d36:	ee 0f       	add	r30, r30
    8d38:	ff 1f       	adc	r31, r31
    8d3a:	6a 95       	dec	r22
    8d3c:	e1 f7       	brne	.-8      	; 0x8d36 <rotate_90_auto+0xe5e>
    8d3e:	e0 55       	subi	r30, 0x50	; 80
    8d40:	fe 4f       	sbci	r31, 0xFE	; 254
    8d42:	84 81       	ldd	r24, Z+4	; 0x04
    8d44:	80 64       	ori	r24, 0x40	; 64
    8d46:	84 83       	std	Z+4, r24	; 0x04
    8d48:	97 ff       	sbrs	r25, 7
    8d4a:	0b c0       	rjmp	.+22     	; 0x8d62 <rotate_90_auto+0xe8a>
    8d4c:	f9 01       	movw	r30, r18
    8d4e:	53 e0       	ldi	r21, 0x03	; 3
    8d50:	ee 0f       	add	r30, r30
    8d52:	ff 1f       	adc	r31, r31
    8d54:	5a 95       	dec	r21
    8d56:	e1 f7       	brne	.-8      	; 0x8d50 <rotate_90_auto+0xe78>
    8d58:	e0 55       	subi	r30, 0x50	; 80
    8d5a:	fe 4f       	sbci	r31, 0xFE	; 254
    8d5c:	85 81       	ldd	r24, Z+5	; 0x05
    8d5e:	80 68       	ori	r24, 0x80	; 128
    8d60:	85 83       	std	Z+5, r24	; 0x05
    8d62:	fd 01       	movw	r30, r26
    8d64:	34 97       	sbiw	r30, 0x04	; 4
    8d66:	90 81       	ld	r25, Z
    8d68:	89 2f       	mov	r24, r25
    8d6a:	90 ff       	sbrs	r25, 0
    8d6c:	0b c0       	rjmp	.+22     	; 0x8d84 <rotate_90_auto+0xeac>
    8d6e:	f9 01       	movw	r30, r18
    8d70:	43 e0       	ldi	r20, 0x03	; 3
    8d72:	ee 0f       	add	r30, r30
    8d74:	ff 1f       	adc	r31, r31
    8d76:	4a 95       	dec	r20
    8d78:	e1 f7       	brne	.-8      	; 0x8d72 <rotate_90_auto+0xe9a>
    8d7a:	e0 55       	subi	r30, 0x50	; 80
    8d7c:	fe 4f       	sbci	r31, 0xFE	; 254
    8d7e:	41 81       	ldd	r20, Z+1	; 0x01
    8d80:	42 60       	ori	r20, 0x02	; 2
    8d82:	41 83       	std	Z+1, r20	; 0x01
    8d84:	81 ff       	sbrs	r24, 1
    8d86:	0b c0       	rjmp	.+22     	; 0x8d9e <rotate_90_auto+0xec6>
    8d88:	f9 01       	movw	r30, r18
    8d8a:	73 e0       	ldi	r23, 0x03	; 3
    8d8c:	ee 0f       	add	r30, r30
    8d8e:	ff 1f       	adc	r31, r31
    8d90:	7a 95       	dec	r23
    8d92:	e1 f7       	brne	.-8      	; 0x8d8c <rotate_90_auto+0xeb4>
    8d94:	e0 55       	subi	r30, 0x50	; 80
    8d96:	fe 4f       	sbci	r31, 0xFE	; 254
    8d98:	41 81       	ldd	r20, Z+1	; 0x01
    8d9a:	44 60       	ori	r20, 0x04	; 4
    8d9c:	41 83       	std	Z+1, r20	; 0x01
    8d9e:	82 ff       	sbrs	r24, 2
    8da0:	0b c0       	rjmp	.+22     	; 0x8db8 <rotate_90_auto+0xee0>
    8da2:	f9 01       	movw	r30, r18
    8da4:	63 e0       	ldi	r22, 0x03	; 3
    8da6:	ee 0f       	add	r30, r30
    8da8:	ff 1f       	adc	r31, r31
    8daa:	6a 95       	dec	r22
    8dac:	e1 f7       	brne	.-8      	; 0x8da6 <rotate_90_auto+0xece>
    8dae:	e0 55       	subi	r30, 0x50	; 80
    8db0:	fe 4f       	sbci	r31, 0xFE	; 254
    8db2:	42 81       	ldd	r20, Z+2	; 0x02
    8db4:	48 60       	ori	r20, 0x08	; 8
    8db6:	42 83       	std	Z+2, r20	; 0x02
    8db8:	83 ff       	sbrs	r24, 3
    8dba:	0b c0       	rjmp	.+22     	; 0x8dd2 <rotate_90_auto+0xefa>
    8dbc:	f9 01       	movw	r30, r18
    8dbe:	53 e0       	ldi	r21, 0x03	; 3
    8dc0:	ee 0f       	add	r30, r30
    8dc2:	ff 1f       	adc	r31, r31
    8dc4:	5a 95       	dec	r21
    8dc6:	e1 f7       	brne	.-8      	; 0x8dc0 <rotate_90_auto+0xee8>
    8dc8:	e0 55       	subi	r30, 0x50	; 80
    8dca:	fe 4f       	sbci	r31, 0xFE	; 254
    8dcc:	43 81       	ldd	r20, Z+3	; 0x03
    8dce:	40 61       	ori	r20, 0x10	; 16
    8dd0:	43 83       	std	Z+3, r20	; 0x03
    8dd2:	84 ff       	sbrs	r24, 4
    8dd4:	0b c0       	rjmp	.+22     	; 0x8dec <rotate_90_auto+0xf14>
    8dd6:	f9 01       	movw	r30, r18
    8dd8:	43 e0       	ldi	r20, 0x03	; 3
    8dda:	ee 0f       	add	r30, r30
    8ddc:	ff 1f       	adc	r31, r31
    8dde:	4a 95       	dec	r20
    8de0:	e1 f7       	brne	.-8      	; 0x8dda <rotate_90_auto+0xf02>
    8de2:	e0 55       	subi	r30, 0x50	; 80
    8de4:	fe 4f       	sbci	r31, 0xFE	; 254
    8de6:	44 81       	ldd	r20, Z+4	; 0x04
    8de8:	40 61       	ori	r20, 0x10	; 16
    8dea:	44 83       	std	Z+4, r20	; 0x04
    8dec:	85 ff       	sbrs	r24, 5
    8dee:	0b c0       	rjmp	.+22     	; 0x8e06 <rotate_90_auto+0xf2e>
    8df0:	f9 01       	movw	r30, r18
    8df2:	73 e0       	ldi	r23, 0x03	; 3
    8df4:	ee 0f       	add	r30, r30
    8df6:	ff 1f       	adc	r31, r31
    8df8:	7a 95       	dec	r23
    8dfa:	e1 f7       	brne	.-8      	; 0x8df4 <rotate_90_auto+0xf1c>
    8dfc:	e0 55       	subi	r30, 0x50	; 80
    8dfe:	fe 4f       	sbci	r31, 0xFE	; 254
    8e00:	44 81       	ldd	r20, Z+4	; 0x04
    8e02:	40 62       	ori	r20, 0x20	; 32
    8e04:	44 83       	std	Z+4, r20	; 0x04
    8e06:	86 ff       	sbrs	r24, 6
    8e08:	0b c0       	rjmp	.+22     	; 0x8e20 <rotate_90_auto+0xf48>
    8e0a:	f9 01       	movw	r30, r18
    8e0c:	63 e0       	ldi	r22, 0x03	; 3
    8e0e:	ee 0f       	add	r30, r30
    8e10:	ff 1f       	adc	r31, r31
    8e12:	6a 95       	dec	r22
    8e14:	e1 f7       	brne	.-8      	; 0x8e0e <rotate_90_auto+0xf36>
    8e16:	e0 55       	subi	r30, 0x50	; 80
    8e18:	fe 4f       	sbci	r31, 0xFE	; 254
    8e1a:	85 81       	ldd	r24, Z+5	; 0x05
    8e1c:	80 64       	ori	r24, 0x40	; 64
    8e1e:	85 83       	std	Z+5, r24	; 0x05
    8e20:	97 ff       	sbrs	r25, 7
    8e22:	0b c0       	rjmp	.+22     	; 0x8e3a <rotate_90_auto+0xf62>
    8e24:	f9 01       	movw	r30, r18
    8e26:	53 e0       	ldi	r21, 0x03	; 3
    8e28:	ee 0f       	add	r30, r30
    8e2a:	ff 1f       	adc	r31, r31
    8e2c:	5a 95       	dec	r21
    8e2e:	e1 f7       	brne	.-8      	; 0x8e28 <rotate_90_auto+0xf50>
    8e30:	e0 55       	subi	r30, 0x50	; 80
    8e32:	fe 4f       	sbci	r31, 0xFE	; 254
    8e34:	86 81       	ldd	r24, Z+6	; 0x06
    8e36:	80 64       	ori	r24, 0x40	; 64
    8e38:	86 83       	std	Z+6, r24	; 0x06
    8e3a:	fd 01       	movw	r30, r26
    8e3c:	33 97       	sbiw	r30, 0x03	; 3
    8e3e:	90 81       	ld	r25, Z
    8e40:	89 2f       	mov	r24, r25
    8e42:	90 ff       	sbrs	r25, 0
    8e44:	0b c0       	rjmp	.+22     	; 0x8e5c <rotate_90_auto+0xf84>
    8e46:	f9 01       	movw	r30, r18
    8e48:	43 e0       	ldi	r20, 0x03	; 3
    8e4a:	ee 0f       	add	r30, r30
    8e4c:	ff 1f       	adc	r31, r31
    8e4e:	4a 95       	dec	r20
    8e50:	e1 f7       	brne	.-8      	; 0x8e4a <rotate_90_auto+0xf72>
    8e52:	e0 55       	subi	r30, 0x50	; 80
    8e54:	fe 4f       	sbci	r31, 0xFE	; 254
    8e56:	41 81       	ldd	r20, Z+1	; 0x01
    8e58:	42 60       	ori	r20, 0x02	; 2
    8e5a:	41 83       	std	Z+1, r20	; 0x01
    8e5c:	81 ff       	sbrs	r24, 1
    8e5e:	0b c0       	rjmp	.+22     	; 0x8e76 <rotate_90_auto+0xf9e>
    8e60:	f9 01       	movw	r30, r18
    8e62:	73 e0       	ldi	r23, 0x03	; 3
    8e64:	ee 0f       	add	r30, r30
    8e66:	ff 1f       	adc	r31, r31
    8e68:	7a 95       	dec	r23
    8e6a:	e1 f7       	brne	.-8      	; 0x8e64 <rotate_90_auto+0xf8c>
    8e6c:	e0 55       	subi	r30, 0x50	; 80
    8e6e:	fe 4f       	sbci	r31, 0xFE	; 254
    8e70:	42 81       	ldd	r20, Z+2	; 0x02
    8e72:	42 60       	ori	r20, 0x02	; 2
    8e74:	42 83       	std	Z+2, r20	; 0x02
    8e76:	82 ff       	sbrs	r24, 2
    8e78:	0b c0       	rjmp	.+22     	; 0x8e90 <rotate_90_auto+0xfb8>
    8e7a:	f9 01       	movw	r30, r18
    8e7c:	63 e0       	ldi	r22, 0x03	; 3
    8e7e:	ee 0f       	add	r30, r30
    8e80:	ff 1f       	adc	r31, r31
    8e82:	6a 95       	dec	r22
    8e84:	e1 f7       	brne	.-8      	; 0x8e7e <rotate_90_auto+0xfa6>
    8e86:	e0 55       	subi	r30, 0x50	; 80
    8e88:	fe 4f       	sbci	r31, 0xFE	; 254
    8e8a:	43 81       	ldd	r20, Z+3	; 0x03
    8e8c:	44 60       	ori	r20, 0x04	; 4
    8e8e:	43 83       	std	Z+3, r20	; 0x03
    8e90:	83 ff       	sbrs	r24, 3
    8e92:	0b c0       	rjmp	.+22     	; 0x8eaa <rotate_90_auto+0xfd2>
    8e94:	f9 01       	movw	r30, r18
    8e96:	53 e0       	ldi	r21, 0x03	; 3
    8e98:	ee 0f       	add	r30, r30
    8e9a:	ff 1f       	adc	r31, r31
    8e9c:	5a 95       	dec	r21
    8e9e:	e1 f7       	brne	.-8      	; 0x8e98 <rotate_90_auto+0xfc0>
    8ea0:	e0 55       	subi	r30, 0x50	; 80
    8ea2:	fe 4f       	sbci	r31, 0xFE	; 254
    8ea4:	44 81       	ldd	r20, Z+4	; 0x04
    8ea6:	48 60       	ori	r20, 0x08	; 8
    8ea8:	44 83       	std	Z+4, r20	; 0x04
    8eaa:	84 ff       	sbrs	r24, 4
    8eac:	0b c0       	rjmp	.+22     	; 0x8ec4 <rotate_90_auto+0xfec>
    8eae:	f9 01       	movw	r30, r18
    8eb0:	43 e0       	ldi	r20, 0x03	; 3
    8eb2:	ee 0f       	add	r30, r30
    8eb4:	ff 1f       	adc	r31, r31
    8eb6:	4a 95       	dec	r20
    8eb8:	e1 f7       	brne	.-8      	; 0x8eb2 <rotate_90_auto+0xfda>
    8eba:	e0 55       	subi	r30, 0x50	; 80
    8ebc:	fe 4f       	sbci	r31, 0xFE	; 254
    8ebe:	44 81       	ldd	r20, Z+4	; 0x04
    8ec0:	40 61       	ori	r20, 0x10	; 16
    8ec2:	44 83       	std	Z+4, r20	; 0x04
    8ec4:	85 ff       	sbrs	r24, 5
    8ec6:	0b c0       	rjmp	.+22     	; 0x8ede <rotate_90_auto+0x1006>
    8ec8:	f9 01       	movw	r30, r18
    8eca:	73 e0       	ldi	r23, 0x03	; 3
    8ecc:	ee 0f       	add	r30, r30
    8ece:	ff 1f       	adc	r31, r31
    8ed0:	7a 95       	dec	r23
    8ed2:	e1 f7       	brne	.-8      	; 0x8ecc <rotate_90_auto+0xff4>
    8ed4:	e0 55       	subi	r30, 0x50	; 80
    8ed6:	fe 4f       	sbci	r31, 0xFE	; 254
    8ed8:	45 81       	ldd	r20, Z+5	; 0x05
    8eda:	40 61       	ori	r20, 0x10	; 16
    8edc:	45 83       	std	Z+5, r20	; 0x05
    8ede:	86 ff       	sbrs	r24, 6
    8ee0:	0b c0       	rjmp	.+22     	; 0x8ef8 <rotate_90_auto+0x1020>
    8ee2:	f9 01       	movw	r30, r18
    8ee4:	63 e0       	ldi	r22, 0x03	; 3
    8ee6:	ee 0f       	add	r30, r30
    8ee8:	ff 1f       	adc	r31, r31
    8eea:	6a 95       	dec	r22
    8eec:	e1 f7       	brne	.-8      	; 0x8ee6 <rotate_90_auto+0x100e>
    8eee:	e0 55       	subi	r30, 0x50	; 80
    8ef0:	fe 4f       	sbci	r31, 0xFE	; 254
    8ef2:	86 81       	ldd	r24, Z+6	; 0x06
    8ef4:	80 62       	ori	r24, 0x20	; 32
    8ef6:	86 83       	std	Z+6, r24	; 0x06
    8ef8:	97 ff       	sbrs	r25, 7
    8efa:	0b c0       	rjmp	.+22     	; 0x8f12 <rotate_90_auto+0x103a>
    8efc:	f9 01       	movw	r30, r18
    8efe:	53 e0       	ldi	r21, 0x03	; 3
    8f00:	ee 0f       	add	r30, r30
    8f02:	ff 1f       	adc	r31, r31
    8f04:	5a 95       	dec	r21
    8f06:	e1 f7       	brne	.-8      	; 0x8f00 <rotate_90_auto+0x1028>
    8f08:	e0 55       	subi	r30, 0x50	; 80
    8f0a:	fe 4f       	sbci	r31, 0xFE	; 254
    8f0c:	86 81       	ldd	r24, Z+6	; 0x06
    8f0e:	80 64       	ori	r24, 0x40	; 64
    8f10:	86 83       	std	Z+6, r24	; 0x06
    8f12:	fd 01       	movw	r30, r26
    8f14:	32 97       	sbiw	r30, 0x02	; 2
    8f16:	90 81       	ld	r25, Z
    8f18:	89 2f       	mov	r24, r25
    8f1a:	90 ff       	sbrs	r25, 0
    8f1c:	0b c0       	rjmp	.+22     	; 0x8f34 <rotate_90_auto+0x105c>
    8f1e:	f9 01       	movw	r30, r18
    8f20:	43 e0       	ldi	r20, 0x03	; 3
    8f22:	ee 0f       	add	r30, r30
    8f24:	ff 1f       	adc	r31, r31
    8f26:	4a 95       	dec	r20
    8f28:	e1 f7       	brne	.-8      	; 0x8f22 <rotate_90_auto+0x104a>
    8f2a:	e0 55       	subi	r30, 0x50	; 80
    8f2c:	fe 4f       	sbci	r31, 0xFE	; 254
    8f2e:	42 81       	ldd	r20, Z+2	; 0x02
    8f30:	41 60       	ori	r20, 0x01	; 1
    8f32:	42 83       	std	Z+2, r20	; 0x02
    8f34:	81 ff       	sbrs	r24, 1
    8f36:	0b c0       	rjmp	.+22     	; 0x8f4e <rotate_90_auto+0x1076>
    8f38:	f9 01       	movw	r30, r18
    8f3a:	73 e0       	ldi	r23, 0x03	; 3
    8f3c:	ee 0f       	add	r30, r30
    8f3e:	ff 1f       	adc	r31, r31
    8f40:	7a 95       	dec	r23
    8f42:	e1 f7       	brne	.-8      	; 0x8f3c <rotate_90_auto+0x1064>
    8f44:	e0 55       	subi	r30, 0x50	; 80
    8f46:	fe 4f       	sbci	r31, 0xFE	; 254
    8f48:	43 81       	ldd	r20, Z+3	; 0x03
    8f4a:	42 60       	ori	r20, 0x02	; 2
    8f4c:	43 83       	std	Z+3, r20	; 0x03
    8f4e:	82 ff       	sbrs	r24, 2
    8f50:	0b c0       	rjmp	.+22     	; 0x8f68 <rotate_90_auto+0x1090>
    8f52:	f9 01       	movw	r30, r18
    8f54:	63 e0       	ldi	r22, 0x03	; 3
    8f56:	ee 0f       	add	r30, r30
    8f58:	ff 1f       	adc	r31, r31
    8f5a:	6a 95       	dec	r22
    8f5c:	e1 f7       	brne	.-8      	; 0x8f56 <rotate_90_auto+0x107e>
    8f5e:	e0 55       	subi	r30, 0x50	; 80
    8f60:	fe 4f       	sbci	r31, 0xFE	; 254
    8f62:	44 81       	ldd	r20, Z+4	; 0x04
    8f64:	42 60       	ori	r20, 0x02	; 2
    8f66:	44 83       	std	Z+4, r20	; 0x04
    8f68:	83 ff       	sbrs	r24, 3
    8f6a:	0b c0       	rjmp	.+22     	; 0x8f82 <rotate_90_auto+0x10aa>
    8f6c:	f9 01       	movw	r30, r18
    8f6e:	53 e0       	ldi	r21, 0x03	; 3
    8f70:	ee 0f       	add	r30, r30
    8f72:	ff 1f       	adc	r31, r31
    8f74:	5a 95       	dec	r21
    8f76:	e1 f7       	brne	.-8      	; 0x8f70 <rotate_90_auto+0x1098>
    8f78:	e0 55       	subi	r30, 0x50	; 80
    8f7a:	fe 4f       	sbci	r31, 0xFE	; 254
    8f7c:	44 81       	ldd	r20, Z+4	; 0x04
    8f7e:	44 60       	ori	r20, 0x04	; 4
    8f80:	44 83       	std	Z+4, r20	; 0x04
    8f82:	84 ff       	sbrs	r24, 4
    8f84:	0b c0       	rjmp	.+22     	; 0x8f9c <rotate_90_auto+0x10c4>
    8f86:	f9 01       	movw	r30, r18
    8f88:	43 e0       	ldi	r20, 0x03	; 3
    8f8a:	ee 0f       	add	r30, r30
    8f8c:	ff 1f       	adc	r31, r31
    8f8e:	4a 95       	dec	r20
    8f90:	e1 f7       	brne	.-8      	; 0x8f8a <rotate_90_auto+0x10b2>
    8f92:	e0 55       	subi	r30, 0x50	; 80
    8f94:	fe 4f       	sbci	r31, 0xFE	; 254
    8f96:	45 81       	ldd	r20, Z+5	; 0x05
    8f98:	48 60       	ori	r20, 0x08	; 8
    8f9a:	45 83       	std	Z+5, r20	; 0x05
    8f9c:	85 ff       	sbrs	r24, 5
    8f9e:	0b c0       	rjmp	.+22     	; 0x8fb6 <rotate_90_auto+0x10de>
    8fa0:	f9 01       	movw	r30, r18
    8fa2:	73 e0       	ldi	r23, 0x03	; 3
    8fa4:	ee 0f       	add	r30, r30
    8fa6:	ff 1f       	adc	r31, r31
    8fa8:	7a 95       	dec	r23
    8faa:	e1 f7       	brne	.-8      	; 0x8fa4 <rotate_90_auto+0x10cc>
    8fac:	e0 55       	subi	r30, 0x50	; 80
    8fae:	fe 4f       	sbci	r31, 0xFE	; 254
    8fb0:	46 81       	ldd	r20, Z+6	; 0x06
    8fb2:	40 61       	ori	r20, 0x10	; 16
    8fb4:	46 83       	std	Z+6, r20	; 0x06
    8fb6:	86 ff       	sbrs	r24, 6
    8fb8:	0b c0       	rjmp	.+22     	; 0x8fd0 <rotate_90_auto+0x10f8>
    8fba:	f9 01       	movw	r30, r18
    8fbc:	63 e0       	ldi	r22, 0x03	; 3
    8fbe:	ee 0f       	add	r30, r30
    8fc0:	ff 1f       	adc	r31, r31
    8fc2:	6a 95       	dec	r22
    8fc4:	e1 f7       	brne	.-8      	; 0x8fbe <rotate_90_auto+0x10e6>
    8fc6:	e0 55       	subi	r30, 0x50	; 80
    8fc8:	fe 4f       	sbci	r31, 0xFE	; 254
    8fca:	86 81       	ldd	r24, Z+6	; 0x06
    8fcc:	80 61       	ori	r24, 0x10	; 16
    8fce:	86 83       	std	Z+6, r24	; 0x06
    8fd0:	97 ff       	sbrs	r25, 7
    8fd2:	0b c0       	rjmp	.+22     	; 0x8fea <rotate_90_auto+0x1112>
    8fd4:	f9 01       	movw	r30, r18
    8fd6:	53 e0       	ldi	r21, 0x03	; 3
    8fd8:	ee 0f       	add	r30, r30
    8fda:	ff 1f       	adc	r31, r31
    8fdc:	5a 95       	dec	r21
    8fde:	e1 f7       	brne	.-8      	; 0x8fd8 <rotate_90_auto+0x1100>
    8fe0:	e0 55       	subi	r30, 0x50	; 80
    8fe2:	fe 4f       	sbci	r31, 0xFE	; 254
    8fe4:	87 81       	ldd	r24, Z+7	; 0x07
    8fe6:	80 62       	ori	r24, 0x20	; 32
    8fe8:	87 83       	std	Z+7, r24	; 0x07
    8fea:	fd 01       	movw	r30, r26
    8fec:	31 97       	sbiw	r30, 0x01	; 1
    8fee:	80 81       	ld	r24, Z
    8ff0:	81 ff       	sbrs	r24, 1
    8ff2:	0b c0       	rjmp	.+22     	; 0x900a <rotate_90_auto+0x1132>
    8ff4:	f9 01       	movw	r30, r18
    8ff6:	43 e0       	ldi	r20, 0x03	; 3
    8ff8:	ee 0f       	add	r30, r30
    8ffa:	ff 1f       	adc	r31, r31
    8ffc:	4a 95       	dec	r20
    8ffe:	e1 f7       	brne	.-8      	; 0x8ff8 <rotate_90_auto+0x1120>
    9000:	e0 55       	subi	r30, 0x50	; 80
    9002:	fe 4f       	sbci	r31, 0xFE	; 254
    9004:	94 81       	ldd	r25, Z+4	; 0x04
    9006:	91 60       	ori	r25, 0x01	; 1
    9008:	94 83       	std	Z+4, r25	; 0x04
    900a:	82 ff       	sbrs	r24, 2
    900c:	0b c0       	rjmp	.+22     	; 0x9024 <rotate_90_auto+0x114c>
    900e:	f9 01       	movw	r30, r18
    9010:	93 e0       	ldi	r25, 0x03	; 3
    9012:	ee 0f       	add	r30, r30
    9014:	ff 1f       	adc	r31, r31
    9016:	9a 95       	dec	r25
    9018:	e1 f7       	brne	.-8      	; 0x9012 <rotate_90_auto+0x113a>
    901a:	e0 55       	subi	r30, 0x50	; 80
    901c:	fe 4f       	sbci	r31, 0xFE	; 254
    901e:	94 81       	ldd	r25, Z+4	; 0x04
    9020:	92 60       	ori	r25, 0x02	; 2
    9022:	94 83       	std	Z+4, r25	; 0x04
    9024:	83 ff       	sbrs	r24, 3
    9026:	0b c0       	rjmp	.+22     	; 0x903e <rotate_90_auto+0x1166>
    9028:	f9 01       	movw	r30, r18
    902a:	73 e0       	ldi	r23, 0x03	; 3
    902c:	ee 0f       	add	r30, r30
    902e:	ff 1f       	adc	r31, r31
    9030:	7a 95       	dec	r23
    9032:	e1 f7       	brne	.-8      	; 0x902c <rotate_90_auto+0x1154>
    9034:	e0 55       	subi	r30, 0x50	; 80
    9036:	fe 4f       	sbci	r31, 0xFE	; 254
    9038:	95 81       	ldd	r25, Z+5	; 0x05
    903a:	92 60       	ori	r25, 0x02	; 2
    903c:	95 83       	std	Z+5, r25	; 0x05
    903e:	84 ff       	sbrs	r24, 4
    9040:	0b c0       	rjmp	.+22     	; 0x9058 <rotate_90_auto+0x1180>
    9042:	f9 01       	movw	r30, r18
    9044:	63 e0       	ldi	r22, 0x03	; 3
    9046:	ee 0f       	add	r30, r30
    9048:	ff 1f       	adc	r31, r31
    904a:	6a 95       	dec	r22
    904c:	e1 f7       	brne	.-8      	; 0x9046 <rotate_90_auto+0x116e>
    904e:	e0 55       	subi	r30, 0x50	; 80
    9050:	fe 4f       	sbci	r31, 0xFE	; 254
    9052:	96 81       	ldd	r25, Z+6	; 0x06
    9054:	94 60       	ori	r25, 0x04	; 4
    9056:	96 83       	std	Z+6, r25	; 0x06
    9058:	85 ff       	sbrs	r24, 5
    905a:	0b c0       	rjmp	.+22     	; 0x9072 <rotate_90_auto+0x119a>
    905c:	f9 01       	movw	r30, r18
    905e:	53 e0       	ldi	r21, 0x03	; 3
    9060:	ee 0f       	add	r30, r30
    9062:	ff 1f       	adc	r31, r31
    9064:	5a 95       	dec	r21
    9066:	e1 f7       	brne	.-8      	; 0x9060 <rotate_90_auto+0x1188>
    9068:	e0 55       	subi	r30, 0x50	; 80
    906a:	fe 4f       	sbci	r31, 0xFE	; 254
    906c:	96 81       	ldd	r25, Z+6	; 0x06
    906e:	98 60       	ori	r25, 0x08	; 8
    9070:	96 83       	std	Z+6, r25	; 0x06
    9072:	86 ff       	sbrs	r24, 6
    9074:	0b c0       	rjmp	.+22     	; 0x908c <rotate_90_auto+0x11b4>
    9076:	f9 01       	movw	r30, r18
    9078:	43 e0       	ldi	r20, 0x03	; 3
    907a:	ee 0f       	add	r30, r30
    907c:	ff 1f       	adc	r31, r31
    907e:	4a 95       	dec	r20
    9080:	e1 f7       	brne	.-8      	; 0x907a <rotate_90_auto+0x11a2>
    9082:	e0 55       	subi	r30, 0x50	; 80
    9084:	fe 4f       	sbci	r31, 0xFE	; 254
    9086:	87 81       	ldd	r24, Z+7	; 0x07
    9088:	80 61       	ori	r24, 0x10	; 16
    908a:	87 83       	std	Z+7, r24	; 0x07
    908c:	8c 91       	ld	r24, X
    908e:	82 ff       	sbrs	r24, 2
    9090:	0b c0       	rjmp	.+22     	; 0x90a8 <rotate_90_auto+0x11d0>
    9092:	f9 01       	movw	r30, r18
    9094:	93 e0       	ldi	r25, 0x03	; 3
    9096:	ee 0f       	add	r30, r30
    9098:	ff 1f       	adc	r31, r31
    909a:	9a 95       	dec	r25
    909c:	e1 f7       	brne	.-8      	; 0x9096 <rotate_90_auto+0x11be>
    909e:	e0 55       	subi	r30, 0x50	; 80
    90a0:	fe 4f       	sbci	r31, 0xFE	; 254
    90a2:	95 81       	ldd	r25, Z+5	; 0x05
    90a4:	91 60       	ori	r25, 0x01	; 1
    90a6:	95 83       	std	Z+5, r25	; 0x05
    90a8:	83 ff       	sbrs	r24, 3
    90aa:	0b c0       	rjmp	.+22     	; 0x90c2 <rotate_90_auto+0x11ea>
    90ac:	f9 01       	movw	r30, r18
    90ae:	73 e0       	ldi	r23, 0x03	; 3
    90b0:	ee 0f       	add	r30, r30
    90b2:	ff 1f       	adc	r31, r31
    90b4:	7a 95       	dec	r23
    90b6:	e1 f7       	brne	.-8      	; 0x90b0 <rotate_90_auto+0x11d8>
    90b8:	e0 55       	subi	r30, 0x50	; 80
    90ba:	fe 4f       	sbci	r31, 0xFE	; 254
    90bc:	96 81       	ldd	r25, Z+6	; 0x06
    90be:	92 60       	ori	r25, 0x02	; 2
    90c0:	96 83       	std	Z+6, r25	; 0x06
    90c2:	84 ff       	sbrs	r24, 4
    90c4:	0b c0       	rjmp	.+22     	; 0x90dc <rotate_90_auto+0x1204>
    90c6:	f9 01       	movw	r30, r18
    90c8:	63 e0       	ldi	r22, 0x03	; 3
    90ca:	ee 0f       	add	r30, r30
    90cc:	ff 1f       	adc	r31, r31
    90ce:	6a 95       	dec	r22
    90d0:	e1 f7       	brne	.-8      	; 0x90ca <rotate_90_auto+0x11f2>
    90d2:	e0 55       	subi	r30, 0x50	; 80
    90d4:	fe 4f       	sbci	r31, 0xFE	; 254
    90d6:	96 81       	ldd	r25, Z+6	; 0x06
    90d8:	92 60       	ori	r25, 0x02	; 2
    90da:	96 83       	std	Z+6, r25	; 0x06
    90dc:	85 ff       	sbrs	r24, 5
    90de:	0b c0       	rjmp	.+22     	; 0x90f6 <rotate_90_auto+0x121e>
    90e0:	f9 01       	movw	r30, r18
    90e2:	53 e0       	ldi	r21, 0x03	; 3
    90e4:	ee 0f       	add	r30, r30
    90e6:	ff 1f       	adc	r31, r31
    90e8:	5a 95       	dec	r21
    90ea:	e1 f7       	brne	.-8      	; 0x90e4 <rotate_90_auto+0x120c>
    90ec:	e0 55       	subi	r30, 0x50	; 80
    90ee:	fe 4f       	sbci	r31, 0xFE	; 254
    90f0:	87 81       	ldd	r24, Z+7	; 0x07
    90f2:	84 60       	ori	r24, 0x04	; 4
    90f4:	87 83       	std	Z+7, r24	; 0x07
    90f6:	2f 5f       	subi	r18, 0xFF	; 255
    90f8:	3f 4f       	sbci	r19, 0xFF	; 255
    90fa:	18 96       	adiw	r26, 0x08	; 8
    90fc:	28 30       	cpi	r18, 0x08	; 8
    90fe:	31 05       	cpc	r19, r1
    9100:	09 f0       	breq	.+2      	; 0x9104 <rotate_90_auto+0x122c>
    9102:	3b cd       	rjmp	.-1418   	; 0x8b7a <rotate_90_auto+0xca2>
    9104:	85 e0       	ldi	r24, 0x05	; 5
    9106:	0e 94 c8 3e 	call	0x7d90	; 0x7d90 <cube_show_loop>
    910a:	0e 94 9d 3d 	call	0x7b3a	; 0x7b3a <cube_clear>
    910e:	de 01       	movw	r26, r28
    9110:	18 96       	adiw	r26, 0x08	; 8
    9112:	20 e0       	ldi	r18, 0x00	; 0
    9114:	30 e0       	ldi	r19, 0x00	; 0
    9116:	fd 01       	movw	r30, r26
    9118:	37 97       	sbiw	r30, 0x07	; 7
    911a:	80 81       	ld	r24, Z
    911c:	81 ff       	sbrs	r24, 1
    911e:	0b c0       	rjmp	.+22     	; 0x9136 <rotate_90_auto+0x125e>
    9120:	f9 01       	movw	r30, r18
    9122:	43 e0       	ldi	r20, 0x03	; 3
    9124:	ee 0f       	add	r30, r30
    9126:	ff 1f       	adc	r31, r31
    9128:	4a 95       	dec	r20
    912a:	e1 f7       	brne	.-8      	; 0x9124 <rotate_90_auto+0x124c>
    912c:	e0 55       	subi	r30, 0x50	; 80
    912e:	fe 4f       	sbci	r31, 0xFE	; 254
    9130:	90 81       	ld	r25, Z
    9132:	90 62       	ori	r25, 0x20	; 32
    9134:	90 83       	st	Z, r25
    9136:	82 ff       	sbrs	r24, 2
    9138:	0b c0       	rjmp	.+22     	; 0x9150 <rotate_90_auto+0x1278>
    913a:	f9 01       	movw	r30, r18
    913c:	93 e0       	ldi	r25, 0x03	; 3
    913e:	ee 0f       	add	r30, r30
    9140:	ff 1f       	adc	r31, r31
    9142:	9a 95       	dec	r25
    9144:	e1 f7       	brne	.-8      	; 0x913e <rotate_90_auto+0x1266>
    9146:	e0 55       	subi	r30, 0x50	; 80
    9148:	fe 4f       	sbci	r31, 0xFE	; 254
    914a:	90 81       	ld	r25, Z
    914c:	90 64       	ori	r25, 0x40	; 64
    914e:	90 83       	st	Z, r25
    9150:	83 ff       	sbrs	r24, 3
    9152:	0b c0       	rjmp	.+22     	; 0x916a <rotate_90_auto+0x1292>
    9154:	f9 01       	movw	r30, r18
    9156:	73 e0       	ldi	r23, 0x03	; 3
    9158:	ee 0f       	add	r30, r30
    915a:	ff 1f       	adc	r31, r31
    915c:	7a 95       	dec	r23
    915e:	e1 f7       	brne	.-8      	; 0x9158 <rotate_90_auto+0x1280>
    9160:	e0 55       	subi	r30, 0x50	; 80
    9162:	fe 4f       	sbci	r31, 0xFE	; 254
    9164:	91 81       	ldd	r25, Z+1	; 0x01
    9166:	90 64       	ori	r25, 0x40	; 64
    9168:	91 83       	std	Z+1, r25	; 0x01
    916a:	84 ff       	sbrs	r24, 4
    916c:	0b c0       	rjmp	.+22     	; 0x9184 <rotate_90_auto+0x12ac>
    916e:	f9 01       	movw	r30, r18
    9170:	63 e0       	ldi	r22, 0x03	; 3
    9172:	ee 0f       	add	r30, r30
    9174:	ff 1f       	adc	r31, r31
    9176:	6a 95       	dec	r22
    9178:	e1 f7       	brne	.-8      	; 0x9172 <rotate_90_auto+0x129a>
    917a:	e0 55       	subi	r30, 0x50	; 80
    917c:	fe 4f       	sbci	r31, 0xFE	; 254
    917e:	92 81       	ldd	r25, Z+2	; 0x02
    9180:	90 68       	ori	r25, 0x80	; 128
    9182:	92 83       	std	Z+2, r25	; 0x02
    9184:	85 ff       	sbrs	r24, 5
    9186:	0b c0       	rjmp	.+22     	; 0x919e <rotate_90_auto+0x12c6>
    9188:	f9 01       	movw	r30, r18
    918a:	53 e0       	ldi	r21, 0x03	; 3
    918c:	ee 0f       	add	r30, r30
    918e:	ff 1f       	adc	r31, r31
    9190:	5a 95       	dec	r21
    9192:	e1 f7       	brne	.-8      	; 0x918c <rotate_90_auto+0x12b4>
    9194:	e0 55       	subi	r30, 0x50	; 80
    9196:	fe 4f       	sbci	r31, 0xFE	; 254
    9198:	83 81       	ldd	r24, Z+3	; 0x03
    919a:	80 68       	ori	r24, 0x80	; 128
    919c:	83 83       	std	Z+3, r24	; 0x03
    919e:	fd 01       	movw	r30, r26
    91a0:	36 97       	sbiw	r30, 0x06	; 6
    91a2:	90 81       	ld	r25, Z
    91a4:	89 2f       	mov	r24, r25
    91a6:	91 ff       	sbrs	r25, 1
    91a8:	0b c0       	rjmp	.+22     	; 0x91c0 <rotate_90_auto+0x12e8>
    91aa:	f9 01       	movw	r30, r18
    91ac:	43 e0       	ldi	r20, 0x03	; 3
    91ae:	ee 0f       	add	r30, r30
    91b0:	ff 1f       	adc	r31, r31
    91b2:	4a 95       	dec	r20
    91b4:	e1 f7       	brne	.-8      	; 0x91ae <rotate_90_auto+0x12d6>
    91b6:	e0 55       	subi	r30, 0x50	; 80
    91b8:	fe 4f       	sbci	r31, 0xFE	; 254
    91ba:	40 81       	ld	r20, Z
    91bc:	40 61       	ori	r20, 0x10	; 16
    91be:	40 83       	st	Z, r20
    91c0:	82 ff       	sbrs	r24, 2
    91c2:	0b c0       	rjmp	.+22     	; 0x91da <rotate_90_auto+0x1302>
    91c4:	f9 01       	movw	r30, r18
    91c6:	73 e0       	ldi	r23, 0x03	; 3
    91c8:	ee 0f       	add	r30, r30
    91ca:	ff 1f       	adc	r31, r31
    91cc:	7a 95       	dec	r23
    91ce:	e1 f7       	brne	.-8      	; 0x91c8 <rotate_90_auto+0x12f0>
    91d0:	e0 55       	subi	r30, 0x50	; 80
    91d2:	fe 4f       	sbci	r31, 0xFE	; 254
    91d4:	41 81       	ldd	r20, Z+1	; 0x01
    91d6:	40 62       	ori	r20, 0x20	; 32
    91d8:	41 83       	std	Z+1, r20	; 0x01
    91da:	83 ff       	sbrs	r24, 3
    91dc:	0b c0       	rjmp	.+22     	; 0x91f4 <rotate_90_auto+0x131c>
    91de:	f9 01       	movw	r30, r18
    91e0:	63 e0       	ldi	r22, 0x03	; 3
    91e2:	ee 0f       	add	r30, r30
    91e4:	ff 1f       	adc	r31, r31
    91e6:	6a 95       	dec	r22
    91e8:	e1 f7       	brne	.-8      	; 0x91e2 <rotate_90_auto+0x130a>
    91ea:	e0 55       	subi	r30, 0x50	; 80
    91ec:	fe 4f       	sbci	r31, 0xFE	; 254
    91ee:	42 81       	ldd	r20, Z+2	; 0x02
    91f0:	40 62       	ori	r20, 0x20	; 32
    91f2:	42 83       	std	Z+2, r20	; 0x02
    91f4:	84 ff       	sbrs	r24, 4
    91f6:	0b c0       	rjmp	.+22     	; 0x920e <rotate_90_auto+0x1336>
    91f8:	f9 01       	movw	r30, r18
    91fa:	53 e0       	ldi	r21, 0x03	; 3
    91fc:	ee 0f       	add	r30, r30
    91fe:	ff 1f       	adc	r31, r31
    9200:	5a 95       	dec	r21
    9202:	e1 f7       	brne	.-8      	; 0x91fc <rotate_90_auto+0x1324>
    9204:	e0 55       	subi	r30, 0x50	; 80
    9206:	fe 4f       	sbci	r31, 0xFE	; 254
    9208:	43 81       	ldd	r20, Z+3	; 0x03
    920a:	40 64       	ori	r20, 0x40	; 64
    920c:	43 83       	std	Z+3, r20	; 0x03
    920e:	85 ff       	sbrs	r24, 5
    9210:	0b c0       	rjmp	.+22     	; 0x9228 <rotate_90_auto+0x1350>
    9212:	f9 01       	movw	r30, r18
    9214:	43 e0       	ldi	r20, 0x03	; 3
    9216:	ee 0f       	add	r30, r30
    9218:	ff 1f       	adc	r31, r31
    921a:	4a 95       	dec	r20
    921c:	e1 f7       	brne	.-8      	; 0x9216 <rotate_90_auto+0x133e>
    921e:	e0 55       	subi	r30, 0x50	; 80
    9220:	fe 4f       	sbci	r31, 0xFE	; 254
    9222:	44 81       	ldd	r20, Z+4	; 0x04
    9224:	40 64       	ori	r20, 0x40	; 64
    9226:	44 83       	std	Z+4, r20	; 0x04
    9228:	86 ff       	sbrs	r24, 6
    922a:	0b c0       	rjmp	.+22     	; 0x9242 <rotate_90_auto+0x136a>
    922c:	f9 01       	movw	r30, r18
    922e:	73 e0       	ldi	r23, 0x03	; 3
    9230:	ee 0f       	add	r30, r30
    9232:	ff 1f       	adc	r31, r31
    9234:	7a 95       	dec	r23
    9236:	e1 f7       	brne	.-8      	; 0x9230 <rotate_90_auto+0x1358>
    9238:	e0 55       	subi	r30, 0x50	; 80
    923a:	fe 4f       	sbci	r31, 0xFE	; 254
    923c:	84 81       	ldd	r24, Z+4	; 0x04
    923e:	80 68       	ori	r24, 0x80	; 128
    9240:	84 83       	std	Z+4, r24	; 0x04
    9242:	97 ff       	sbrs	r25, 7
    9244:	0b c0       	rjmp	.+22     	; 0x925c <rotate_90_auto+0x1384>
    9246:	f9 01       	movw	r30, r18
    9248:	63 e0       	ldi	r22, 0x03	; 3
    924a:	ee 0f       	add	r30, r30
    924c:	ff 1f       	adc	r31, r31
    924e:	6a 95       	dec	r22
    9250:	e1 f7       	brne	.-8      	; 0x924a <rotate_90_auto+0x1372>
    9252:	e0 55       	subi	r30, 0x50	; 80
    9254:	fe 4f       	sbci	r31, 0xFE	; 254
    9256:	85 81       	ldd	r24, Z+5	; 0x05
    9258:	80 68       	ori	r24, 0x80	; 128
    925a:	85 83       	std	Z+5, r24	; 0x05
    925c:	fd 01       	movw	r30, r26
    925e:	35 97       	sbiw	r30, 0x05	; 5
    9260:	90 81       	ld	r25, Z
    9262:	89 2f       	mov	r24, r25
    9264:	90 ff       	sbrs	r25, 0
    9266:	0b c0       	rjmp	.+22     	; 0x927e <rotate_90_auto+0x13a6>
    9268:	f9 01       	movw	r30, r18
    926a:	53 e0       	ldi	r21, 0x03	; 3
    926c:	ee 0f       	add	r30, r30
    926e:	ff 1f       	adc	r31, r31
    9270:	5a 95       	dec	r21
    9272:	e1 f7       	brne	.-8      	; 0x926c <rotate_90_auto+0x1394>
    9274:	e0 55       	subi	r30, 0x50	; 80
    9276:	fe 4f       	sbci	r31, 0xFE	; 254
    9278:	40 81       	ld	r20, Z
    927a:	48 60       	ori	r20, 0x08	; 8
    927c:	40 83       	st	Z, r20
    927e:	81 ff       	sbrs	r24, 1
    9280:	0b c0       	rjmp	.+22     	; 0x9298 <rotate_90_auto+0x13c0>
    9282:	f9 01       	movw	r30, r18
    9284:	43 e0       	ldi	r20, 0x03	; 3
    9286:	ee 0f       	add	r30, r30
    9288:	ff 1f       	adc	r31, r31
    928a:	4a 95       	dec	r20
    928c:	e1 f7       	brne	.-8      	; 0x9286 <rotate_90_auto+0x13ae>
    928e:	e0 55       	subi	r30, 0x50	; 80
    9290:	fe 4f       	sbci	r31, 0xFE	; 254
    9292:	41 81       	ldd	r20, Z+1	; 0x01
    9294:	40 61       	ori	r20, 0x10	; 16
    9296:	41 83       	std	Z+1, r20	; 0x01
    9298:	82 ff       	sbrs	r24, 2
    929a:	0b c0       	rjmp	.+22     	; 0x92b2 <rotate_90_auto+0x13da>
    929c:	f9 01       	movw	r30, r18
    929e:	73 e0       	ldi	r23, 0x03	; 3
    92a0:	ee 0f       	add	r30, r30
    92a2:	ff 1f       	adc	r31, r31
    92a4:	7a 95       	dec	r23
    92a6:	e1 f7       	brne	.-8      	; 0x92a0 <rotate_90_auto+0x13c8>
    92a8:	e0 55       	subi	r30, 0x50	; 80
    92aa:	fe 4f       	sbci	r31, 0xFE	; 254
    92ac:	41 81       	ldd	r20, Z+1	; 0x01
    92ae:	40 61       	ori	r20, 0x10	; 16
    92b0:	41 83       	std	Z+1, r20	; 0x01
    92b2:	83 ff       	sbrs	r24, 3
    92b4:	0b c0       	rjmp	.+22     	; 0x92cc <rotate_90_auto+0x13f4>
    92b6:	f9 01       	movw	r30, r18
    92b8:	63 e0       	ldi	r22, 0x03	; 3
    92ba:	ee 0f       	add	r30, r30
    92bc:	ff 1f       	adc	r31, r31
    92be:	6a 95       	dec	r22
    92c0:	e1 f7       	brne	.-8      	; 0x92ba <rotate_90_auto+0x13e2>
    92c2:	e0 55       	subi	r30, 0x50	; 80
    92c4:	fe 4f       	sbci	r31, 0xFE	; 254
    92c6:	42 81       	ldd	r20, Z+2	; 0x02
    92c8:	40 62       	ori	r20, 0x20	; 32
    92ca:	42 83       	std	Z+2, r20	; 0x02
    92cc:	84 ff       	sbrs	r24, 4
    92ce:	0b c0       	rjmp	.+22     	; 0x92e6 <rotate_90_auto+0x140e>
    92d0:	f9 01       	movw	r30, r18
    92d2:	53 e0       	ldi	r21, 0x03	; 3
    92d4:	ee 0f       	add	r30, r30
    92d6:	ff 1f       	adc	r31, r31
    92d8:	5a 95       	dec	r21
    92da:	e1 f7       	brne	.-8      	; 0x92d4 <rotate_90_auto+0x13fc>
    92dc:	e0 55       	subi	r30, 0x50	; 80
    92de:	fe 4f       	sbci	r31, 0xFE	; 254
    92e0:	43 81       	ldd	r20, Z+3	; 0x03
    92e2:	40 62       	ori	r20, 0x20	; 32
    92e4:	43 83       	std	Z+3, r20	; 0x03
    92e6:	85 ff       	sbrs	r24, 5
    92e8:	0b c0       	rjmp	.+22     	; 0x9300 <rotate_90_auto+0x1428>
    92ea:	f9 01       	movw	r30, r18
    92ec:	43 e0       	ldi	r20, 0x03	; 3
    92ee:	ee 0f       	add	r30, r30
    92f0:	ff 1f       	adc	r31, r31
    92f2:	4a 95       	dec	r20
    92f4:	e1 f7       	brne	.-8      	; 0x92ee <rotate_90_auto+0x1416>
    92f6:	e0 55       	subi	r30, 0x50	; 80
    92f8:	fe 4f       	sbci	r31, 0xFE	; 254
    92fa:	44 81       	ldd	r20, Z+4	; 0x04
    92fc:	40 64       	ori	r20, 0x40	; 64
    92fe:	44 83       	std	Z+4, r20	; 0x04
    9300:	86 ff       	sbrs	r24, 6
    9302:	0b c0       	rjmp	.+22     	; 0x931a <rotate_90_auto+0x1442>
    9304:	f9 01       	movw	r30, r18
    9306:	73 e0       	ldi	r23, 0x03	; 3
    9308:	ee 0f       	add	r30, r30
    930a:	ff 1f       	adc	r31, r31
    930c:	7a 95       	dec	r23
    930e:	e1 f7       	brne	.-8      	; 0x9308 <rotate_90_auto+0x1430>
    9310:	e0 55       	subi	r30, 0x50	; 80
    9312:	fe 4f       	sbci	r31, 0xFE	; 254
    9314:	85 81       	ldd	r24, Z+5	; 0x05
    9316:	80 64       	ori	r24, 0x40	; 64
    9318:	85 83       	std	Z+5, r24	; 0x05
    931a:	97 ff       	sbrs	r25, 7
    931c:	0b c0       	rjmp	.+22     	; 0x9334 <rotate_90_auto+0x145c>
    931e:	f9 01       	movw	r30, r18
    9320:	63 e0       	ldi	r22, 0x03	; 3
    9322:	ee 0f       	add	r30, r30
    9324:	ff 1f       	adc	r31, r31
    9326:	6a 95       	dec	r22
    9328:	e1 f7       	brne	.-8      	; 0x9322 <rotate_90_auto+0x144a>
    932a:	e0 55       	subi	r30, 0x50	; 80
    932c:	fe 4f       	sbci	r31, 0xFE	; 254
    932e:	86 81       	ldd	r24, Z+6	; 0x06
    9330:	80 68       	ori	r24, 0x80	; 128
    9332:	86 83       	std	Z+6, r24	; 0x06
    9334:	fd 01       	movw	r30, r26
    9336:	34 97       	sbiw	r30, 0x04	; 4
    9338:	90 81       	ld	r25, Z
    933a:	89 2f       	mov	r24, r25
    933c:	90 ff       	sbrs	r25, 0
    933e:	0b c0       	rjmp	.+22     	; 0x9356 <rotate_90_auto+0x147e>
    9340:	f9 01       	movw	r30, r18
    9342:	53 e0       	ldi	r21, 0x03	; 3
    9344:	ee 0f       	add	r30, r30
    9346:	ff 1f       	adc	r31, r31
    9348:	5a 95       	dec	r21
    934a:	e1 f7       	brne	.-8      	; 0x9344 <rotate_90_auto+0x146c>
    934c:	e0 55       	subi	r30, 0x50	; 80
    934e:	fe 4f       	sbci	r31, 0xFE	; 254
    9350:	40 81       	ld	r20, Z
    9352:	44 60       	ori	r20, 0x04	; 4
    9354:	40 83       	st	Z, r20
    9356:	81 ff       	sbrs	r24, 1
    9358:	0b c0       	rjmp	.+22     	; 0x9370 <rotate_90_auto+0x1498>
    935a:	f9 01       	movw	r30, r18
    935c:	43 e0       	ldi	r20, 0x03	; 3
    935e:	ee 0f       	add	r30, r30
    9360:	ff 1f       	adc	r31, r31
    9362:	4a 95       	dec	r20
    9364:	e1 f7       	brne	.-8      	; 0x935e <rotate_90_auto+0x1486>
    9366:	e0 55       	subi	r30, 0x50	; 80
    9368:	fe 4f       	sbci	r31, 0xFE	; 254
    936a:	41 81       	ldd	r20, Z+1	; 0x01
    936c:	48 60       	ori	r20, 0x08	; 8
    936e:	41 83       	std	Z+1, r20	; 0x01
    9370:	82 ff       	sbrs	r24, 2
    9372:	0b c0       	rjmp	.+22     	; 0x938a <rotate_90_auto+0x14b2>
    9374:	f9 01       	movw	r30, r18
    9376:	73 e0       	ldi	r23, 0x03	; 3
    9378:	ee 0f       	add	r30, r30
    937a:	ff 1f       	adc	r31, r31
    937c:	7a 95       	dec	r23
    937e:	e1 f7       	brne	.-8      	; 0x9378 <rotate_90_auto+0x14a0>
    9380:	e0 55       	subi	r30, 0x50	; 80
    9382:	fe 4f       	sbci	r31, 0xFE	; 254
    9384:	42 81       	ldd	r20, Z+2	; 0x02
    9386:	48 60       	ori	r20, 0x08	; 8
    9388:	42 83       	std	Z+2, r20	; 0x02
    938a:	83 ff       	sbrs	r24, 3
    938c:	0b c0       	rjmp	.+22     	; 0x93a4 <rotate_90_auto+0x14cc>
    938e:	f9 01       	movw	r30, r18
    9390:	63 e0       	ldi	r22, 0x03	; 3
    9392:	ee 0f       	add	r30, r30
    9394:	ff 1f       	adc	r31, r31
    9396:	6a 95       	dec	r22
    9398:	e1 f7       	brne	.-8      	; 0x9392 <rotate_90_auto+0x14ba>
    939a:	e0 55       	subi	r30, 0x50	; 80
    939c:	fe 4f       	sbci	r31, 0xFE	; 254
    939e:	43 81       	ldd	r20, Z+3	; 0x03
    93a0:	40 61       	ori	r20, 0x10	; 16
    93a2:	43 83       	std	Z+3, r20	; 0x03
    93a4:	84 ff       	sbrs	r24, 4
    93a6:	0b c0       	rjmp	.+22     	; 0x93be <rotate_90_auto+0x14e6>
    93a8:	f9 01       	movw	r30, r18
    93aa:	53 e0       	ldi	r21, 0x03	; 3
    93ac:	ee 0f       	add	r30, r30
    93ae:	ff 1f       	adc	r31, r31
    93b0:	5a 95       	dec	r21
    93b2:	e1 f7       	brne	.-8      	; 0x93ac <rotate_90_auto+0x14d4>
    93b4:	e0 55       	subi	r30, 0x50	; 80
    93b6:	fe 4f       	sbci	r31, 0xFE	; 254
    93b8:	44 81       	ldd	r20, Z+4	; 0x04
    93ba:	40 61       	ori	r20, 0x10	; 16
    93bc:	44 83       	std	Z+4, r20	; 0x04
    93be:	85 ff       	sbrs	r24, 5
    93c0:	0b c0       	rjmp	.+22     	; 0x93d8 <rotate_90_auto+0x1500>
    93c2:	f9 01       	movw	r30, r18
    93c4:	43 e0       	ldi	r20, 0x03	; 3
    93c6:	ee 0f       	add	r30, r30
    93c8:	ff 1f       	adc	r31, r31
    93ca:	4a 95       	dec	r20
    93cc:	e1 f7       	brne	.-8      	; 0x93c6 <rotate_90_auto+0x14ee>
    93ce:	e0 55       	subi	r30, 0x50	; 80
    93d0:	fe 4f       	sbci	r31, 0xFE	; 254
    93d2:	45 81       	ldd	r20, Z+5	; 0x05
    93d4:	40 62       	ori	r20, 0x20	; 32
    93d6:	45 83       	std	Z+5, r20	; 0x05
    93d8:	86 ff       	sbrs	r24, 6
    93da:	0b c0       	rjmp	.+22     	; 0x93f2 <rotate_90_auto+0x151a>
    93dc:	f9 01       	movw	r30, r18
    93de:	83 e0       	ldi	r24, 0x03	; 3
    93e0:	ee 0f       	add	r30, r30
    93e2:	ff 1f       	adc	r31, r31
    93e4:	8a 95       	dec	r24
    93e6:	e1 f7       	brne	.-8      	; 0x93e0 <rotate_90_auto+0x1508>
    93e8:	e0 55       	subi	r30, 0x50	; 80
    93ea:	fe 4f       	sbci	r31, 0xFE	; 254
    93ec:	85 81       	ldd	r24, Z+5	; 0x05
    93ee:	80 62       	ori	r24, 0x20	; 32
    93f0:	85 83       	std	Z+5, r24	; 0x05
    93f2:	97 ff       	sbrs	r25, 7
    93f4:	0b c0       	rjmp	.+22     	; 0x940c <rotate_90_auto+0x1534>
    93f6:	f9 01       	movw	r30, r18
    93f8:	73 e0       	ldi	r23, 0x03	; 3
    93fa:	ee 0f       	add	r30, r30
    93fc:	ff 1f       	adc	r31, r31
    93fe:	7a 95       	dec	r23
    9400:	e1 f7       	brne	.-8      	; 0x93fa <rotate_90_auto+0x1522>
    9402:	e0 55       	subi	r30, 0x50	; 80
    9404:	fe 4f       	sbci	r31, 0xFE	; 254
    9406:	86 81       	ldd	r24, Z+6	; 0x06
    9408:	80 64       	ori	r24, 0x40	; 64
    940a:	86 83       	std	Z+6, r24	; 0x06
    940c:	fd 01       	movw	r30, r26
    940e:	33 97       	sbiw	r30, 0x03	; 3
    9410:	90 81       	ld	r25, Z
    9412:	89 2f       	mov	r24, r25
    9414:	90 ff       	sbrs	r25, 0
    9416:	0b c0       	rjmp	.+22     	; 0x942e <rotate_90_auto+0x1556>
    9418:	f9 01       	movw	r30, r18
    941a:	63 e0       	ldi	r22, 0x03	; 3
    941c:	ee 0f       	add	r30, r30
    941e:	ff 1f       	adc	r31, r31
    9420:	6a 95       	dec	r22
    9422:	e1 f7       	brne	.-8      	; 0x941c <rotate_90_auto+0x1544>
    9424:	e0 55       	subi	r30, 0x50	; 80
    9426:	fe 4f       	sbci	r31, 0xFE	; 254
    9428:	41 81       	ldd	r20, Z+1	; 0x01
    942a:	42 60       	ori	r20, 0x02	; 2
    942c:	41 83       	std	Z+1, r20	; 0x01
    942e:	81 ff       	sbrs	r24, 1
    9430:	0b c0       	rjmp	.+22     	; 0x9448 <rotate_90_auto+0x1570>
    9432:	f9 01       	movw	r30, r18
    9434:	53 e0       	ldi	r21, 0x03	; 3
    9436:	ee 0f       	add	r30, r30
    9438:	ff 1f       	adc	r31, r31
    943a:	5a 95       	dec	r21
    943c:	e1 f7       	brne	.-8      	; 0x9436 <rotate_90_auto+0x155e>
    943e:	e0 55       	subi	r30, 0x50	; 80
    9440:	fe 4f       	sbci	r31, 0xFE	; 254
    9442:	42 81       	ldd	r20, Z+2	; 0x02
    9444:	44 60       	ori	r20, 0x04	; 4
    9446:	42 83       	std	Z+2, r20	; 0x02
    9448:	82 ff       	sbrs	r24, 2
    944a:	0b c0       	rjmp	.+22     	; 0x9462 <rotate_90_auto+0x158a>
    944c:	f9 01       	movw	r30, r18
    944e:	43 e0       	ldi	r20, 0x03	; 3
    9450:	ee 0f       	add	r30, r30
    9452:	ff 1f       	adc	r31, r31
    9454:	4a 95       	dec	r20
    9456:	e1 f7       	brne	.-8      	; 0x9450 <rotate_90_auto+0x1578>
    9458:	e0 55       	subi	r30, 0x50	; 80
    945a:	fe 4f       	sbci	r31, 0xFE	; 254
    945c:	42 81       	ldd	r20, Z+2	; 0x02
    945e:	44 60       	ori	r20, 0x04	; 4
    9460:	42 83       	std	Z+2, r20	; 0x02
    9462:	83 ff       	sbrs	r24, 3
    9464:	0b c0       	rjmp	.+22     	; 0x947c <rotate_90_auto+0x15a4>
    9466:	f9 01       	movw	r30, r18
    9468:	73 e0       	ldi	r23, 0x03	; 3
    946a:	ee 0f       	add	r30, r30
    946c:	ff 1f       	adc	r31, r31
    946e:	7a 95       	dec	r23
    9470:	e1 f7       	brne	.-8      	; 0x946a <rotate_90_auto+0x1592>
    9472:	e0 55       	subi	r30, 0x50	; 80
    9474:	fe 4f       	sbci	r31, 0xFE	; 254
    9476:	43 81       	ldd	r20, Z+3	; 0x03
    9478:	48 60       	ori	r20, 0x08	; 8
    947a:	43 83       	std	Z+3, r20	; 0x03
    947c:	84 ff       	sbrs	r24, 4
    947e:	0b c0       	rjmp	.+22     	; 0x9496 <rotate_90_auto+0x15be>
    9480:	f9 01       	movw	r30, r18
    9482:	63 e0       	ldi	r22, 0x03	; 3
    9484:	ee 0f       	add	r30, r30
    9486:	ff 1f       	adc	r31, r31
    9488:	6a 95       	dec	r22
    948a:	e1 f7       	brne	.-8      	; 0x9484 <rotate_90_auto+0x15ac>
    948c:	e0 55       	subi	r30, 0x50	; 80
    948e:	fe 4f       	sbci	r31, 0xFE	; 254
    9490:	44 81       	ldd	r20, Z+4	; 0x04
    9492:	48 60       	ori	r20, 0x08	; 8
    9494:	44 83       	std	Z+4, r20	; 0x04
    9496:	85 ff       	sbrs	r24, 5
    9498:	0b c0       	rjmp	.+22     	; 0x94b0 <rotate_90_auto+0x15d8>
    949a:	f9 01       	movw	r30, r18
    949c:	53 e0       	ldi	r21, 0x03	; 3
    949e:	ee 0f       	add	r30, r30
    94a0:	ff 1f       	adc	r31, r31
    94a2:	5a 95       	dec	r21
    94a4:	e1 f7       	brne	.-8      	; 0x949e <rotate_90_auto+0x15c6>
    94a6:	e0 55       	subi	r30, 0x50	; 80
    94a8:	fe 4f       	sbci	r31, 0xFE	; 254
    94aa:	45 81       	ldd	r20, Z+5	; 0x05
    94ac:	40 61       	ori	r20, 0x10	; 16
    94ae:	45 83       	std	Z+5, r20	; 0x05
    94b0:	86 ff       	sbrs	r24, 6
    94b2:	0b c0       	rjmp	.+22     	; 0x94ca <rotate_90_auto+0x15f2>
    94b4:	f9 01       	movw	r30, r18
    94b6:	43 e0       	ldi	r20, 0x03	; 3
    94b8:	ee 0f       	add	r30, r30
    94ba:	ff 1f       	adc	r31, r31
    94bc:	4a 95       	dec	r20
    94be:	e1 f7       	brne	.-8      	; 0x94b8 <rotate_90_auto+0x15e0>
    94c0:	e0 55       	subi	r30, 0x50	; 80
    94c2:	fe 4f       	sbci	r31, 0xFE	; 254
    94c4:	86 81       	ldd	r24, Z+6	; 0x06
    94c6:	80 61       	ori	r24, 0x10	; 16
    94c8:	86 83       	std	Z+6, r24	; 0x06
    94ca:	97 ff       	sbrs	r25, 7
    94cc:	0b c0       	rjmp	.+22     	; 0x94e4 <rotate_90_auto+0x160c>
    94ce:	f9 01       	movw	r30, r18
    94d0:	83 e0       	ldi	r24, 0x03	; 3
    94d2:	ee 0f       	add	r30, r30
    94d4:	ff 1f       	adc	r31, r31
    94d6:	8a 95       	dec	r24
    94d8:	e1 f7       	brne	.-8      	; 0x94d2 <rotate_90_auto+0x15fa>
    94da:	e0 55       	subi	r30, 0x50	; 80
    94dc:	fe 4f       	sbci	r31, 0xFE	; 254
    94de:	87 81       	ldd	r24, Z+7	; 0x07
    94e0:	80 62       	ori	r24, 0x20	; 32
    94e2:	87 83       	std	Z+7, r24	; 0x07
    94e4:	fd 01       	movw	r30, r26
    94e6:	32 97       	sbiw	r30, 0x02	; 2
    94e8:	90 81       	ld	r25, Z
    94ea:	89 2f       	mov	r24, r25
    94ec:	90 ff       	sbrs	r25, 0
    94ee:	0b c0       	rjmp	.+22     	; 0x9506 <rotate_90_auto+0x162e>
    94f0:	f9 01       	movw	r30, r18
    94f2:	73 e0       	ldi	r23, 0x03	; 3
    94f4:	ee 0f       	add	r30, r30
    94f6:	ff 1f       	adc	r31, r31
    94f8:	7a 95       	dec	r23
    94fa:	e1 f7       	brne	.-8      	; 0x94f4 <rotate_90_auto+0x161c>
    94fc:	e0 55       	subi	r30, 0x50	; 80
    94fe:	fe 4f       	sbci	r31, 0xFE	; 254
    9500:	41 81       	ldd	r20, Z+1	; 0x01
    9502:	41 60       	ori	r20, 0x01	; 1
    9504:	41 83       	std	Z+1, r20	; 0x01
    9506:	81 ff       	sbrs	r24, 1
    9508:	0b c0       	rjmp	.+22     	; 0x9520 <rotate_90_auto+0x1648>
    950a:	f9 01       	movw	r30, r18
    950c:	63 e0       	ldi	r22, 0x03	; 3
    950e:	ee 0f       	add	r30, r30
    9510:	ff 1f       	adc	r31, r31
    9512:	6a 95       	dec	r22
    9514:	e1 f7       	brne	.-8      	; 0x950e <rotate_90_auto+0x1636>
    9516:	e0 55       	subi	r30, 0x50	; 80
    9518:	fe 4f       	sbci	r31, 0xFE	; 254
    951a:	42 81       	ldd	r20, Z+2	; 0x02
    951c:	42 60       	ori	r20, 0x02	; 2
    951e:	42 83       	std	Z+2, r20	; 0x02
    9520:	82 ff       	sbrs	r24, 2
    9522:	0b c0       	rjmp	.+22     	; 0x953a <rotate_90_auto+0x1662>
    9524:	f9 01       	movw	r30, r18
    9526:	53 e0       	ldi	r21, 0x03	; 3
    9528:	ee 0f       	add	r30, r30
    952a:	ff 1f       	adc	r31, r31
    952c:	5a 95       	dec	r21
    952e:	e1 f7       	brne	.-8      	; 0x9528 <rotate_90_auto+0x1650>
    9530:	e0 55       	subi	r30, 0x50	; 80
    9532:	fe 4f       	sbci	r31, 0xFE	; 254
    9534:	43 81       	ldd	r20, Z+3	; 0x03
    9536:	42 60       	ori	r20, 0x02	; 2
    9538:	43 83       	std	Z+3, r20	; 0x03
    953a:	83 ff       	sbrs	r24, 3
    953c:	0b c0       	rjmp	.+22     	; 0x9554 <rotate_90_auto+0x167c>
    953e:	f9 01       	movw	r30, r18
    9540:	43 e0       	ldi	r20, 0x03	; 3
    9542:	ee 0f       	add	r30, r30
    9544:	ff 1f       	adc	r31, r31
    9546:	4a 95       	dec	r20
    9548:	e1 f7       	brne	.-8      	; 0x9542 <rotate_90_auto+0x166a>
    954a:	e0 55       	subi	r30, 0x50	; 80
    954c:	fe 4f       	sbci	r31, 0xFE	; 254
    954e:	44 81       	ldd	r20, Z+4	; 0x04
    9550:	44 60       	ori	r20, 0x04	; 4
    9552:	44 83       	std	Z+4, r20	; 0x04
    9554:	84 ff       	sbrs	r24, 4
    9556:	0b c0       	rjmp	.+22     	; 0x956e <rotate_90_auto+0x1696>
    9558:	f9 01       	movw	r30, r18
    955a:	73 e0       	ldi	r23, 0x03	; 3
    955c:	ee 0f       	add	r30, r30
    955e:	ff 1f       	adc	r31, r31
    9560:	7a 95       	dec	r23
    9562:	e1 f7       	brne	.-8      	; 0x955c <rotate_90_auto+0x1684>
    9564:	e0 55       	subi	r30, 0x50	; 80
    9566:	fe 4f       	sbci	r31, 0xFE	; 254
    9568:	45 81       	ldd	r20, Z+5	; 0x05
    956a:	44 60       	ori	r20, 0x04	; 4
    956c:	45 83       	std	Z+5, r20	; 0x05
    956e:	85 ff       	sbrs	r24, 5
    9570:	0b c0       	rjmp	.+22     	; 0x9588 <rotate_90_auto+0x16b0>
    9572:	f9 01       	movw	r30, r18
    9574:	63 e0       	ldi	r22, 0x03	; 3
    9576:	ee 0f       	add	r30, r30
    9578:	ff 1f       	adc	r31, r31
    957a:	6a 95       	dec	r22
    957c:	e1 f7       	brne	.-8      	; 0x9576 <rotate_90_auto+0x169e>
    957e:	e0 55       	subi	r30, 0x50	; 80
    9580:	fe 4f       	sbci	r31, 0xFE	; 254
    9582:	46 81       	ldd	r20, Z+6	; 0x06
    9584:	48 60       	ori	r20, 0x08	; 8
    9586:	46 83       	std	Z+6, r20	; 0x06
    9588:	86 ff       	sbrs	r24, 6
    958a:	0b c0       	rjmp	.+22     	; 0x95a2 <rotate_90_auto+0x16ca>
    958c:	f9 01       	movw	r30, r18
    958e:	53 e0       	ldi	r21, 0x03	; 3
    9590:	ee 0f       	add	r30, r30
    9592:	ff 1f       	adc	r31, r31
    9594:	5a 95       	dec	r21
    9596:	e1 f7       	brne	.-8      	; 0x9590 <rotate_90_auto+0x16b8>
    9598:	e0 55       	subi	r30, 0x50	; 80
    959a:	fe 4f       	sbci	r31, 0xFE	; 254
    959c:	86 81       	ldd	r24, Z+6	; 0x06
    959e:	88 60       	ori	r24, 0x08	; 8
    95a0:	86 83       	std	Z+6, r24	; 0x06
    95a2:	97 ff       	sbrs	r25, 7
    95a4:	0b c0       	rjmp	.+22     	; 0x95bc <rotate_90_auto+0x16e4>
    95a6:	f9 01       	movw	r30, r18
    95a8:	43 e0       	ldi	r20, 0x03	; 3
    95aa:	ee 0f       	add	r30, r30
    95ac:	ff 1f       	adc	r31, r31
    95ae:	4a 95       	dec	r20
    95b0:	e1 f7       	brne	.-8      	; 0x95aa <rotate_90_auto+0x16d2>
    95b2:	e0 55       	subi	r30, 0x50	; 80
    95b4:	fe 4f       	sbci	r31, 0xFE	; 254
    95b6:	87 81       	ldd	r24, Z+7	; 0x07
    95b8:	80 61       	ori	r24, 0x10	; 16
    95ba:	87 83       	std	Z+7, r24	; 0x07
    95bc:	fd 01       	movw	r30, r26
    95be:	31 97       	sbiw	r30, 0x01	; 1
    95c0:	80 81       	ld	r24, Z
    95c2:	80 ff       	sbrs	r24, 0
    95c4:	0b c0       	rjmp	.+22     	; 0x95dc <rotate_90_auto+0x1704>
    95c6:	f9 01       	movw	r30, r18
    95c8:	93 e0       	ldi	r25, 0x03	; 3
    95ca:	ee 0f       	add	r30, r30
    95cc:	ff 1f       	adc	r31, r31
    95ce:	9a 95       	dec	r25
    95d0:	e1 f7       	brne	.-8      	; 0x95ca <rotate_90_auto+0x16f2>
    95d2:	e0 55       	subi	r30, 0x50	; 80
    95d4:	fe 4f       	sbci	r31, 0xFE	; 254
    95d6:	92 81       	ldd	r25, Z+2	; 0x02
    95d8:	91 60       	ori	r25, 0x01	; 1
    95da:	92 83       	std	Z+2, r25	; 0x02
    95dc:	81 ff       	sbrs	r24, 1
    95de:	0b c0       	rjmp	.+22     	; 0x95f6 <rotate_90_auto+0x171e>
    95e0:	f9 01       	movw	r30, r18
    95e2:	73 e0       	ldi	r23, 0x03	; 3
    95e4:	ee 0f       	add	r30, r30
    95e6:	ff 1f       	adc	r31, r31
    95e8:	7a 95       	dec	r23
    95ea:	e1 f7       	brne	.-8      	; 0x95e4 <rotate_90_auto+0x170c>
    95ec:	e0 55       	subi	r30, 0x50	; 80
    95ee:	fe 4f       	sbci	r31, 0xFE	; 254
    95f0:	93 81       	ldd	r25, Z+3	; 0x03
    95f2:	91 60       	ori	r25, 0x01	; 1
    95f4:	93 83       	std	Z+3, r25	; 0x03
    95f6:	82 ff       	sbrs	r24, 2
    95f8:	0b c0       	rjmp	.+22     	; 0x9610 <rotate_90_auto+0x1738>
    95fa:	f9 01       	movw	r30, r18
    95fc:	63 e0       	ldi	r22, 0x03	; 3
    95fe:	ee 0f       	add	r30, r30
    9600:	ff 1f       	adc	r31, r31
    9602:	6a 95       	dec	r22
    9604:	e1 f7       	brne	.-8      	; 0x95fe <rotate_90_auto+0x1726>
    9606:	e0 55       	subi	r30, 0x50	; 80
    9608:	fe 4f       	sbci	r31, 0xFE	; 254
    960a:	93 81       	ldd	r25, Z+3	; 0x03
    960c:	92 60       	ori	r25, 0x02	; 2
    960e:	93 83       	std	Z+3, r25	; 0x03
    9610:	83 ff       	sbrs	r24, 3
    9612:	0b c0       	rjmp	.+22     	; 0x962a <rotate_90_auto+0x1752>
    9614:	f9 01       	movw	r30, r18
    9616:	53 e0       	ldi	r21, 0x03	; 3
    9618:	ee 0f       	add	r30, r30
    961a:	ff 1f       	adc	r31, r31
    961c:	5a 95       	dec	r21
    961e:	e1 f7       	brne	.-8      	; 0x9618 <rotate_90_auto+0x1740>
    9620:	e0 55       	subi	r30, 0x50	; 80
    9622:	fe 4f       	sbci	r31, 0xFE	; 254
    9624:	94 81       	ldd	r25, Z+4	; 0x04
    9626:	92 60       	ori	r25, 0x02	; 2
    9628:	94 83       	std	Z+4, r25	; 0x04
    962a:	84 ff       	sbrs	r24, 4
    962c:	0b c0       	rjmp	.+22     	; 0x9644 <rotate_90_auto+0x176c>
    962e:	f9 01       	movw	r30, r18
    9630:	43 e0       	ldi	r20, 0x03	; 3
    9632:	ee 0f       	add	r30, r30
    9634:	ff 1f       	adc	r31, r31
    9636:	4a 95       	dec	r20
    9638:	e1 f7       	brne	.-8      	; 0x9632 <rotate_90_auto+0x175a>
    963a:	e0 55       	subi	r30, 0x50	; 80
    963c:	fe 4f       	sbci	r31, 0xFE	; 254
    963e:	95 81       	ldd	r25, Z+5	; 0x05
    9640:	94 60       	ori	r25, 0x04	; 4
    9642:	95 83       	std	Z+5, r25	; 0x05
    9644:	85 ff       	sbrs	r24, 5
    9646:	0b c0       	rjmp	.+22     	; 0x965e <rotate_90_auto+0x1786>
    9648:	f9 01       	movw	r30, r18
    964a:	93 e0       	ldi	r25, 0x03	; 3
    964c:	ee 0f       	add	r30, r30
    964e:	ff 1f       	adc	r31, r31
    9650:	9a 95       	dec	r25
    9652:	e1 f7       	brne	.-8      	; 0x964c <rotate_90_auto+0x1774>
    9654:	e0 55       	subi	r30, 0x50	; 80
    9656:	fe 4f       	sbci	r31, 0xFE	; 254
    9658:	96 81       	ldd	r25, Z+6	; 0x06
    965a:	94 60       	ori	r25, 0x04	; 4
    965c:	96 83       	std	Z+6, r25	; 0x06
    965e:	86 ff       	sbrs	r24, 6
    9660:	0b c0       	rjmp	.+22     	; 0x9678 <rotate_90_auto+0x17a0>
    9662:	f9 01       	movw	r30, r18
    9664:	73 e0       	ldi	r23, 0x03	; 3
    9666:	ee 0f       	add	r30, r30
    9668:	ff 1f       	adc	r31, r31
    966a:	7a 95       	dec	r23
    966c:	e1 f7       	brne	.-8      	; 0x9666 <rotate_90_auto+0x178e>
    966e:	e0 55       	subi	r30, 0x50	; 80
    9670:	fe 4f       	sbci	r31, 0xFE	; 254
    9672:	87 81       	ldd	r24, Z+7	; 0x07
    9674:	88 60       	ori	r24, 0x08	; 8
    9676:	87 83       	std	Z+7, r24	; 0x07
    9678:	8c 91       	ld	r24, X
    967a:	82 ff       	sbrs	r24, 2
    967c:	0b c0       	rjmp	.+22     	; 0x9694 <rotate_90_auto+0x17bc>
    967e:	f9 01       	movw	r30, r18
    9680:	63 e0       	ldi	r22, 0x03	; 3
    9682:	ee 0f       	add	r30, r30
    9684:	ff 1f       	adc	r31, r31
    9686:	6a 95       	dec	r22
    9688:	e1 f7       	brne	.-8      	; 0x9682 <rotate_90_auto+0x17aa>
    968a:	e0 55       	subi	r30, 0x50	; 80
    968c:	fe 4f       	sbci	r31, 0xFE	; 254
    968e:	94 81       	ldd	r25, Z+4	; 0x04
    9690:	91 60       	ori	r25, 0x01	; 1
    9692:	94 83       	std	Z+4, r25	; 0x04
    9694:	83 ff       	sbrs	r24, 3
    9696:	0b c0       	rjmp	.+22     	; 0x96ae <rotate_90_auto+0x17d6>
    9698:	f9 01       	movw	r30, r18
    969a:	53 e0       	ldi	r21, 0x03	; 3
    969c:	ee 0f       	add	r30, r30
    969e:	ff 1f       	adc	r31, r31
    96a0:	5a 95       	dec	r21
    96a2:	e1 f7       	brne	.-8      	; 0x969c <rotate_90_auto+0x17c4>
    96a4:	e0 55       	subi	r30, 0x50	; 80
    96a6:	fe 4f       	sbci	r31, 0xFE	; 254
    96a8:	95 81       	ldd	r25, Z+5	; 0x05
    96aa:	91 60       	ori	r25, 0x01	; 1
    96ac:	95 83       	std	Z+5, r25	; 0x05
    96ae:	84 ff       	sbrs	r24, 4
    96b0:	0b c0       	rjmp	.+22     	; 0x96c8 <rotate_90_auto+0x17f0>
    96b2:	f9 01       	movw	r30, r18
    96b4:	43 e0       	ldi	r20, 0x03	; 3
    96b6:	ee 0f       	add	r30, r30
    96b8:	ff 1f       	adc	r31, r31
    96ba:	4a 95       	dec	r20
    96bc:	e1 f7       	brne	.-8      	; 0x96b6 <rotate_90_auto+0x17de>
    96be:	e0 55       	subi	r30, 0x50	; 80
    96c0:	fe 4f       	sbci	r31, 0xFE	; 254
    96c2:	96 81       	ldd	r25, Z+6	; 0x06
    96c4:	92 60       	ori	r25, 0x02	; 2
    96c6:	96 83       	std	Z+6, r25	; 0x06
    96c8:	85 ff       	sbrs	r24, 5
    96ca:	0b c0       	rjmp	.+22     	; 0x96e2 <rotate_90_auto+0x180a>
    96cc:	f9 01       	movw	r30, r18
    96ce:	93 e0       	ldi	r25, 0x03	; 3
    96d0:	ee 0f       	add	r30, r30
    96d2:	ff 1f       	adc	r31, r31
    96d4:	9a 95       	dec	r25
    96d6:	e1 f7       	brne	.-8      	; 0x96d0 <rotate_90_auto+0x17f8>
    96d8:	e0 55       	subi	r30, 0x50	; 80
    96da:	fe 4f       	sbci	r31, 0xFE	; 254
    96dc:	97 81       	ldd	r25, Z+7	; 0x07
    96de:	92 60       	ori	r25, 0x02	; 2
    96e0:	97 83       	std	Z+7, r25	; 0x07
    96e2:	86 ff       	sbrs	r24, 6
    96e4:	0b c0       	rjmp	.+22     	; 0x96fc <rotate_90_auto+0x1824>
    96e6:	f9 01       	movw	r30, r18
    96e8:	73 e0       	ldi	r23, 0x03	; 3
    96ea:	ee 0f       	add	r30, r30
    96ec:	ff 1f       	adc	r31, r31
    96ee:	7a 95       	dec	r23
    96f0:	e1 f7       	brne	.-8      	; 0x96ea <rotate_90_auto+0x1812>
    96f2:	e0 55       	subi	r30, 0x50	; 80
    96f4:	fe 4f       	sbci	r31, 0xFE	; 254
    96f6:	87 81       	ldd	r24, Z+7	; 0x07
    96f8:	84 60       	ori	r24, 0x04	; 4
    96fa:	87 83       	std	Z+7, r24	; 0x07
    96fc:	2f 5f       	subi	r18, 0xFF	; 255
    96fe:	3f 4f       	sbci	r19, 0xFF	; 255
    9700:	18 96       	adiw	r26, 0x08	; 8
    9702:	28 30       	cpi	r18, 0x08	; 8
    9704:	31 05       	cpc	r19, r1
    9706:	09 f0       	breq	.+2      	; 0x970a <rotate_90_auto+0x1832>
    9708:	06 cd       	rjmp	.-1524   	; 0x9116 <rotate_90_auto+0x123e>
    970a:	85 e0       	ldi	r24, 0x05	; 5
    970c:	0e 94 c8 3e 	call	0x7d90	; 0x7d90 <cube_show_loop>
    9710:	0e 94 9d 3d 	call	0x7b3a	; 0x7b3a <cube_clear>
    9714:	20 e0       	ldi	r18, 0x00	; 0
    9716:	30 e0       	ldi	r19, 0x00	; 0
    9718:	f8 01       	movw	r30, r16
    971a:	37 97       	sbiw	r30, 0x07	; 7
    971c:	80 81       	ld	r24, Z
    971e:	81 ff       	sbrs	r24, 1
    9720:	0b c0       	rjmp	.+22     	; 0x9738 <rotate_90_auto+0x1860>
    9722:	f9 01       	movw	r30, r18
    9724:	63 e0       	ldi	r22, 0x03	; 3
    9726:	ee 0f       	add	r30, r30
    9728:	ff 1f       	adc	r31, r31
    972a:	6a 95       	dec	r22
    972c:	e1 f7       	brne	.-8      	; 0x9726 <rotate_90_auto+0x184e>
    972e:	e0 55       	subi	r30, 0x50	; 80
    9730:	fe 4f       	sbci	r31, 0xFE	; 254
    9732:	90 81       	ld	r25, Z
    9734:	90 64       	ori	r25, 0x40	; 64
    9736:	90 83       	st	Z, r25
    9738:	82 ff       	sbrs	r24, 2
    973a:	0b c0       	rjmp	.+22     	; 0x9752 <rotate_90_auto+0x187a>
    973c:	f9 01       	movw	r30, r18
    973e:	53 e0       	ldi	r21, 0x03	; 3
    9740:	ee 0f       	add	r30, r30
    9742:	ff 1f       	adc	r31, r31
    9744:	5a 95       	dec	r21
    9746:	e1 f7       	brne	.-8      	; 0x9740 <rotate_90_auto+0x1868>
    9748:	e0 55       	subi	r30, 0x50	; 80
    974a:	fe 4f       	sbci	r31, 0xFE	; 254
    974c:	91 81       	ldd	r25, Z+1	; 0x01
    974e:	90 64       	ori	r25, 0x40	; 64
    9750:	91 83       	std	Z+1, r25	; 0x01
    9752:	83 ff       	sbrs	r24, 3
    9754:	0b c0       	rjmp	.+22     	; 0x976c <rotate_90_auto+0x1894>
    9756:	f9 01       	movw	r30, r18
    9758:	43 e0       	ldi	r20, 0x03	; 3
    975a:	ee 0f       	add	r30, r30
    975c:	ff 1f       	adc	r31, r31
    975e:	4a 95       	dec	r20
    9760:	e1 f7       	brne	.-8      	; 0x975a <rotate_90_auto+0x1882>
    9762:	e0 55       	subi	r30, 0x50	; 80
    9764:	fe 4f       	sbci	r31, 0xFE	; 254
    9766:	92 81       	ldd	r25, Z+2	; 0x02
    9768:	90 68       	ori	r25, 0x80	; 128
    976a:	92 83       	std	Z+2, r25	; 0x02
    976c:	84 ff       	sbrs	r24, 4
    976e:	0b c0       	rjmp	.+22     	; 0x9786 <rotate_90_auto+0x18ae>
    9770:	f9 01       	movw	r30, r18
    9772:	93 e0       	ldi	r25, 0x03	; 3
    9774:	ee 0f       	add	r30, r30
    9776:	ff 1f       	adc	r31, r31
    9778:	9a 95       	dec	r25
    977a:	e1 f7       	brne	.-8      	; 0x9774 <rotate_90_auto+0x189c>
    977c:	e0 55       	subi	r30, 0x50	; 80
    977e:	fe 4f       	sbci	r31, 0xFE	; 254
    9780:	93 81       	ldd	r25, Z+3	; 0x03
    9782:	90 68       	ori	r25, 0x80	; 128
    9784:	93 83       	std	Z+3, r25	; 0x03
    9786:	85 ff       	sbrs	r24, 5
    9788:	0b c0       	rjmp	.+22     	; 0x97a0 <rotate_90_auto+0x18c8>
    978a:	f9 01       	movw	r30, r18
    978c:	b3 e0       	ldi	r27, 0x03	; 3
    978e:	ee 0f       	add	r30, r30
    9790:	ff 1f       	adc	r31, r31
    9792:	ba 95       	dec	r27
    9794:	e1 f7       	brne	.-8      	; 0x978e <rotate_90_auto+0x18b6>
    9796:	e0 55       	subi	r30, 0x50	; 80
    9798:	fe 4f       	sbci	r31, 0xFE	; 254
    979a:	84 81       	ldd	r24, Z+4	; 0x04
    979c:	80 68       	ori	r24, 0x80	; 128
    979e:	84 83       	std	Z+4, r24	; 0x04
    97a0:	f8 01       	movw	r30, r16
    97a2:	36 97       	sbiw	r30, 0x06	; 6
    97a4:	90 81       	ld	r25, Z
    97a6:	89 2f       	mov	r24, r25
    97a8:	91 ff       	sbrs	r25, 1
    97aa:	0b c0       	rjmp	.+22     	; 0x97c2 <rotate_90_auto+0x18ea>
    97ac:	f9 01       	movw	r30, r18
    97ae:	a3 e0       	ldi	r26, 0x03	; 3
    97b0:	ee 0f       	add	r30, r30
    97b2:	ff 1f       	adc	r31, r31
    97b4:	aa 95       	dec	r26
    97b6:	e1 f7       	brne	.-8      	; 0x97b0 <rotate_90_auto+0x18d8>
    97b8:	e0 55       	subi	r30, 0x50	; 80
    97ba:	fe 4f       	sbci	r31, 0xFE	; 254
    97bc:	40 81       	ld	r20, Z
    97be:	40 62       	ori	r20, 0x20	; 32
    97c0:	40 83       	st	Z, r20
    97c2:	82 ff       	sbrs	r24, 2
    97c4:	0b c0       	rjmp	.+22     	; 0x97dc <rotate_90_auto+0x1904>
    97c6:	f9 01       	movw	r30, r18
    97c8:	73 e0       	ldi	r23, 0x03	; 3
    97ca:	ee 0f       	add	r30, r30
    97cc:	ff 1f       	adc	r31, r31
    97ce:	7a 95       	dec	r23
    97d0:	e1 f7       	brne	.-8      	; 0x97ca <rotate_90_auto+0x18f2>
    97d2:	e0 55       	subi	r30, 0x50	; 80
    97d4:	fe 4f       	sbci	r31, 0xFE	; 254
    97d6:	41 81       	ldd	r20, Z+1	; 0x01
    97d8:	40 64       	ori	r20, 0x40	; 64
    97da:	41 83       	std	Z+1, r20	; 0x01
    97dc:	83 ff       	sbrs	r24, 3
    97de:	0b c0       	rjmp	.+22     	; 0x97f6 <rotate_90_auto+0x191e>
    97e0:	f9 01       	movw	r30, r18
    97e2:	63 e0       	ldi	r22, 0x03	; 3
    97e4:	ee 0f       	add	r30, r30
    97e6:	ff 1f       	adc	r31, r31
    97e8:	6a 95       	dec	r22
    97ea:	e1 f7       	brne	.-8      	; 0x97e4 <rotate_90_auto+0x190c>
    97ec:	e0 55       	subi	r30, 0x50	; 80
    97ee:	fe 4f       	sbci	r31, 0xFE	; 254
    97f0:	42 81       	ldd	r20, Z+2	; 0x02
    97f2:	40 64       	ori	r20, 0x40	; 64
    97f4:	42 83       	std	Z+2, r20	; 0x02
    97f6:	84 ff       	sbrs	r24, 4
    97f8:	0b c0       	rjmp	.+22     	; 0x9810 <rotate_90_auto+0x1938>
    97fa:	f9 01       	movw	r30, r18
    97fc:	53 e0       	ldi	r21, 0x03	; 3
    97fe:	ee 0f       	add	r30, r30
    9800:	ff 1f       	adc	r31, r31
    9802:	5a 95       	dec	r21
    9804:	e1 f7       	brne	.-8      	; 0x97fe <rotate_90_auto+0x1926>
    9806:	e0 55       	subi	r30, 0x50	; 80
    9808:	fe 4f       	sbci	r31, 0xFE	; 254
    980a:	43 81       	ldd	r20, Z+3	; 0x03
    980c:	40 64       	ori	r20, 0x40	; 64
    980e:	43 83       	std	Z+3, r20	; 0x03
    9810:	85 ff       	sbrs	r24, 5
    9812:	0b c0       	rjmp	.+22     	; 0x982a <rotate_90_auto+0x1952>
    9814:	f9 01       	movw	r30, r18
    9816:	43 e0       	ldi	r20, 0x03	; 3
    9818:	ee 0f       	add	r30, r30
    981a:	ff 1f       	adc	r31, r31
    981c:	4a 95       	dec	r20
    981e:	e1 f7       	brne	.-8      	; 0x9818 <rotate_90_auto+0x1940>
    9820:	e0 55       	subi	r30, 0x50	; 80
    9822:	fe 4f       	sbci	r31, 0xFE	; 254
    9824:	44 81       	ldd	r20, Z+4	; 0x04
    9826:	40 64       	ori	r20, 0x40	; 64
    9828:	44 83       	std	Z+4, r20	; 0x04
    982a:	86 ff       	sbrs	r24, 6
    982c:	0b c0       	rjmp	.+22     	; 0x9844 <rotate_90_auto+0x196c>
    982e:	f9 01       	movw	r30, r18
    9830:	83 e0       	ldi	r24, 0x03	; 3
    9832:	ee 0f       	add	r30, r30
    9834:	ff 1f       	adc	r31, r31
    9836:	8a 95       	dec	r24
    9838:	e1 f7       	brne	.-8      	; 0x9832 <rotate_90_auto+0x195a>
    983a:	e0 55       	subi	r30, 0x50	; 80
    983c:	fe 4f       	sbci	r31, 0xFE	; 254
    983e:	85 81       	ldd	r24, Z+5	; 0x05
    9840:	80 68       	ori	r24, 0x80	; 128
    9842:	85 83       	std	Z+5, r24	; 0x05
    9844:	97 ff       	sbrs	r25, 7
    9846:	0b c0       	rjmp	.+22     	; 0x985e <rotate_90_auto+0x1986>
    9848:	f9 01       	movw	r30, r18
    984a:	b3 e0       	ldi	r27, 0x03	; 3
    984c:	ee 0f       	add	r30, r30
    984e:	ff 1f       	adc	r31, r31
    9850:	ba 95       	dec	r27
    9852:	e1 f7       	brne	.-8      	; 0x984c <rotate_90_auto+0x1974>
    9854:	e0 55       	subi	r30, 0x50	; 80
    9856:	fe 4f       	sbci	r31, 0xFE	; 254
    9858:	86 81       	ldd	r24, Z+6	; 0x06
    985a:	80 68       	ori	r24, 0x80	; 128
    985c:	86 83       	std	Z+6, r24	; 0x06
    985e:	f8 01       	movw	r30, r16
    9860:	35 97       	sbiw	r30, 0x05	; 5
    9862:	90 81       	ld	r25, Z
    9864:	89 2f       	mov	r24, r25
    9866:	90 ff       	sbrs	r25, 0
    9868:	0b c0       	rjmp	.+22     	; 0x9880 <rotate_90_auto+0x19a8>
    986a:	f9 01       	movw	r30, r18
    986c:	a3 e0       	ldi	r26, 0x03	; 3
    986e:	ee 0f       	add	r30, r30
    9870:	ff 1f       	adc	r31, r31
    9872:	aa 95       	dec	r26
    9874:	e1 f7       	brne	.-8      	; 0x986e <rotate_90_auto+0x1996>
    9876:	e0 55       	subi	r30, 0x50	; 80
    9878:	fe 4f       	sbci	r31, 0xFE	; 254
    987a:	40 81       	ld	r20, Z
    987c:	40 61       	ori	r20, 0x10	; 16
    987e:	40 83       	st	Z, r20
    9880:	81 ff       	sbrs	r24, 1
    9882:	0b c0       	rjmp	.+22     	; 0x989a <rotate_90_auto+0x19c2>
    9884:	f9 01       	movw	r30, r18
    9886:	73 e0       	ldi	r23, 0x03	; 3
    9888:	ee 0f       	add	r30, r30
    988a:	ff 1f       	adc	r31, r31
    988c:	7a 95       	dec	r23
    988e:	e1 f7       	brne	.-8      	; 0x9888 <rotate_90_auto+0x19b0>
    9890:	e0 55       	subi	r30, 0x50	; 80
    9892:	fe 4f       	sbci	r31, 0xFE	; 254
    9894:	41 81       	ldd	r20, Z+1	; 0x01
    9896:	40 61       	ori	r20, 0x10	; 16
    9898:	41 83       	std	Z+1, r20	; 0x01
    989a:	82 ff       	sbrs	r24, 2
    989c:	0b c0       	rjmp	.+22     	; 0x98b4 <rotate_90_auto+0x19dc>
    989e:	f9 01       	movw	r30, r18
    98a0:	63 e0       	ldi	r22, 0x03	; 3
    98a2:	ee 0f       	add	r30, r30
    98a4:	ff 1f       	adc	r31, r31
    98a6:	6a 95       	dec	r22
    98a8:	e1 f7       	brne	.-8      	; 0x98a2 <rotate_90_auto+0x19ca>
    98aa:	e0 55       	subi	r30, 0x50	; 80
    98ac:	fe 4f       	sbci	r31, 0xFE	; 254
    98ae:	42 81       	ldd	r20, Z+2	; 0x02
    98b0:	40 62       	ori	r20, 0x20	; 32
    98b2:	42 83       	std	Z+2, r20	; 0x02
    98b4:	83 ff       	sbrs	r24, 3
    98b6:	0b c0       	rjmp	.+22     	; 0x98ce <rotate_90_auto+0x19f6>
    98b8:	f9 01       	movw	r30, r18
    98ba:	53 e0       	ldi	r21, 0x03	; 3
    98bc:	ee 0f       	add	r30, r30
    98be:	ff 1f       	adc	r31, r31
    98c0:	5a 95       	dec	r21
    98c2:	e1 f7       	brne	.-8      	; 0x98bc <rotate_90_auto+0x19e4>
    98c4:	e0 55       	subi	r30, 0x50	; 80
    98c6:	fe 4f       	sbci	r31, 0xFE	; 254
    98c8:	43 81       	ldd	r20, Z+3	; 0x03
    98ca:	40 62       	ori	r20, 0x20	; 32
    98cc:	43 83       	std	Z+3, r20	; 0x03
    98ce:	84 ff       	sbrs	r24, 4
    98d0:	0b c0       	rjmp	.+22     	; 0x98e8 <rotate_90_auto+0x1a10>
    98d2:	f9 01       	movw	r30, r18
    98d4:	43 e0       	ldi	r20, 0x03	; 3
    98d6:	ee 0f       	add	r30, r30
    98d8:	ff 1f       	adc	r31, r31
    98da:	4a 95       	dec	r20
    98dc:	e1 f7       	brne	.-8      	; 0x98d6 <rotate_90_auto+0x19fe>
    98de:	e0 55       	subi	r30, 0x50	; 80
    98e0:	fe 4f       	sbci	r31, 0xFE	; 254
    98e2:	44 81       	ldd	r20, Z+4	; 0x04
    98e4:	40 62       	ori	r20, 0x20	; 32
    98e6:	44 83       	std	Z+4, r20	; 0x04
    98e8:	85 ff       	sbrs	r24, 5
    98ea:	0b c0       	rjmp	.+22     	; 0x9902 <rotate_90_auto+0x1a2a>
    98ec:	f9 01       	movw	r30, r18
    98ee:	b3 e0       	ldi	r27, 0x03	; 3
    98f0:	ee 0f       	add	r30, r30
    98f2:	ff 1f       	adc	r31, r31
    98f4:	ba 95       	dec	r27
    98f6:	e1 f7       	brne	.-8      	; 0x98f0 <rotate_90_auto+0x1a18>
    98f8:	e0 55       	subi	r30, 0x50	; 80
    98fa:	fe 4f       	sbci	r31, 0xFE	; 254
    98fc:	45 81       	ldd	r20, Z+5	; 0x05
    98fe:	40 62       	ori	r20, 0x20	; 32
    9900:	45 83       	std	Z+5, r20	; 0x05
    9902:	86 ff       	sbrs	r24, 6
    9904:	0b c0       	rjmp	.+22     	; 0x991c <rotate_90_auto+0x1a44>
    9906:	f9 01       	movw	r30, r18
    9908:	a3 e0       	ldi	r26, 0x03	; 3
    990a:	ee 0f       	add	r30, r30
    990c:	ff 1f       	adc	r31, r31
    990e:	aa 95       	dec	r26
    9910:	e1 f7       	brne	.-8      	; 0x990a <rotate_90_auto+0x1a32>
    9912:	e0 55       	subi	r30, 0x50	; 80
    9914:	fe 4f       	sbci	r31, 0xFE	; 254
    9916:	86 81       	ldd	r24, Z+6	; 0x06
    9918:	80 64       	ori	r24, 0x40	; 64
    991a:	86 83       	std	Z+6, r24	; 0x06
    991c:	97 ff       	sbrs	r25, 7
    991e:	0b c0       	rjmp	.+22     	; 0x9936 <rotate_90_auto+0x1a5e>
    9920:	f9 01       	movw	r30, r18
    9922:	73 e0       	ldi	r23, 0x03	; 3
    9924:	ee 0f       	add	r30, r30
    9926:	ff 1f       	adc	r31, r31
    9928:	7a 95       	dec	r23
    992a:	e1 f7       	brne	.-8      	; 0x9924 <rotate_90_auto+0x1a4c>
    992c:	e0 55       	subi	r30, 0x50	; 80
    992e:	fe 4f       	sbci	r31, 0xFE	; 254
    9930:	86 81       	ldd	r24, Z+6	; 0x06
    9932:	80 64       	ori	r24, 0x40	; 64
    9934:	86 83       	std	Z+6, r24	; 0x06
    9936:	f8 01       	movw	r30, r16
    9938:	34 97       	sbiw	r30, 0x04	; 4
    993a:	90 81       	ld	r25, Z
    993c:	89 2f       	mov	r24, r25
    993e:	90 ff       	sbrs	r25, 0
    9940:	0b c0       	rjmp	.+22     	; 0x9958 <rotate_90_auto+0x1a80>
    9942:	f9 01       	movw	r30, r18
    9944:	63 e0       	ldi	r22, 0x03	; 3
    9946:	ee 0f       	add	r30, r30
    9948:	ff 1f       	adc	r31, r31
    994a:	6a 95       	dec	r22
    994c:	e1 f7       	brne	.-8      	; 0x9946 <rotate_90_auto+0x1a6e>
    994e:	e0 55       	subi	r30, 0x50	; 80
    9950:	fe 4f       	sbci	r31, 0xFE	; 254
    9952:	40 81       	ld	r20, Z
    9954:	48 60       	ori	r20, 0x08	; 8
    9956:	40 83       	st	Z, r20
    9958:	81 ff       	sbrs	r24, 1
    995a:	0b c0       	rjmp	.+22     	; 0x9972 <rotate_90_auto+0x1a9a>
    995c:	f9 01       	movw	r30, r18
    995e:	53 e0       	ldi	r21, 0x03	; 3
    9960:	ee 0f       	add	r30, r30
    9962:	ff 1f       	adc	r31, r31
    9964:	5a 95       	dec	r21
    9966:	e1 f7       	brne	.-8      	; 0x9960 <rotate_90_auto+0x1a88>
    9968:	e0 55       	subi	r30, 0x50	; 80
    996a:	fe 4f       	sbci	r31, 0xFE	; 254
    996c:	41 81       	ldd	r20, Z+1	; 0x01
    996e:	48 60       	ori	r20, 0x08	; 8
    9970:	41 83       	std	Z+1, r20	; 0x01
    9972:	82 ff       	sbrs	r24, 2
    9974:	0b c0       	rjmp	.+22     	; 0x998c <rotate_90_auto+0x1ab4>
    9976:	f9 01       	movw	r30, r18
    9978:	43 e0       	ldi	r20, 0x03	; 3
    997a:	ee 0f       	add	r30, r30
    997c:	ff 1f       	adc	r31, r31
    997e:	4a 95       	dec	r20
    9980:	e1 f7       	brne	.-8      	; 0x997a <rotate_90_auto+0x1aa2>
    9982:	e0 55       	subi	r30, 0x50	; 80
    9984:	fe 4f       	sbci	r31, 0xFE	; 254
    9986:	42 81       	ldd	r20, Z+2	; 0x02
    9988:	40 61       	ori	r20, 0x10	; 16
    998a:	42 83       	std	Z+2, r20	; 0x02
    998c:	83 ff       	sbrs	r24, 3
    998e:	0b c0       	rjmp	.+22     	; 0x99a6 <rotate_90_auto+0x1ace>
    9990:	f9 01       	movw	r30, r18
    9992:	b3 e0       	ldi	r27, 0x03	; 3
    9994:	ee 0f       	add	r30, r30
    9996:	ff 1f       	adc	r31, r31
    9998:	ba 95       	dec	r27
    999a:	e1 f7       	brne	.-8      	; 0x9994 <rotate_90_auto+0x1abc>
    999c:	e0 55       	subi	r30, 0x50	; 80
    999e:	fe 4f       	sbci	r31, 0xFE	; 254
    99a0:	43 81       	ldd	r20, Z+3	; 0x03
    99a2:	40 61       	ori	r20, 0x10	; 16
    99a4:	43 83       	std	Z+3, r20	; 0x03
    99a6:	84 ff       	sbrs	r24, 4
    99a8:	0b c0       	rjmp	.+22     	; 0x99c0 <rotate_90_auto+0x1ae8>
    99aa:	f9 01       	movw	r30, r18
    99ac:	a3 e0       	ldi	r26, 0x03	; 3
    99ae:	ee 0f       	add	r30, r30
    99b0:	ff 1f       	adc	r31, r31
    99b2:	aa 95       	dec	r26
    99b4:	e1 f7       	brne	.-8      	; 0x99ae <rotate_90_auto+0x1ad6>
    99b6:	e0 55       	subi	r30, 0x50	; 80
    99b8:	fe 4f       	sbci	r31, 0xFE	; 254
    99ba:	44 81       	ldd	r20, Z+4	; 0x04
    99bc:	40 61       	ori	r20, 0x10	; 16
    99be:	44 83       	std	Z+4, r20	; 0x04
    99c0:	85 ff       	sbrs	r24, 5
    99c2:	0b c0       	rjmp	.+22     	; 0x99da <rotate_90_auto+0x1b02>
    99c4:	f9 01       	movw	r30, r18
    99c6:	73 e0       	ldi	r23, 0x03	; 3
    99c8:	ee 0f       	add	r30, r30
    99ca:	ff 1f       	adc	r31, r31
    99cc:	7a 95       	dec	r23
    99ce:	e1 f7       	brne	.-8      	; 0x99c8 <rotate_90_auto+0x1af0>
    99d0:	e0 55       	subi	r30, 0x50	; 80
    99d2:	fe 4f       	sbci	r31, 0xFE	; 254
    99d4:	45 81       	ldd	r20, Z+5	; 0x05
    99d6:	40 61       	ori	r20, 0x10	; 16
    99d8:	45 83       	std	Z+5, r20	; 0x05
    99da:	86 ff       	sbrs	r24, 6
    99dc:	0b c0       	rjmp	.+22     	; 0x99f4 <rotate_90_auto+0x1b1c>
    99de:	f9 01       	movw	r30, r18
    99e0:	63 e0       	ldi	r22, 0x03	; 3
    99e2:	ee 0f       	add	r30, r30
    99e4:	ff 1f       	adc	r31, r31
    99e6:	6a 95       	dec	r22
    99e8:	e1 f7       	brne	.-8      	; 0x99e2 <rotate_90_auto+0x1b0a>
    99ea:	e0 55       	subi	r30, 0x50	; 80
    99ec:	fe 4f       	sbci	r31, 0xFE	; 254
    99ee:	86 81       	ldd	r24, Z+6	; 0x06
    99f0:	80 62       	ori	r24, 0x20	; 32
    99f2:	86 83       	std	Z+6, r24	; 0x06
    99f4:	97 ff       	sbrs	r25, 7
    99f6:	0b c0       	rjmp	.+22     	; 0x9a0e <rotate_90_auto+0x1b36>
    99f8:	f9 01       	movw	r30, r18
    99fa:	53 e0       	ldi	r21, 0x03	; 3
    99fc:	ee 0f       	add	r30, r30
    99fe:	ff 1f       	adc	r31, r31
    9a00:	5a 95       	dec	r21
    9a02:	e1 f7       	brne	.-8      	; 0x99fc <rotate_90_auto+0x1b24>
    9a04:	e0 55       	subi	r30, 0x50	; 80
    9a06:	fe 4f       	sbci	r31, 0xFE	; 254
    9a08:	87 81       	ldd	r24, Z+7	; 0x07
    9a0a:	80 62       	ori	r24, 0x20	; 32
    9a0c:	87 83       	std	Z+7, r24	; 0x07
    9a0e:	f8 01       	movw	r30, r16
    9a10:	33 97       	sbiw	r30, 0x03	; 3
    9a12:	90 81       	ld	r25, Z
    9a14:	89 2f       	mov	r24, r25
    9a16:	90 ff       	sbrs	r25, 0
    9a18:	0b c0       	rjmp	.+22     	; 0x9a30 <rotate_90_auto+0x1b58>
    9a1a:	f9 01       	movw	r30, r18
    9a1c:	43 e0       	ldi	r20, 0x03	; 3
    9a1e:	ee 0f       	add	r30, r30
    9a20:	ff 1f       	adc	r31, r31
    9a22:	4a 95       	dec	r20
    9a24:	e1 f7       	brne	.-8      	; 0x9a1e <rotate_90_auto+0x1b46>
    9a26:	e0 55       	subi	r30, 0x50	; 80
    9a28:	fe 4f       	sbci	r31, 0xFE	; 254
    9a2a:	40 81       	ld	r20, Z
    9a2c:	44 60       	ori	r20, 0x04	; 4
    9a2e:	40 83       	st	Z, r20
    9a30:	81 ff       	sbrs	r24, 1
    9a32:	0b c0       	rjmp	.+22     	; 0x9a4a <rotate_90_auto+0x1b72>
    9a34:	f9 01       	movw	r30, r18
    9a36:	b3 e0       	ldi	r27, 0x03	; 3
    9a38:	ee 0f       	add	r30, r30
    9a3a:	ff 1f       	adc	r31, r31
    9a3c:	ba 95       	dec	r27
    9a3e:	e1 f7       	brne	.-8      	; 0x9a38 <rotate_90_auto+0x1b60>
    9a40:	e0 55       	subi	r30, 0x50	; 80
    9a42:	fe 4f       	sbci	r31, 0xFE	; 254
    9a44:	41 81       	ldd	r20, Z+1	; 0x01
    9a46:	44 60       	ori	r20, 0x04	; 4
    9a48:	41 83       	std	Z+1, r20	; 0x01
    9a4a:	82 ff       	sbrs	r24, 2
    9a4c:	0b c0       	rjmp	.+22     	; 0x9a64 <rotate_90_auto+0x1b8c>
    9a4e:	f9 01       	movw	r30, r18
    9a50:	a3 e0       	ldi	r26, 0x03	; 3
    9a52:	ee 0f       	add	r30, r30
    9a54:	ff 1f       	adc	r31, r31
    9a56:	aa 95       	dec	r26
    9a58:	e1 f7       	brne	.-8      	; 0x9a52 <rotate_90_auto+0x1b7a>
    9a5a:	e0 55       	subi	r30, 0x50	; 80
    9a5c:	fe 4f       	sbci	r31, 0xFE	; 254
    9a5e:	42 81       	ldd	r20, Z+2	; 0x02
    9a60:	48 60       	ori	r20, 0x08	; 8
    9a62:	42 83       	std	Z+2, r20	; 0x02
    9a64:	83 ff       	sbrs	r24, 3
    9a66:	0b c0       	rjmp	.+22     	; 0x9a7e <rotate_90_auto+0x1ba6>
    9a68:	f9 01       	movw	r30, r18
    9a6a:	73 e0       	ldi	r23, 0x03	; 3
    9a6c:	ee 0f       	add	r30, r30
    9a6e:	ff 1f       	adc	r31, r31
    9a70:	7a 95       	dec	r23
    9a72:	e1 f7       	brne	.-8      	; 0x9a6c <rotate_90_auto+0x1b94>
    9a74:	e0 55       	subi	r30, 0x50	; 80
    9a76:	fe 4f       	sbci	r31, 0xFE	; 254
    9a78:	43 81       	ldd	r20, Z+3	; 0x03
    9a7a:	48 60       	ori	r20, 0x08	; 8
    9a7c:	43 83       	std	Z+3, r20	; 0x03
    9a7e:	84 ff       	sbrs	r24, 4
    9a80:	0b c0       	rjmp	.+22     	; 0x9a98 <rotate_90_auto+0x1bc0>
    9a82:	f9 01       	movw	r30, r18
    9a84:	63 e0       	ldi	r22, 0x03	; 3
    9a86:	ee 0f       	add	r30, r30
    9a88:	ff 1f       	adc	r31, r31
    9a8a:	6a 95       	dec	r22
    9a8c:	e1 f7       	brne	.-8      	; 0x9a86 <rotate_90_auto+0x1bae>
    9a8e:	e0 55       	subi	r30, 0x50	; 80
    9a90:	fe 4f       	sbci	r31, 0xFE	; 254
    9a92:	44 81       	ldd	r20, Z+4	; 0x04
    9a94:	48 60       	ori	r20, 0x08	; 8
    9a96:	44 83       	std	Z+4, r20	; 0x04
    9a98:	85 ff       	sbrs	r24, 5
    9a9a:	0b c0       	rjmp	.+22     	; 0x9ab2 <rotate_90_auto+0x1bda>
    9a9c:	f9 01       	movw	r30, r18
    9a9e:	53 e0       	ldi	r21, 0x03	; 3
    9aa0:	ee 0f       	add	r30, r30
    9aa2:	ff 1f       	adc	r31, r31
    9aa4:	5a 95       	dec	r21
    9aa6:	e1 f7       	brne	.-8      	; 0x9aa0 <rotate_90_auto+0x1bc8>
    9aa8:	e0 55       	subi	r30, 0x50	; 80
    9aaa:	fe 4f       	sbci	r31, 0xFE	; 254
    9aac:	45 81       	ldd	r20, Z+5	; 0x05
    9aae:	48 60       	ori	r20, 0x08	; 8
    9ab0:	45 83       	std	Z+5, r20	; 0x05
    9ab2:	86 ff       	sbrs	r24, 6
    9ab4:	0b c0       	rjmp	.+22     	; 0x9acc <rotate_90_auto+0x1bf4>
    9ab6:	f9 01       	movw	r30, r18
    9ab8:	43 e0       	ldi	r20, 0x03	; 3
    9aba:	ee 0f       	add	r30, r30
    9abc:	ff 1f       	adc	r31, r31
    9abe:	4a 95       	dec	r20
    9ac0:	e1 f7       	brne	.-8      	; 0x9aba <rotate_90_auto+0x1be2>
    9ac2:	e0 55       	subi	r30, 0x50	; 80
    9ac4:	fe 4f       	sbci	r31, 0xFE	; 254
    9ac6:	86 81       	ldd	r24, Z+6	; 0x06
    9ac8:	80 61       	ori	r24, 0x10	; 16
    9aca:	86 83       	std	Z+6, r24	; 0x06
    9acc:	97 ff       	sbrs	r25, 7
    9ace:	0b c0       	rjmp	.+22     	; 0x9ae6 <rotate_90_auto+0x1c0e>
    9ad0:	f9 01       	movw	r30, r18
    9ad2:	83 e0       	ldi	r24, 0x03	; 3
    9ad4:	ee 0f       	add	r30, r30
    9ad6:	ff 1f       	adc	r31, r31
    9ad8:	8a 95       	dec	r24
    9ada:	e1 f7       	brne	.-8      	; 0x9ad4 <rotate_90_auto+0x1bfc>
    9adc:	e0 55       	subi	r30, 0x50	; 80
    9ade:	fe 4f       	sbci	r31, 0xFE	; 254
    9ae0:	87 81       	ldd	r24, Z+7	; 0x07
    9ae2:	80 61       	ori	r24, 0x10	; 16
    9ae4:	87 83       	std	Z+7, r24	; 0x07
    9ae6:	f8 01       	movw	r30, r16
    9ae8:	32 97       	sbiw	r30, 0x02	; 2
    9aea:	90 81       	ld	r25, Z
    9aec:	89 2f       	mov	r24, r25
    9aee:	90 ff       	sbrs	r25, 0
    9af0:	0b c0       	rjmp	.+22     	; 0x9b08 <rotate_90_auto+0x1c30>
    9af2:	f9 01       	movw	r30, r18
    9af4:	b3 e0       	ldi	r27, 0x03	; 3
    9af6:	ee 0f       	add	r30, r30
    9af8:	ff 1f       	adc	r31, r31
    9afa:	ba 95       	dec	r27
    9afc:	e1 f7       	brne	.-8      	; 0x9af6 <rotate_90_auto+0x1c1e>
    9afe:	e0 55       	subi	r30, 0x50	; 80
    9b00:	fe 4f       	sbci	r31, 0xFE	; 254
    9b02:	41 81       	ldd	r20, Z+1	; 0x01
    9b04:	42 60       	ori	r20, 0x02	; 2
    9b06:	41 83       	std	Z+1, r20	; 0x01
    9b08:	81 ff       	sbrs	r24, 1
    9b0a:	0b c0       	rjmp	.+22     	; 0x9b22 <rotate_90_auto+0x1c4a>
    9b0c:	f9 01       	movw	r30, r18
    9b0e:	a3 e0       	ldi	r26, 0x03	; 3
    9b10:	ee 0f       	add	r30, r30
    9b12:	ff 1f       	adc	r31, r31
    9b14:	aa 95       	dec	r26
    9b16:	e1 f7       	brne	.-8      	; 0x9b10 <rotate_90_auto+0x1c38>
    9b18:	e0 55       	subi	r30, 0x50	; 80
    9b1a:	fe 4f       	sbci	r31, 0xFE	; 254
    9b1c:	41 81       	ldd	r20, Z+1	; 0x01
    9b1e:	42 60       	ori	r20, 0x02	; 2
    9b20:	41 83       	std	Z+1, r20	; 0x01
    9b22:	82 ff       	sbrs	r24, 2
    9b24:	0b c0       	rjmp	.+22     	; 0x9b3c <rotate_90_auto+0x1c64>
    9b26:	f9 01       	movw	r30, r18
    9b28:	73 e0       	ldi	r23, 0x03	; 3
    9b2a:	ee 0f       	add	r30, r30
    9b2c:	ff 1f       	adc	r31, r31
    9b2e:	7a 95       	dec	r23
    9b30:	e1 f7       	brne	.-8      	; 0x9b2a <rotate_90_auto+0x1c52>
    9b32:	e0 55       	subi	r30, 0x50	; 80
    9b34:	fe 4f       	sbci	r31, 0xFE	; 254
    9b36:	42 81       	ldd	r20, Z+2	; 0x02
    9b38:	44 60       	ori	r20, 0x04	; 4
    9b3a:	42 83       	std	Z+2, r20	; 0x02
    9b3c:	83 ff       	sbrs	r24, 3
    9b3e:	0b c0       	rjmp	.+22     	; 0x9b56 <rotate_90_auto+0x1c7e>
    9b40:	f9 01       	movw	r30, r18
    9b42:	63 e0       	ldi	r22, 0x03	; 3
    9b44:	ee 0f       	add	r30, r30
    9b46:	ff 1f       	adc	r31, r31
    9b48:	6a 95       	dec	r22
    9b4a:	e1 f7       	brne	.-8      	; 0x9b44 <rotate_90_auto+0x1c6c>
    9b4c:	e0 55       	subi	r30, 0x50	; 80
    9b4e:	fe 4f       	sbci	r31, 0xFE	; 254
    9b50:	43 81       	ldd	r20, Z+3	; 0x03
    9b52:	44 60       	ori	r20, 0x04	; 4
    9b54:	43 83       	std	Z+3, r20	; 0x03
    9b56:	84 ff       	sbrs	r24, 4
    9b58:	0b c0       	rjmp	.+22     	; 0x9b70 <rotate_90_auto+0x1c98>
    9b5a:	f9 01       	movw	r30, r18
    9b5c:	53 e0       	ldi	r21, 0x03	; 3
    9b5e:	ee 0f       	add	r30, r30
    9b60:	ff 1f       	adc	r31, r31
    9b62:	5a 95       	dec	r21
    9b64:	e1 f7       	brne	.-8      	; 0x9b5e <rotate_90_auto+0x1c86>
    9b66:	e0 55       	subi	r30, 0x50	; 80
    9b68:	fe 4f       	sbci	r31, 0xFE	; 254
    9b6a:	44 81       	ldd	r20, Z+4	; 0x04
    9b6c:	44 60       	ori	r20, 0x04	; 4
    9b6e:	44 83       	std	Z+4, r20	; 0x04
    9b70:	85 ff       	sbrs	r24, 5
    9b72:	0b c0       	rjmp	.+22     	; 0x9b8a <rotate_90_auto+0x1cb2>
    9b74:	f9 01       	movw	r30, r18
    9b76:	43 e0       	ldi	r20, 0x03	; 3
    9b78:	ee 0f       	add	r30, r30
    9b7a:	ff 1f       	adc	r31, r31
    9b7c:	4a 95       	dec	r20
    9b7e:	e1 f7       	brne	.-8      	; 0x9b78 <rotate_90_auto+0x1ca0>
    9b80:	e0 55       	subi	r30, 0x50	; 80
    9b82:	fe 4f       	sbci	r31, 0xFE	; 254
    9b84:	45 81       	ldd	r20, Z+5	; 0x05
    9b86:	44 60       	ori	r20, 0x04	; 4
    9b88:	45 83       	std	Z+5, r20	; 0x05
    9b8a:	86 ff       	sbrs	r24, 6
    9b8c:	0b c0       	rjmp	.+22     	; 0x9ba4 <rotate_90_auto+0x1ccc>
    9b8e:	f9 01       	movw	r30, r18
    9b90:	83 e0       	ldi	r24, 0x03	; 3
    9b92:	ee 0f       	add	r30, r30
    9b94:	ff 1f       	adc	r31, r31
    9b96:	8a 95       	dec	r24
    9b98:	e1 f7       	brne	.-8      	; 0x9b92 <rotate_90_auto+0x1cba>
    9b9a:	e0 55       	subi	r30, 0x50	; 80
    9b9c:	fe 4f       	sbci	r31, 0xFE	; 254
    9b9e:	86 81       	ldd	r24, Z+6	; 0x06
    9ba0:	88 60       	ori	r24, 0x08	; 8
    9ba2:	86 83       	std	Z+6, r24	; 0x06
    9ba4:	97 ff       	sbrs	r25, 7
    9ba6:	0b c0       	rjmp	.+22     	; 0x9bbe <rotate_90_auto+0x1ce6>
    9ba8:	f9 01       	movw	r30, r18
    9baa:	b3 e0       	ldi	r27, 0x03	; 3
    9bac:	ee 0f       	add	r30, r30
    9bae:	ff 1f       	adc	r31, r31
    9bb0:	ba 95       	dec	r27
    9bb2:	e1 f7       	brne	.-8      	; 0x9bac <rotate_90_auto+0x1cd4>
    9bb4:	e0 55       	subi	r30, 0x50	; 80
    9bb6:	fe 4f       	sbci	r31, 0xFE	; 254
    9bb8:	87 81       	ldd	r24, Z+7	; 0x07
    9bba:	88 60       	ori	r24, 0x08	; 8
    9bbc:	87 83       	std	Z+7, r24	; 0x07
    9bbe:	f8 01       	movw	r30, r16
    9bc0:	31 97       	sbiw	r30, 0x01	; 1
    9bc2:	80 81       	ld	r24, Z
    9bc4:	80 ff       	sbrs	r24, 0
    9bc6:	0b c0       	rjmp	.+22     	; 0x9bde <rotate_90_auto+0x1d06>
    9bc8:	f9 01       	movw	r30, r18
    9bca:	a3 e0       	ldi	r26, 0x03	; 3
    9bcc:	ee 0f       	add	r30, r30
    9bce:	ff 1f       	adc	r31, r31
    9bd0:	aa 95       	dec	r26
    9bd2:	e1 f7       	brne	.-8      	; 0x9bcc <rotate_90_auto+0x1cf4>
    9bd4:	e0 55       	subi	r30, 0x50	; 80
    9bd6:	fe 4f       	sbci	r31, 0xFE	; 254
    9bd8:	91 81       	ldd	r25, Z+1	; 0x01
    9bda:	91 60       	ori	r25, 0x01	; 1
    9bdc:	91 83       	std	Z+1, r25	; 0x01
    9bde:	81 ff       	sbrs	r24, 1
    9be0:	0b c0       	rjmp	.+22     	; 0x9bf8 <rotate_90_auto+0x1d20>
    9be2:	f9 01       	movw	r30, r18
    9be4:	73 e0       	ldi	r23, 0x03	; 3
    9be6:	ee 0f       	add	r30, r30
    9be8:	ff 1f       	adc	r31, r31
    9bea:	7a 95       	dec	r23
    9bec:	e1 f7       	brne	.-8      	; 0x9be6 <rotate_90_auto+0x1d0e>
    9bee:	e0 55       	subi	r30, 0x50	; 80
    9bf0:	fe 4f       	sbci	r31, 0xFE	; 254
    9bf2:	92 81       	ldd	r25, Z+2	; 0x02
    9bf4:	91 60       	ori	r25, 0x01	; 1
    9bf6:	92 83       	std	Z+2, r25	; 0x02
    9bf8:	82 ff       	sbrs	r24, 2
    9bfa:	0b c0       	rjmp	.+22     	; 0x9c12 <rotate_90_auto+0x1d3a>
    9bfc:	f9 01       	movw	r30, r18
    9bfe:	63 e0       	ldi	r22, 0x03	; 3
    9c00:	ee 0f       	add	r30, r30
    9c02:	ff 1f       	adc	r31, r31
    9c04:	6a 95       	dec	r22
    9c06:	e1 f7       	brne	.-8      	; 0x9c00 <rotate_90_auto+0x1d28>
    9c08:	e0 55       	subi	r30, 0x50	; 80
    9c0a:	fe 4f       	sbci	r31, 0xFE	; 254
    9c0c:	93 81       	ldd	r25, Z+3	; 0x03
    9c0e:	92 60       	ori	r25, 0x02	; 2
    9c10:	93 83       	std	Z+3, r25	; 0x03
    9c12:	83 ff       	sbrs	r24, 3
    9c14:	0b c0       	rjmp	.+22     	; 0x9c2c <rotate_90_auto+0x1d54>
    9c16:	f9 01       	movw	r30, r18
    9c18:	53 e0       	ldi	r21, 0x03	; 3
    9c1a:	ee 0f       	add	r30, r30
    9c1c:	ff 1f       	adc	r31, r31
    9c1e:	5a 95       	dec	r21
    9c20:	e1 f7       	brne	.-8      	; 0x9c1a <rotate_90_auto+0x1d42>
    9c22:	e0 55       	subi	r30, 0x50	; 80
    9c24:	fe 4f       	sbci	r31, 0xFE	; 254
    9c26:	94 81       	ldd	r25, Z+4	; 0x04
    9c28:	92 60       	ori	r25, 0x02	; 2
    9c2a:	94 83       	std	Z+4, r25	; 0x04
    9c2c:	84 ff       	sbrs	r24, 4
    9c2e:	0b c0       	rjmp	.+22     	; 0x9c46 <rotate_90_auto+0x1d6e>
    9c30:	f9 01       	movw	r30, r18
    9c32:	43 e0       	ldi	r20, 0x03	; 3
    9c34:	ee 0f       	add	r30, r30
    9c36:	ff 1f       	adc	r31, r31
    9c38:	4a 95       	dec	r20
    9c3a:	e1 f7       	brne	.-8      	; 0x9c34 <rotate_90_auto+0x1d5c>
    9c3c:	e0 55       	subi	r30, 0x50	; 80
    9c3e:	fe 4f       	sbci	r31, 0xFE	; 254
    9c40:	95 81       	ldd	r25, Z+5	; 0x05
    9c42:	92 60       	ori	r25, 0x02	; 2
    9c44:	95 83       	std	Z+5, r25	; 0x05
    9c46:	85 ff       	sbrs	r24, 5
    9c48:	0b c0       	rjmp	.+22     	; 0x9c60 <rotate_90_auto+0x1d88>
    9c4a:	f9 01       	movw	r30, r18
    9c4c:	93 e0       	ldi	r25, 0x03	; 3
    9c4e:	ee 0f       	add	r30, r30
    9c50:	ff 1f       	adc	r31, r31
    9c52:	9a 95       	dec	r25
    9c54:	e1 f7       	brne	.-8      	; 0x9c4e <rotate_90_auto+0x1d76>
    9c56:	e0 55       	subi	r30, 0x50	; 80
    9c58:	fe 4f       	sbci	r31, 0xFE	; 254
    9c5a:	96 81       	ldd	r25, Z+6	; 0x06
    9c5c:	92 60       	ori	r25, 0x02	; 2
    9c5e:	96 83       	std	Z+6, r25	; 0x06
    9c60:	86 ff       	sbrs	r24, 6
    9c62:	0b c0       	rjmp	.+22     	; 0x9c7a <rotate_90_auto+0x1da2>
    9c64:	f9 01       	movw	r30, r18
    9c66:	b3 e0       	ldi	r27, 0x03	; 3
    9c68:	ee 0f       	add	r30, r30
    9c6a:	ff 1f       	adc	r31, r31
    9c6c:	ba 95       	dec	r27
    9c6e:	e1 f7       	brne	.-8      	; 0x9c68 <rotate_90_auto+0x1d90>
    9c70:	e0 55       	subi	r30, 0x50	; 80
    9c72:	fe 4f       	sbci	r31, 0xFE	; 254
    9c74:	87 81       	ldd	r24, Z+7	; 0x07
    9c76:	84 60       	ori	r24, 0x04	; 4
    9c78:	87 83       	std	Z+7, r24	; 0x07
    9c7a:	f8 01       	movw	r30, r16
    9c7c:	80 81       	ld	r24, Z
    9c7e:	82 ff       	sbrs	r24, 2
    9c80:	0b c0       	rjmp	.+22     	; 0x9c98 <rotate_90_auto+0x1dc0>
    9c82:	f9 01       	movw	r30, r18
    9c84:	a3 e0       	ldi	r26, 0x03	; 3
    9c86:	ee 0f       	add	r30, r30
    9c88:	ff 1f       	adc	r31, r31
    9c8a:	aa 95       	dec	r26
    9c8c:	e1 f7       	brne	.-8      	; 0x9c86 <rotate_90_auto+0x1dae>
    9c8e:	e0 55       	subi	r30, 0x50	; 80
    9c90:	fe 4f       	sbci	r31, 0xFE	; 254
    9c92:	93 81       	ldd	r25, Z+3	; 0x03
    9c94:	91 60       	ori	r25, 0x01	; 1
    9c96:	93 83       	std	Z+3, r25	; 0x03
    9c98:	83 ff       	sbrs	r24, 3
    9c9a:	0b c0       	rjmp	.+22     	; 0x9cb2 <rotate_90_auto+0x1dda>
    9c9c:	f9 01       	movw	r30, r18
    9c9e:	73 e0       	ldi	r23, 0x03	; 3
    9ca0:	ee 0f       	add	r30, r30
    9ca2:	ff 1f       	adc	r31, r31
    9ca4:	7a 95       	dec	r23
    9ca6:	e1 f7       	brne	.-8      	; 0x9ca0 <rotate_90_auto+0x1dc8>
    9ca8:	e0 55       	subi	r30, 0x50	; 80
    9caa:	fe 4f       	sbci	r31, 0xFE	; 254
    9cac:	94 81       	ldd	r25, Z+4	; 0x04
    9cae:	91 60       	ori	r25, 0x01	; 1
    9cb0:	94 83       	std	Z+4, r25	; 0x04
    9cb2:	84 ff       	sbrs	r24, 4
    9cb4:	0b c0       	rjmp	.+22     	; 0x9ccc <rotate_90_auto+0x1df4>
    9cb6:	f9 01       	movw	r30, r18
    9cb8:	63 e0       	ldi	r22, 0x03	; 3
    9cba:	ee 0f       	add	r30, r30
    9cbc:	ff 1f       	adc	r31, r31
    9cbe:	6a 95       	dec	r22
    9cc0:	e1 f7       	brne	.-8      	; 0x9cba <rotate_90_auto+0x1de2>
    9cc2:	e0 55       	subi	r30, 0x50	; 80
    9cc4:	fe 4f       	sbci	r31, 0xFE	; 254
    9cc6:	95 81       	ldd	r25, Z+5	; 0x05
    9cc8:	91 60       	ori	r25, 0x01	; 1
    9cca:	95 83       	std	Z+5, r25	; 0x05
    9ccc:	85 ff       	sbrs	r24, 5
    9cce:	0b c0       	rjmp	.+22     	; 0x9ce6 <rotate_90_auto+0x1e0e>
    9cd0:	f9 01       	movw	r30, r18
    9cd2:	53 e0       	ldi	r21, 0x03	; 3
    9cd4:	ee 0f       	add	r30, r30
    9cd6:	ff 1f       	adc	r31, r31
    9cd8:	5a 95       	dec	r21
    9cda:	e1 f7       	brne	.-8      	; 0x9cd4 <rotate_90_auto+0x1dfc>
    9cdc:	e0 55       	subi	r30, 0x50	; 80
    9cde:	fe 4f       	sbci	r31, 0xFE	; 254
    9ce0:	96 81       	ldd	r25, Z+6	; 0x06
    9ce2:	92 60       	ori	r25, 0x02	; 2
    9ce4:	96 83       	std	Z+6, r25	; 0x06
    9ce6:	86 ff       	sbrs	r24, 6
    9ce8:	0b c0       	rjmp	.+22     	; 0x9d00 <rotate_90_auto+0x1e28>
    9cea:	f9 01       	movw	r30, r18
    9cec:	43 e0       	ldi	r20, 0x03	; 3
    9cee:	ee 0f       	add	r30, r30
    9cf0:	ff 1f       	adc	r31, r31
    9cf2:	4a 95       	dec	r20
    9cf4:	e1 f7       	brne	.-8      	; 0x9cee <rotate_90_auto+0x1e16>
    9cf6:	e0 55       	subi	r30, 0x50	; 80
    9cf8:	fe 4f       	sbci	r31, 0xFE	; 254
    9cfa:	87 81       	ldd	r24, Z+7	; 0x07
    9cfc:	82 60       	ori	r24, 0x02	; 2
    9cfe:	87 83       	std	Z+7, r24	; 0x07
    9d00:	2f 5f       	subi	r18, 0xFF	; 255
    9d02:	3f 4f       	sbci	r19, 0xFF	; 255
    9d04:	08 5f       	subi	r16, 0xF8	; 248
    9d06:	1f 4f       	sbci	r17, 0xFF	; 255
    9d08:	28 30       	cpi	r18, 0x08	; 8
    9d0a:	31 05       	cpc	r19, r1
    9d0c:	09 f0       	breq	.+2      	; 0x9d10 <rotate_90_auto+0x1e38>
    9d0e:	04 cd       	rjmp	.-1528   	; 0x9718 <rotate_90_auto+0x1840>
    9d10:	85 e0       	ldi	r24, 0x05	; 5
    9d12:	0e 94 c8 3e 	call	0x7d90	; 0x7d90 <cube_show_loop>
    9d16:	0e 94 9d 3d 	call	0x7b3a	; 0x7b3a <cube_clear>
    9d1a:	00 e0       	ldi	r16, 0x00	; 0
    9d1c:	10 e0       	ldi	r17, 0x00	; 0
    9d1e:	90 e8       	ldi	r25, 0x80	; 128
    9d20:	a9 2e       	mov	r10, r25
    9d22:	b1 2c       	mov	r11, r1
    9d24:	39 c0       	rjmp	.+114    	; 0x9d98 <rotate_90_auto+0x1ec0>
    9d26:	f3 01       	movw	r30, r6
    9d28:	e4 0f       	add	r30, r20
    9d2a:	f5 1f       	adc	r31, r21
    9d2c:	80 81       	ld	r24, Z
    9d2e:	90 e0       	ldi	r25, 0x00	; 0
    9d30:	8e 21       	and	r24, r14
    9d32:	9f 21       	and	r25, r15
    9d34:	00 97       	sbiw	r24, 0x00	; 0
    9d36:	61 f0       	breq	.+24     	; 0x9d50 <rotate_90_auto+0x1e78>
    9d38:	2c 91       	ld	r18, X
    9d3a:	c2 01       	movw	r24, r4
    9d3c:	84 1b       	sub	r24, r20
    9d3e:	95 0b       	sbc	r25, r21
    9d40:	f1 01       	movw	r30, r2
    9d42:	02 c0       	rjmp	.+4      	; 0x9d48 <rotate_90_auto+0x1e70>
    9d44:	ee 0f       	add	r30, r30
    9d46:	ff 1f       	adc	r31, r31
    9d48:	8a 95       	dec	r24
    9d4a:	e2 f7       	brpl	.-8      	; 0x9d44 <rotate_90_auto+0x1e6c>
    9d4c:	2e 2b       	or	r18, r30
    9d4e:	2c 93       	st	X, r18
    9d50:	4f 5f       	subi	r20, 0xFF	; 255
    9d52:	5f 4f       	sbci	r21, 0xFF	; 255
    9d54:	48 30       	cpi	r20, 0x08	; 8
    9d56:	51 05       	cpc	r21, r1
    9d58:	31 f7       	brne	.-52     	; 0x9d26 <rotate_90_auto+0x1e4e>
    9d5a:	6f 5f       	subi	r22, 0xFF	; 255
    9d5c:	7f 4f       	sbci	r23, 0xFF	; 255
    9d5e:	68 30       	cpi	r22, 0x08	; 8
    9d60:	71 05       	cpc	r23, r1
    9d62:	89 f0       	breq	.+34     	; 0x9d86 <rotate_90_auto+0x1eae>
    9d64:	75 01       	movw	r14, r10
    9d66:	06 2e       	mov	r0, r22
    9d68:	02 c0       	rjmp	.+4      	; 0x9d6e <rotate_90_auto+0x1e96>
    9d6a:	f5 94       	asr	r15
    9d6c:	e7 94       	ror	r14
    9d6e:	0a 94       	dec	r0
    9d70:	e2 f7       	brpl	.-8      	; 0x9d6a <rotate_90_auto+0x1e92>
    9d72:	40 e0       	ldi	r20, 0x00	; 0
    9d74:	50 e0       	ldi	r21, 0x00	; 0
    9d76:	d2 01       	movw	r26, r4
    9d78:	a6 1b       	sub	r26, r22
    9d7a:	b7 0b       	sbc	r27, r23
    9d7c:	ac 0d       	add	r26, r12
    9d7e:	bd 1d       	adc	r27, r13
    9d80:	a0 55       	subi	r26, 0x50	; 80
    9d82:	be 4f       	sbci	r27, 0xFE	; 254
    9d84:	d0 cf       	rjmp	.-96     	; 0x9d26 <rotate_90_auto+0x1e4e>
    9d86:	0f 5f       	subi	r16, 0xFF	; 255
    9d88:	1f 4f       	sbci	r17, 0xFF	; 255
    9d8a:	88 e0       	ldi	r24, 0x08	; 8
    9d8c:	90 e0       	ldi	r25, 0x00	; 0
    9d8e:	68 0e       	add	r6, r24
    9d90:	79 1e       	adc	r7, r25
    9d92:	08 30       	cpi	r16, 0x08	; 8
    9d94:	11 05       	cpc	r17, r1
    9d96:	49 f0       	breq	.+18     	; 0x9daa <rotate_90_auto+0x1ed2>
    9d98:	60 e0       	ldi	r22, 0x00	; 0
    9d9a:	70 e0       	ldi	r23, 0x00	; 0
    9d9c:	68 01       	movw	r12, r16
    9d9e:	83 e0       	ldi	r24, 0x03	; 3
    9da0:	cc 0c       	add	r12, r12
    9da2:	dd 1c       	adc	r13, r13
    9da4:	8a 95       	dec	r24
    9da6:	e1 f7       	brne	.-8      	; 0x9da0 <rotate_90_auto+0x1ec8>
    9da8:	dd cf       	rjmp	.-70     	; 0x9d64 <rotate_90_auto+0x1e8c>
    9daa:	85 e0       	ldi	r24, 0x05	; 5
    9dac:	0e 94 c8 3e 	call	0x7d90	; 0x7d90 <cube_show_loop>
    9db0:	93 94       	inc	r9
    9db2:	98 14       	cp	r9, r8
    9db4:	49 f0       	breq	.+18     	; 0x9dc8 <rotate_90_auto+0x1ef0>
    9db6:	3e 01       	movw	r6, r28
    9db8:	08 94       	sec
    9dba:	61 1c       	adc	r6, r1
    9dbc:	71 1c       	adc	r7, r1
    9dbe:	a3 01       	movw	r20, r6
    9dc0:	20 e0       	ldi	r18, 0x00	; 0
    9dc2:	30 e0       	ldi	r19, 0x00	; 0
    9dc4:	0c 94 a6 3f 	jmp	0x7f4c	; 0x7f4c <rotate_90_auto+0x74>
    9dc8:	c0 5c       	subi	r28, 0xC0	; 192
    9dca:	df 4f       	sbci	r29, 0xFF	; 255
    9dcc:	0f b6       	in	r0, 0x3f	; 63
    9dce:	f8 94       	cli
    9dd0:	de bf       	out	0x3e, r29	; 62
    9dd2:	0f be       	out	0x3f, r0	; 63
    9dd4:	cd bf       	out	0x3d, r28	; 61
    9dd6:	df 91       	pop	r29
    9dd8:	cf 91       	pop	r28
    9dda:	1f 91       	pop	r17
    9ddc:	0f 91       	pop	r16
    9dde:	ff 90       	pop	r15
    9de0:	ef 90       	pop	r14
    9de2:	df 90       	pop	r13
    9de4:	cf 90       	pop	r12
    9de6:	bf 90       	pop	r11
    9de8:	af 90       	pop	r10
    9dea:	9f 90       	pop	r9
    9dec:	8f 90       	pop	r8
    9dee:	7f 90       	pop	r7
    9df0:	6f 90       	pop	r6
    9df2:	5f 90       	pop	r5
    9df4:	4f 90       	pop	r4
    9df6:	3f 90       	pop	r3
    9df8:	2f 90       	pop	r2
    9dfa:	08 95       	ret

00009dfc <rotate_90_deg>:
    9dfc:	4f 92       	push	r4
    9dfe:	5f 92       	push	r5
    9e00:	6f 92       	push	r6
    9e02:	7f 92       	push	r7
    9e04:	8f 92       	push	r8
    9e06:	9f 92       	push	r9
    9e08:	af 92       	push	r10
    9e0a:	bf 92       	push	r11
    9e0c:	cf 92       	push	r12
    9e0e:	df 92       	push	r13
    9e10:	ef 92       	push	r14
    9e12:	ff 92       	push	r15
    9e14:	0f 93       	push	r16
    9e16:	1f 93       	push	r17
    9e18:	cf 93       	push	r28
    9e1a:	df 93       	push	r29
    9e1c:	cd b7       	in	r28, 0x3d	; 61
    9e1e:	de b7       	in	r29, 0x3e	; 62
    9e20:	c0 54       	subi	r28, 0x40	; 64
    9e22:	d0 40       	sbci	r29, 0x00	; 0
    9e24:	0f b6       	in	r0, 0x3f	; 63
    9e26:	f8 94       	cli
    9e28:	de bf       	out	0x3e, r29	; 62
    9e2a:	0f be       	out	0x3f, r0	; 63
    9e2c:	cd bf       	out	0x3d, r28	; 61
    9e2e:	7e 01       	movw	r14, r28
    9e30:	08 94       	sec
    9e32:	e1 1c       	adc	r14, r1
    9e34:	f1 1c       	adc	r15, r1
    9e36:	a7 01       	movw	r20, r14
    9e38:	20 e0       	ldi	r18, 0x00	; 0
    9e3a:	30 e0       	ldi	r19, 0x00	; 0
    9e3c:	15 c0       	rjmp	.+42     	; 0x9e68 <rotate_90_deg+0x6c>
    9e3e:	fb 01       	movw	r30, r22
    9e40:	e8 0f       	add	r30, r24
    9e42:	f9 1f       	adc	r31, r25
    9e44:	e0 55       	subi	r30, 0x50	; 80
    9e46:	fe 4f       	sbci	r31, 0xFE	; 254
    9e48:	a0 81       	ld	r26, Z
    9e4a:	fa 01       	movw	r30, r20
    9e4c:	e8 0f       	add	r30, r24
    9e4e:	f9 1f       	adc	r31, r25
    9e50:	a0 83       	st	Z, r26
    9e52:	01 96       	adiw	r24, 0x01	; 1
    9e54:	88 30       	cpi	r24, 0x08	; 8
    9e56:	91 05       	cpc	r25, r1
    9e58:	91 f7       	brne	.-28     	; 0x9e3e <rotate_90_deg+0x42>
    9e5a:	2f 5f       	subi	r18, 0xFF	; 255
    9e5c:	3f 4f       	sbci	r19, 0xFF	; 255
    9e5e:	48 5f       	subi	r20, 0xF8	; 248
    9e60:	5f 4f       	sbci	r21, 0xFF	; 255
    9e62:	28 30       	cpi	r18, 0x08	; 8
    9e64:	31 05       	cpc	r19, r1
    9e66:	49 f0       	breq	.+18     	; 0x9e7a <rotate_90_deg+0x7e>
    9e68:	80 e0       	ldi	r24, 0x00	; 0
    9e6a:	90 e0       	ldi	r25, 0x00	; 0
    9e6c:	b9 01       	movw	r22, r18
    9e6e:	e3 e0       	ldi	r30, 0x03	; 3
    9e70:	66 0f       	add	r22, r22
    9e72:	77 1f       	adc	r23, r23
    9e74:	ea 95       	dec	r30
    9e76:	e1 f7       	brne	.-8      	; 0x9e70 <rotate_90_deg+0x74>
    9e78:	e2 cf       	rjmp	.-60     	; 0x9e3e <rotate_90_deg+0x42>
    9e7a:	0e 94 9d 3d 	call	0x7b3a	; 0x7b3a <cube_clear>
    9e7e:	00 e0       	ldi	r16, 0x00	; 0
    9e80:	10 e0       	ldi	r17, 0x00	; 0
    9e82:	80 e8       	ldi	r24, 0x80	; 128
    9e84:	68 2e       	mov	r6, r24
    9e86:	71 2c       	mov	r7, r1
    9e88:	97 e0       	ldi	r25, 0x07	; 7
    9e8a:	c9 2e       	mov	r12, r25
    9e8c:	d1 2c       	mov	r13, r1
    9e8e:	21 e0       	ldi	r18, 0x01	; 1
    9e90:	42 2e       	mov	r4, r18
    9e92:	51 2c       	mov	r5, r1
    9e94:	39 c0       	rjmp	.+114    	; 0x9f08 <rotate_90_deg+0x10c>
    9e96:	f7 01       	movw	r30, r14
    9e98:	e4 0f       	add	r30, r20
    9e9a:	f5 1f       	adc	r31, r21
    9e9c:	80 81       	ld	r24, Z
    9e9e:	90 e0       	ldi	r25, 0x00	; 0
    9ea0:	8a 21       	and	r24, r10
    9ea2:	9b 21       	and	r25, r11
    9ea4:	00 97       	sbiw	r24, 0x00	; 0
    9ea6:	61 f0       	breq	.+24     	; 0x9ec0 <rotate_90_deg+0xc4>
    9ea8:	2c 91       	ld	r18, X
    9eaa:	c6 01       	movw	r24, r12
    9eac:	84 1b       	sub	r24, r20
    9eae:	95 0b       	sbc	r25, r21
    9eb0:	f2 01       	movw	r30, r4
    9eb2:	02 c0       	rjmp	.+4      	; 0x9eb8 <rotate_90_deg+0xbc>
    9eb4:	ee 0f       	add	r30, r30
    9eb6:	ff 1f       	adc	r31, r31
    9eb8:	8a 95       	dec	r24
    9eba:	e2 f7       	brpl	.-8      	; 0x9eb4 <rotate_90_deg+0xb8>
    9ebc:	2e 2b       	or	r18, r30
    9ebe:	2c 93       	st	X, r18
    9ec0:	4f 5f       	subi	r20, 0xFF	; 255
    9ec2:	5f 4f       	sbci	r21, 0xFF	; 255
    9ec4:	48 30       	cpi	r20, 0x08	; 8
    9ec6:	51 05       	cpc	r21, r1
    9ec8:	31 f7       	brne	.-52     	; 0x9e96 <rotate_90_deg+0x9a>
    9eca:	6f 5f       	subi	r22, 0xFF	; 255
    9ecc:	7f 4f       	sbci	r23, 0xFF	; 255
    9ece:	68 30       	cpi	r22, 0x08	; 8
    9ed0:	71 05       	cpc	r23, r1
    9ed2:	89 f0       	breq	.+34     	; 0x9ef6 <rotate_90_deg+0xfa>
    9ed4:	53 01       	movw	r10, r6
    9ed6:	06 2e       	mov	r0, r22
    9ed8:	02 c0       	rjmp	.+4      	; 0x9ede <rotate_90_deg+0xe2>
    9eda:	b5 94       	asr	r11
    9edc:	a7 94       	ror	r10
    9ede:	0a 94       	dec	r0
    9ee0:	e2 f7       	brpl	.-8      	; 0x9eda <rotate_90_deg+0xde>
    9ee2:	40 e0       	ldi	r20, 0x00	; 0
    9ee4:	50 e0       	ldi	r21, 0x00	; 0
    9ee6:	d6 01       	movw	r26, r12
    9ee8:	a6 1b       	sub	r26, r22
    9eea:	b7 0b       	sbc	r27, r23
    9eec:	a8 0d       	add	r26, r8
    9eee:	b9 1d       	adc	r27, r9
    9ef0:	a0 55       	subi	r26, 0x50	; 80
    9ef2:	be 4f       	sbci	r27, 0xFE	; 254
    9ef4:	d0 cf       	rjmp	.-96     	; 0x9e96 <rotate_90_deg+0x9a>
    9ef6:	0f 5f       	subi	r16, 0xFF	; 255
    9ef8:	1f 4f       	sbci	r17, 0xFF	; 255
    9efa:	88 e0       	ldi	r24, 0x08	; 8
    9efc:	90 e0       	ldi	r25, 0x00	; 0
    9efe:	e8 0e       	add	r14, r24
    9f00:	f9 1e       	adc	r15, r25
    9f02:	08 30       	cpi	r16, 0x08	; 8
    9f04:	11 05       	cpc	r17, r1
    9f06:	49 f0       	breq	.+18     	; 0x9f1a <rotate_90_deg+0x11e>
    9f08:	60 e0       	ldi	r22, 0x00	; 0
    9f0a:	70 e0       	ldi	r23, 0x00	; 0
    9f0c:	48 01       	movw	r8, r16
    9f0e:	b3 e0       	ldi	r27, 0x03	; 3
    9f10:	88 0c       	add	r8, r8
    9f12:	99 1c       	adc	r9, r9
    9f14:	ba 95       	dec	r27
    9f16:	e1 f7       	brne	.-8      	; 0x9f10 <rotate_90_deg+0x114>
    9f18:	dd cf       	rjmp	.-70     	; 0x9ed4 <rotate_90_deg+0xd8>
    9f1a:	c0 5c       	subi	r28, 0xC0	; 192
    9f1c:	df 4f       	sbci	r29, 0xFF	; 255
    9f1e:	0f b6       	in	r0, 0x3f	; 63
    9f20:	f8 94       	cli
    9f22:	de bf       	out	0x3e, r29	; 62
    9f24:	0f be       	out	0x3f, r0	; 63
    9f26:	cd bf       	out	0x3d, r28	; 61
    9f28:	df 91       	pop	r29
    9f2a:	cf 91       	pop	r28
    9f2c:	1f 91       	pop	r17
    9f2e:	0f 91       	pop	r16
    9f30:	ff 90       	pop	r15
    9f32:	ef 90       	pop	r14
    9f34:	df 90       	pop	r13
    9f36:	cf 90       	pop	r12
    9f38:	bf 90       	pop	r11
    9f3a:	af 90       	pop	r10
    9f3c:	9f 90       	pop	r9
    9f3e:	8f 90       	pop	r8
    9f40:	7f 90       	pop	r7
    9f42:	6f 90       	pop	r6
    9f44:	5f 90       	pop	r5
    9f46:	4f 90       	pop	r4
    9f48:	08 95       	ret

00009f4a <move_z_fwd>:
    9f4a:	0c c0       	rjmp	.+24     	; 0x9f64 <move_z_fwd+0x1a>
    9f4c:	fd 01       	movw	r30, r26
    9f4e:	e9 0f       	add	r30, r25
    9f50:	f1 1d       	adc	r31, r1
    9f52:	e0 55       	subi	r30, 0x50	; 80
    9f54:	fe 4f       	sbci	r31, 0xFE	; 254
    9f56:	30 81       	ld	r19, Z
    9f58:	33 0f       	add	r19, r19
    9f5a:	30 83       	st	Z, r19
    9f5c:	9f 5f       	subi	r25, 0xFF	; 255
    9f5e:	29 17       	cp	r18, r25
    9f60:	a8 f7       	brcc	.-22     	; 0x9f4c <move_z_fwd+0x2>
    9f62:	8f 5f       	subi	r24, 0xFF	; 255
    9f64:	48 17       	cp	r20, r24
    9f66:	48 f0       	brcs	.+18     	; 0x9f7a <move_z_fwd+0x30>
    9f68:	96 2f       	mov	r25, r22
    9f6a:	a8 2f       	mov	r26, r24
    9f6c:	b0 e0       	ldi	r27, 0x00	; 0
    9f6e:	33 e0       	ldi	r19, 0x03	; 3
    9f70:	aa 0f       	add	r26, r26
    9f72:	bb 1f       	adc	r27, r27
    9f74:	3a 95       	dec	r19
    9f76:	e1 f7       	brne	.-8      	; 0x9f70 <move_z_fwd+0x26>
    9f78:	f2 cf       	rjmp	.-28     	; 0x9f5e <move_z_fwd+0x14>
    9f7a:	08 95       	ret

00009f7c <move_z_rev>:
    9f7c:	0c c0       	rjmp	.+24     	; 0x9f96 <move_z_rev+0x1a>
    9f7e:	fd 01       	movw	r30, r26
    9f80:	e9 0f       	add	r30, r25
    9f82:	f1 1d       	adc	r31, r1
    9f84:	e0 55       	subi	r30, 0x50	; 80
    9f86:	fe 4f       	sbci	r31, 0xFE	; 254
    9f88:	30 81       	ld	r19, Z
    9f8a:	36 95       	lsr	r19
    9f8c:	30 83       	st	Z, r19
    9f8e:	9f 5f       	subi	r25, 0xFF	; 255
    9f90:	29 17       	cp	r18, r25
    9f92:	a8 f7       	brcc	.-22     	; 0x9f7e <move_z_rev+0x2>
    9f94:	8f 5f       	subi	r24, 0xFF	; 255
    9f96:	48 17       	cp	r20, r24
    9f98:	48 f0       	brcs	.+18     	; 0x9fac <move_z_rev+0x30>
    9f9a:	96 2f       	mov	r25, r22
    9f9c:	a8 2f       	mov	r26, r24
    9f9e:	b0 e0       	ldi	r27, 0x00	; 0
    9fa0:	53 e0       	ldi	r21, 0x03	; 3
    9fa2:	aa 0f       	add	r26, r26
    9fa4:	bb 1f       	adc	r27, r27
    9fa6:	5a 95       	dec	r21
    9fa8:	e1 f7       	brne	.-8      	; 0x9fa2 <move_z_rev+0x26>
    9faa:	f2 cf       	rjmp	.-28     	; 0x9f90 <move_z_rev+0x14>
    9fac:	08 95       	ret

00009fae <move_y_fwd>:
    9fae:	af 92       	push	r10
    9fb0:	bf 92       	push	r11
    9fb2:	cf 92       	push	r12
    9fb4:	df 92       	push	r13
    9fb6:	ef 92       	push	r14
    9fb8:	ff 92       	push	r15
    9fba:	0f 93       	push	r16
    9fbc:	1f 93       	push	r17
    9fbe:	cf 93       	push	r28
    9fc0:	df 93       	push	r29
    9fc2:	d8 2f       	mov	r29, r24
    9fc4:	c6 2f       	mov	r28, r22
    9fc6:	74 2f       	mov	r23, r20
    9fc8:	62 2f       	mov	r22, r18
    9fca:	47 e0       	ldi	r20, 0x07	; 7
    9fcc:	50 e0       	ldi	r21, 0x00	; 0
    9fce:	a1 e0       	ldi	r26, 0x01	; 1
    9fd0:	ca 2e       	mov	r12, r26
    9fd2:	d1 2c       	mov	r13, r1
    9fd4:	3b c0       	rjmp	.+118    	; 0xa04c <move_y_fwd+0x9e>
    9fd6:	80 81       	ld	r24, Z
    9fd8:	90 e0       	ldi	r25, 0x00	; 0
    9fda:	02 2e       	mov	r0, r18
    9fdc:	02 c0       	rjmp	.+4      	; 0x9fe2 <move_y_fwd+0x34>
    9fde:	95 95       	asr	r25
    9fe0:	87 95       	ror	r24
    9fe2:	0a 94       	dec	r0
    9fe4:	e2 f7       	brpl	.-8      	; 0x9fde <move_y_fwd+0x30>
    9fe6:	80 ff       	sbrs	r24, 0
    9fe8:	0f c0       	rjmp	.+30     	; 0xa008 <move_y_fwd+0x5a>
    9fea:	8c 91       	ld	r24, X
    9fec:	76 01       	movw	r14, r12
    9fee:	02 2e       	mov	r0, r18
    9ff0:	02 c0       	rjmp	.+4      	; 0x9ff6 <move_y_fwd+0x48>
    9ff2:	ee 0c       	add	r14, r14
    9ff4:	ff 1c       	adc	r15, r15
    9ff6:	0a 94       	dec	r0
    9ff8:	e2 f7       	brpl	.-8      	; 0x9ff2 <move_y_fwd+0x44>
    9ffa:	8e 29       	or	r24, r14
    9ffc:	8c 93       	st	X, r24
    9ffe:	80 81       	ld	r24, Z
    a000:	e0 94       	com	r14
    a002:	e8 22       	and	r14, r24
    a004:	e0 82       	st	Z, r14
    a006:	0b c0       	rjmp	.+22     	; 0xa01e <move_y_fwd+0x70>
    a008:	f0 80       	ld	r15, Z
    a00a:	c6 01       	movw	r24, r12
    a00c:	02 2e       	mov	r0, r18
    a00e:	02 c0       	rjmp	.+4      	; 0xa014 <move_y_fwd+0x66>
    a010:	88 0f       	add	r24, r24
    a012:	99 1f       	adc	r25, r25
    a014:	0a 94       	dec	r0
    a016:	e2 f7       	brpl	.-8      	; 0xa010 <move_y_fwd+0x62>
    a018:	80 95       	com	r24
    a01a:	8f 21       	and	r24, r15
    a01c:	80 83       	st	Z, r24
    a01e:	2f 5f       	subi	r18, 0xFF	; 255
    a020:	62 17       	cp	r22, r18
    a022:	c8 f6       	brcc	.-78     	; 0x9fd6 <move_y_fwd+0x28>
    a024:	3f 5f       	subi	r19, 0xFF	; 255
    a026:	73 17       	cp	r23, r19
    a028:	70 f0       	brcs	.+28     	; 0xa046 <move_y_fwd+0x98>
    a02a:	2c 2f       	mov	r18, r28
    a02c:	83 2f       	mov	r24, r19
    a02e:	90 e0       	ldi	r25, 0x00	; 0
    a030:	f8 01       	movw	r30, r16
    a032:	e8 0f       	add	r30, r24
    a034:	f9 1f       	adc	r31, r25
    a036:	e0 55       	subi	r30, 0x50	; 80
    a038:	fe 4f       	sbci	r31, 0xFE	; 254
    a03a:	d5 01       	movw	r26, r10
    a03c:	a8 0f       	add	r26, r24
    a03e:	b9 1f       	adc	r27, r25
    a040:	a0 55       	subi	r26, 0x50	; 80
    a042:	be 4f       	sbci	r27, 0xFE	; 254
    a044:	ed cf       	rjmp	.-38     	; 0xa020 <move_y_fwd+0x72>
    a046:	41 50       	subi	r20, 0x01	; 1
    a048:	50 40       	sbci	r21, 0x00	; 0
    a04a:	81 f0       	breq	.+32     	; 0xa06c <move_y_fwd+0xbe>
    a04c:	3d 2f       	mov	r19, r29
    a04e:	8a 01       	movw	r16, r20
    a050:	01 50       	subi	r16, 0x01	; 1
    a052:	10 40       	sbci	r17, 0x00	; 0
    a054:	e3 e0       	ldi	r30, 0x03	; 3
    a056:	00 0f       	add	r16, r16
    a058:	11 1f       	adc	r17, r17
    a05a:	ea 95       	dec	r30
    a05c:	e1 f7       	brne	.-8      	; 0xa056 <move_y_fwd+0xa8>
    a05e:	5a 01       	movw	r10, r20
    a060:	f3 e0       	ldi	r31, 0x03	; 3
    a062:	aa 0c       	add	r10, r10
    a064:	bb 1c       	adc	r11, r11
    a066:	fa 95       	dec	r31
    a068:	e1 f7       	brne	.-8      	; 0xa062 <move_y_fwd+0xb4>
    a06a:	dd cf       	rjmp	.-70     	; 0xa026 <move_y_fwd+0x78>
    a06c:	df 91       	pop	r29
    a06e:	cf 91       	pop	r28
    a070:	1f 91       	pop	r17
    a072:	0f 91       	pop	r16
    a074:	ff 90       	pop	r15
    a076:	ef 90       	pop	r14
    a078:	df 90       	pop	r13
    a07a:	cf 90       	pop	r12
    a07c:	bf 90       	pop	r11
    a07e:	af 90       	pop	r10
    a080:	08 95       	ret

0000a082 <move_y_rev>:
    a082:	af 92       	push	r10
    a084:	bf 92       	push	r11
    a086:	cf 92       	push	r12
    a088:	df 92       	push	r13
    a08a:	ef 92       	push	r14
    a08c:	ff 92       	push	r15
    a08e:	0f 93       	push	r16
    a090:	1f 93       	push	r17
    a092:	cf 93       	push	r28
    a094:	df 93       	push	r29
    a096:	d8 2f       	mov	r29, r24
    a098:	c6 2f       	mov	r28, r22
    a09a:	74 2f       	mov	r23, r20
    a09c:	62 2f       	mov	r22, r18
    a09e:	40 e0       	ldi	r20, 0x00	; 0
    a0a0:	50 e0       	ldi	r21, 0x00	; 0
    a0a2:	91 e0       	ldi	r25, 0x01	; 1
    a0a4:	c9 2e       	mov	r12, r25
    a0a6:	d1 2c       	mov	r13, r1
    a0a8:	3d c0       	rjmp	.+122    	; 0xa124 <move_y_rev+0xa2>
    a0aa:	8c 91       	ld	r24, X
    a0ac:	90 e0       	ldi	r25, 0x00	; 0
    a0ae:	02 2e       	mov	r0, r18
    a0b0:	02 c0       	rjmp	.+4      	; 0xa0b6 <move_y_rev+0x34>
    a0b2:	95 95       	asr	r25
    a0b4:	87 95       	ror	r24
    a0b6:	0a 94       	dec	r0
    a0b8:	e2 f7       	brpl	.-8      	; 0xa0b2 <move_y_rev+0x30>
    a0ba:	80 ff       	sbrs	r24, 0
    a0bc:	0f c0       	rjmp	.+30     	; 0xa0dc <move_y_rev+0x5a>
    a0be:	80 81       	ld	r24, Z
    a0c0:	76 01       	movw	r14, r12
    a0c2:	02 2e       	mov	r0, r18
    a0c4:	02 c0       	rjmp	.+4      	; 0xa0ca <move_y_rev+0x48>
    a0c6:	ee 0c       	add	r14, r14
    a0c8:	ff 1c       	adc	r15, r15
    a0ca:	0a 94       	dec	r0
    a0cc:	e2 f7       	brpl	.-8      	; 0xa0c6 <move_y_rev+0x44>
    a0ce:	8e 29       	or	r24, r14
    a0d0:	80 83       	st	Z, r24
    a0d2:	8c 91       	ld	r24, X
    a0d4:	e0 94       	com	r14
    a0d6:	e8 22       	and	r14, r24
    a0d8:	ec 92       	st	X, r14
    a0da:	0b c0       	rjmp	.+22     	; 0xa0f2 <move_y_rev+0x70>
    a0dc:	f0 80       	ld	r15, Z
    a0de:	c6 01       	movw	r24, r12
    a0e0:	02 2e       	mov	r0, r18
    a0e2:	02 c0       	rjmp	.+4      	; 0xa0e8 <move_y_rev+0x66>
    a0e4:	88 0f       	add	r24, r24
    a0e6:	99 1f       	adc	r25, r25
    a0e8:	0a 94       	dec	r0
    a0ea:	e2 f7       	brpl	.-8      	; 0xa0e4 <move_y_rev+0x62>
    a0ec:	80 95       	com	r24
    a0ee:	8f 21       	and	r24, r15
    a0f0:	80 83       	st	Z, r24
    a0f2:	2f 5f       	subi	r18, 0xFF	; 255
    a0f4:	62 17       	cp	r22, r18
    a0f6:	c8 f6       	brcc	.-78     	; 0xa0aa <move_y_rev+0x28>
    a0f8:	3f 5f       	subi	r19, 0xFF	; 255
    a0fa:	73 17       	cp	r23, r19
    a0fc:	70 f0       	brcs	.+28     	; 0xa11a <move_y_rev+0x98>
    a0fe:	2c 2f       	mov	r18, r28
    a100:	83 2f       	mov	r24, r19
    a102:	90 e0       	ldi	r25, 0x00	; 0
    a104:	d8 01       	movw	r26, r16
    a106:	a8 0f       	add	r26, r24
    a108:	b9 1f       	adc	r27, r25
    a10a:	a0 55       	subi	r26, 0x50	; 80
    a10c:	be 4f       	sbci	r27, 0xFE	; 254
    a10e:	f5 01       	movw	r30, r10
    a110:	e8 0f       	add	r30, r24
    a112:	f9 1f       	adc	r31, r25
    a114:	e0 55       	subi	r30, 0x50	; 80
    a116:	fe 4f       	sbci	r31, 0xFE	; 254
    a118:	ed cf       	rjmp	.-38     	; 0xa0f4 <move_y_rev+0x72>
    a11a:	4f 5f       	subi	r20, 0xFF	; 255
    a11c:	5f 4f       	sbci	r21, 0xFF	; 255
    a11e:	47 30       	cpi	r20, 0x07	; 7
    a120:	51 05       	cpc	r21, r1
    a122:	81 f0       	breq	.+32     	; 0xa144 <move_y_rev+0xc2>
    a124:	3d 2f       	mov	r19, r29
    a126:	8a 01       	movw	r16, r20
    a128:	0f 5f       	subi	r16, 0xFF	; 255
    a12a:	1f 4f       	sbci	r17, 0xFF	; 255
    a12c:	b3 e0       	ldi	r27, 0x03	; 3
    a12e:	00 0f       	add	r16, r16
    a130:	11 1f       	adc	r17, r17
    a132:	ba 95       	dec	r27
    a134:	e1 f7       	brne	.-8      	; 0xa12e <move_y_rev+0xac>
    a136:	5a 01       	movw	r10, r20
    a138:	83 e0       	ldi	r24, 0x03	; 3
    a13a:	aa 0c       	add	r10, r10
    a13c:	bb 1c       	adc	r11, r11
    a13e:	8a 95       	dec	r24
    a140:	e1 f7       	brne	.-8      	; 0xa13a <move_y_rev+0xb8>
    a142:	db cf       	rjmp	.-74     	; 0xa0fa <move_y_rev+0x78>
    a144:	df 91       	pop	r29
    a146:	cf 91       	pop	r28
    a148:	1f 91       	pop	r17
    a14a:	0f 91       	pop	r16
    a14c:	ff 90       	pop	r15
    a14e:	ef 90       	pop	r14
    a150:	df 90       	pop	r13
    a152:	cf 90       	pop	r12
    a154:	bf 90       	pop	r11
    a156:	af 90       	pop	r10
    a158:	08 95       	ret

0000a15a <move_x_fwd>:
    a15a:	ef 92       	push	r14
    a15c:	ff 92       	push	r15
    a15e:	0f 93       	push	r16
    a160:	1f 93       	push	r17
    a162:	cf 93       	push	r28
    a164:	df 93       	push	r29
    a166:	58 2f       	mov	r21, r24
    a168:	32 2f       	mov	r19, r18
    a16a:	71 e0       	ldi	r23, 0x01	; 1
    a16c:	e7 2e       	mov	r14, r23
    a16e:	f1 2c       	mov	r15, r1
    a170:	42 c0       	rjmp	.+132    	; 0xa1f6 <move_x_fwd+0x9c>
    a172:	8c 91       	ld	r24, X
    a174:	90 e0       	ldi	r25, 0x00	; 0
    a176:	02 2e       	mov	r0, r18
    a178:	02 c0       	rjmp	.+4      	; 0xa17e <move_x_fwd+0x24>
    a17a:	95 95       	asr	r25
    a17c:	87 95       	ror	r24
    a17e:	0a 94       	dec	r0
    a180:	e2 f7       	brpl	.-8      	; 0xa17a <move_x_fwd+0x20>
    a182:	70 81       	ld	r23, Z
    a184:	80 ff       	sbrs	r24, 0
    a186:	0e c0       	rjmp	.+28     	; 0xa1a4 <move_x_fwd+0x4a>
    a188:	c7 01       	movw	r24, r14
    a18a:	02 2e       	mov	r0, r18
    a18c:	02 c0       	rjmp	.+4      	; 0xa192 <move_x_fwd+0x38>
    a18e:	88 0f       	add	r24, r24
    a190:	99 1f       	adc	r25, r25
    a192:	0a 94       	dec	r0
    a194:	e2 f7       	brpl	.-8      	; 0xa18e <move_x_fwd+0x34>
    a196:	78 2b       	or	r23, r24
    a198:	70 83       	st	Z, r23
    a19a:	9c 91       	ld	r25, X
    a19c:	80 95       	com	r24
    a19e:	89 23       	and	r24, r25
    a1a0:	8c 93       	st	X, r24
    a1a2:	0a c0       	rjmp	.+20     	; 0xa1b8 <move_x_fwd+0x5e>
    a1a4:	c7 01       	movw	r24, r14
    a1a6:	02 2e       	mov	r0, r18
    a1a8:	02 c0       	rjmp	.+4      	; 0xa1ae <move_x_fwd+0x54>
    a1aa:	88 0f       	add	r24, r24
    a1ac:	99 1f       	adc	r25, r25
    a1ae:	0a 94       	dec	r0
    a1b0:	e2 f7       	brpl	.-8      	; 0xa1aa <move_x_fwd+0x50>
    a1b2:	80 95       	com	r24
    a1b4:	87 23       	and	r24, r23
    a1b6:	80 83       	st	Z, r24
    a1b8:	2f 5f       	subi	r18, 0xFF	; 255
    a1ba:	42 17       	cp	r20, r18
    a1bc:	d0 f6       	brcc	.-76     	; 0xa172 <move_x_fwd+0x18>
    a1be:	f8 01       	movw	r30, r16
    a1c0:	30 97       	sbiw	r30, 0x00	; 0
    a1c2:	51 f4       	brne	.+20     	; 0xa1d8 <move_x_fwd+0x7e>
    a1c4:	17 c0       	rjmp	.+46     	; 0xa1f4 <move_x_fwd+0x9a>
    a1c6:	e7 e0       	ldi	r30, 0x07	; 7
    a1c8:	f0 e0       	ldi	r31, 0x00	; 0
    a1ca:	c6 2f       	mov	r28, r22
    a1cc:	d0 e0       	ldi	r29, 0x00	; 0
    a1ce:	23 e0       	ldi	r18, 0x03	; 3
    a1d0:	cc 0f       	add	r28, r28
    a1d2:	dd 1f       	adc	r29, r29
    a1d4:	2a 95       	dec	r18
    a1d6:	e1 f7       	brne	.-8      	; 0xa1d0 <move_x_fwd+0x76>
    a1d8:	25 2f       	mov	r18, r21
    a1da:	8f 01       	movw	r16, r30
    a1dc:	01 50       	subi	r16, 0x01	; 1
    a1de:	10 40       	sbci	r17, 0x00	; 0
    a1e0:	de 01       	movw	r26, r28
    a1e2:	a0 0f       	add	r26, r16
    a1e4:	b1 1f       	adc	r27, r17
    a1e6:	a0 55       	subi	r26, 0x50	; 80
    a1e8:	be 4f       	sbci	r27, 0xFE	; 254
    a1ea:	ec 0f       	add	r30, r28
    a1ec:	fd 1f       	adc	r31, r29
    a1ee:	e0 55       	subi	r30, 0x50	; 80
    a1f0:	fe 4f       	sbci	r31, 0xFE	; 254
    a1f2:	e3 cf       	rjmp	.-58     	; 0xa1ba <move_x_fwd+0x60>
    a1f4:	6f 5f       	subi	r22, 0xFF	; 255
    a1f6:	36 17       	cp	r19, r22
    a1f8:	30 f7       	brcc	.-52     	; 0xa1c6 <move_x_fwd+0x6c>
    a1fa:	df 91       	pop	r29
    a1fc:	cf 91       	pop	r28
    a1fe:	1f 91       	pop	r17
    a200:	0f 91       	pop	r16
    a202:	ff 90       	pop	r15
    a204:	ef 90       	pop	r14
    a206:	08 95       	ret

0000a208 <move_x_rev>:
    a208:	ef 92       	push	r14
    a20a:	ff 92       	push	r15
    a20c:	0f 93       	push	r16
    a20e:	1f 93       	push	r17
    a210:	cf 93       	push	r28
    a212:	df 93       	push	r29
    a214:	58 2f       	mov	r21, r24
    a216:	f1 e0       	ldi	r31, 0x01	; 1
    a218:	ef 2e       	mov	r14, r31
    a21a:	f1 2c       	mov	r15, r1
    a21c:	41 c0       	rjmp	.+130    	; 0xa2a0 <move_x_rev+0x98>
    a21e:	8c 91       	ld	r24, X
    a220:	90 e0       	ldi	r25, 0x00	; 0
    a222:	03 2e       	mov	r0, r19
    a224:	02 c0       	rjmp	.+4      	; 0xa22a <move_x_rev+0x22>
    a226:	95 95       	asr	r25
    a228:	87 95       	ror	r24
    a22a:	0a 94       	dec	r0
    a22c:	e2 f7       	brpl	.-8      	; 0xa226 <move_x_rev+0x1e>
    a22e:	70 81       	ld	r23, Z
    a230:	80 ff       	sbrs	r24, 0
    a232:	0e c0       	rjmp	.+28     	; 0xa250 <move_x_rev+0x48>
    a234:	c7 01       	movw	r24, r14
    a236:	03 2e       	mov	r0, r19
    a238:	02 c0       	rjmp	.+4      	; 0xa23e <move_x_rev+0x36>
    a23a:	88 0f       	add	r24, r24
    a23c:	99 1f       	adc	r25, r25
    a23e:	0a 94       	dec	r0
    a240:	e2 f7       	brpl	.-8      	; 0xa23a <move_x_rev+0x32>
    a242:	78 2b       	or	r23, r24
    a244:	70 83       	st	Z, r23
    a246:	9c 91       	ld	r25, X
    a248:	80 95       	com	r24
    a24a:	89 23       	and	r24, r25
    a24c:	8c 93       	st	X, r24
    a24e:	0a c0       	rjmp	.+20     	; 0xa264 <move_x_rev+0x5c>
    a250:	c7 01       	movw	r24, r14
    a252:	03 2e       	mov	r0, r19
    a254:	02 c0       	rjmp	.+4      	; 0xa25a <move_x_rev+0x52>
    a256:	88 0f       	add	r24, r24
    a258:	99 1f       	adc	r25, r25
    a25a:	0a 94       	dec	r0
    a25c:	e2 f7       	brpl	.-8      	; 0xa256 <move_x_rev+0x4e>
    a25e:	80 95       	com	r24
    a260:	87 23       	and	r24, r23
    a262:	80 83       	st	Z, r24
    a264:	3f 5f       	subi	r19, 0xFF	; 255
    a266:	43 17       	cp	r20, r19
    a268:	d0 f6       	brcc	.-76     	; 0xa21e <move_x_rev+0x16>
    a26a:	21 96       	adiw	r28, 0x01	; 1
    a26c:	c8 30       	cpi	r28, 0x08	; 8
    a26e:	d1 05       	cpc	r29, r1
    a270:	51 f4       	brne	.+20     	; 0xa286 <move_x_rev+0x7e>
    a272:	15 c0       	rjmp	.+42     	; 0xa29e <move_x_rev+0x96>
    a274:	c1 e0       	ldi	r28, 0x01	; 1
    a276:	d0 e0       	ldi	r29, 0x00	; 0
    a278:	06 2f       	mov	r16, r22
    a27a:	10 e0       	ldi	r17, 0x00	; 0
    a27c:	e3 e0       	ldi	r30, 0x03	; 3
    a27e:	00 0f       	add	r16, r16
    a280:	11 1f       	adc	r17, r17
    a282:	ea 95       	dec	r30
    a284:	e1 f7       	brne	.-8      	; 0xa27e <move_x_rev+0x76>
    a286:	35 2f       	mov	r19, r21
    a288:	d8 01       	movw	r26, r16
    a28a:	ac 0f       	add	r26, r28
    a28c:	bd 1f       	adc	r27, r29
    a28e:	a0 55       	subi	r26, 0x50	; 80
    a290:	be 4f       	sbci	r27, 0xFE	; 254
    a292:	fe 01       	movw	r30, r28
    a294:	e0 0f       	add	r30, r16
    a296:	f1 1f       	adc	r31, r17
    a298:	e1 55       	subi	r30, 0x51	; 81
    a29a:	fe 4f       	sbci	r31, 0xFE	; 254
    a29c:	e4 cf       	rjmp	.-56     	; 0xa266 <move_x_rev+0x5e>
    a29e:	6f 5f       	subi	r22, 0xFF	; 255
    a2a0:	26 17       	cp	r18, r22
    a2a2:	40 f7       	brcc	.-48     	; 0xa274 <move_x_rev+0x6c>
    a2a4:	df 91       	pop	r29
    a2a6:	cf 91       	pop	r28
    a2a8:	1f 91       	pop	r17
    a2aa:	0f 91       	pop	r16
    a2ac:	ff 90       	pop	r15
    a2ae:	ef 90       	pop	r14
    a2b0:	08 95       	ret

0000a2b2 <main>:
// the AVR enters this function at boot time
int main (void)
{

	// This function initiates IO ports, timers and serial communications
	ioinit();
    a2b2:	0e 94 f0 3e 	call	0x7de0	; 0x7de0 <ioinit>
	// 3) Random seed. The bootwait function counts forever from 0 to 255.
	//    Whenever you press the button, this counter stops, and the number it
	//    stopped at is used as a random seed. This ensures true randomness at
	//    every boot. Without this (or some similar process) the cube would
	//    produce the same "random" sequence every time
	i = bootwait();
    a2b6:	0e 94 0b 3f 	call	0x7e16	; 0x7e16 <bootwait>

	// Enable interrupts
	// This starts the routine that draws the cube content
	sei();	// global interrupt enable
    a2ba:	78 94       	sei

	// Result for bootwait() is 2:
	// Go to rs232 mode. this function loops forever.
	if (i == 2)
    a2bc:	82 30       	cpi	r24, 0x02	; 2
    a2be:	91 05       	cpc	r25, r1
    a2c0:	41 f4       	brne	.+16     	; 0xa2d2 <main+0x20>
	{
		LED_PORT &= ~LED_GREEN; // green off, red on
    a2c2:	5d 98       	cbi	0x0b, 5	; 11
		LED_PORT |= LED_RED;
    a2c4:	5a 9a       	sbi	0x0b, 2	; 11
		delay_ms(5000);	// not calibrated to milliseconds
    a2c6:	88 e8       	ldi	r24, 0x88	; 136
    a2c8:	93 e1       	ldi	r25, 0x13	; 19
    a2ca:	0e 94 a7 27 	call	0x4f4e	; 0x4f4e <delay_ms>
		rs232();
    a2ce:	0e 94 30 3f 	call	0x7e60	; 0x7e60 <rs232>
		*/
		
		// Show the effects in a random order.
		// Comment the lines above and uncomment this
		// if you want the effects in a random order.
		launch_effect(rand()%EFFECTS_TOTAL);	
    a2d2:	c8 e2       	ldi	r28, 0x28	; 40
    a2d4:	d0 e0       	ldi	r29, 0x00	; 0

	// Result of bootwait() is something other than 2:
	// Do awesome effects. Loop forever.
	while (1)
	{
		LED_PORT &= ~LED_RED; // red off, green on
    a2d6:	5a 98       	cbi	0x0b, 2	; 11
		LED_PORT |= LED_GREEN;
    a2d8:	5d 9a       	sbi	0x0b, 5	; 11
		*/
		
		// Show the effects in a random order.
		// Comment the lines above and uncomment this
		// if you want the effects in a random order.
		launch_effect(rand()%EFFECTS_TOTAL);	
    a2da:	0e 94 72 54 	call	0xa8e4	; 0xa8e4 <rand>
    a2de:	be 01       	movw	r22, r28
    a2e0:	0e 94 f6 53 	call	0xa7ec	; 0xa7ec <__divmodhi4>
    a2e4:	0e 94 03 3b 	call	0x7606	; 0x7606 <launch_effect>
    a2e8:	f6 cf       	rjmp	.-20     	; 0xa2d6 <main+0x24>

0000a2ea <__subsf3>:
    a2ea:	50 58       	subi	r21, 0x80	; 128

0000a2ec <__addsf3>:
    a2ec:	bb 27       	eor	r27, r27
    a2ee:	aa 27       	eor	r26, r26
    a2f0:	0e d0       	rcall	.+28     	; 0xa30e <__addsf3x>
    a2f2:	78 c1       	rjmp	.+752    	; 0xa5e4 <__fp_round>
    a2f4:	41 d1       	rcall	.+642    	; 0xa578 <__fp_pscA>
    a2f6:	30 f0       	brcs	.+12     	; 0xa304 <__addsf3+0x18>
    a2f8:	46 d1       	rcall	.+652    	; 0xa586 <__fp_pscB>
    a2fa:	20 f0       	brcs	.+8      	; 0xa304 <__addsf3+0x18>
    a2fc:	31 f4       	brne	.+12     	; 0xa30a <__addsf3+0x1e>
    a2fe:	9f 3f       	cpi	r25, 0xFF	; 255
    a300:	11 f4       	brne	.+4      	; 0xa306 <__addsf3+0x1a>
    a302:	1e f4       	brtc	.+6      	; 0xa30a <__addsf3+0x1e>
    a304:	36 c1       	rjmp	.+620    	; 0xa572 <__fp_nan>
    a306:	0e f4       	brtc	.+2      	; 0xa30a <__addsf3+0x1e>
    a308:	e0 95       	com	r30
    a30a:	e7 fb       	bst	r30, 7
    a30c:	2c c1       	rjmp	.+600    	; 0xa566 <__fp_inf>

0000a30e <__addsf3x>:
    a30e:	e9 2f       	mov	r30, r25
    a310:	8b d1       	rcall	.+790    	; 0xa628 <__fp_split3>
    a312:	80 f3       	brcs	.-32     	; 0xa2f4 <__addsf3+0x8>
    a314:	ba 17       	cp	r27, r26
    a316:	62 07       	cpc	r22, r18
    a318:	73 07       	cpc	r23, r19
    a31a:	84 07       	cpc	r24, r20
    a31c:	95 07       	cpc	r25, r21
    a31e:	18 f0       	brcs	.+6      	; 0xa326 <__addsf3x+0x18>
    a320:	71 f4       	brne	.+28     	; 0xa33e <__addsf3x+0x30>
    a322:	9e f5       	brtc	.+102    	; 0xa38a <__addsf3x+0x7c>
    a324:	a3 c1       	rjmp	.+838    	; 0xa66c <__fp_zero>
    a326:	0e f4       	brtc	.+2      	; 0xa32a <__addsf3x+0x1c>
    a328:	e0 95       	com	r30
    a32a:	0b 2e       	mov	r0, r27
    a32c:	ba 2f       	mov	r27, r26
    a32e:	a0 2d       	mov	r26, r0
    a330:	0b 01       	movw	r0, r22
    a332:	b9 01       	movw	r22, r18
    a334:	90 01       	movw	r18, r0
    a336:	0c 01       	movw	r0, r24
    a338:	ca 01       	movw	r24, r20
    a33a:	a0 01       	movw	r20, r0
    a33c:	11 24       	eor	r1, r1
    a33e:	ff 27       	eor	r31, r31
    a340:	59 1b       	sub	r21, r25
    a342:	99 f0       	breq	.+38     	; 0xa36a <__addsf3x+0x5c>
    a344:	59 3f       	cpi	r21, 0xF9	; 249
    a346:	50 f4       	brcc	.+20     	; 0xa35c <__addsf3x+0x4e>
    a348:	50 3e       	cpi	r21, 0xE0	; 224
    a34a:	68 f1       	brcs	.+90     	; 0xa3a6 <__addsf3x+0x98>
    a34c:	1a 16       	cp	r1, r26
    a34e:	f0 40       	sbci	r31, 0x00	; 0
    a350:	a2 2f       	mov	r26, r18
    a352:	23 2f       	mov	r18, r19
    a354:	34 2f       	mov	r19, r20
    a356:	44 27       	eor	r20, r20
    a358:	58 5f       	subi	r21, 0xF8	; 248
    a35a:	f3 cf       	rjmp	.-26     	; 0xa342 <__addsf3x+0x34>
    a35c:	46 95       	lsr	r20
    a35e:	37 95       	ror	r19
    a360:	27 95       	ror	r18
    a362:	a7 95       	ror	r26
    a364:	f0 40       	sbci	r31, 0x00	; 0
    a366:	53 95       	inc	r21
    a368:	c9 f7       	brne	.-14     	; 0xa35c <__addsf3x+0x4e>
    a36a:	7e f4       	brtc	.+30     	; 0xa38a <__addsf3x+0x7c>
    a36c:	1f 16       	cp	r1, r31
    a36e:	ba 0b       	sbc	r27, r26
    a370:	62 0b       	sbc	r22, r18
    a372:	73 0b       	sbc	r23, r19
    a374:	84 0b       	sbc	r24, r20
    a376:	ba f0       	brmi	.+46     	; 0xa3a6 <__addsf3x+0x98>
    a378:	91 50       	subi	r25, 0x01	; 1
    a37a:	a1 f0       	breq	.+40     	; 0xa3a4 <__addsf3x+0x96>
    a37c:	ff 0f       	add	r31, r31
    a37e:	bb 1f       	adc	r27, r27
    a380:	66 1f       	adc	r22, r22
    a382:	77 1f       	adc	r23, r23
    a384:	88 1f       	adc	r24, r24
    a386:	c2 f7       	brpl	.-16     	; 0xa378 <__addsf3x+0x6a>
    a388:	0e c0       	rjmp	.+28     	; 0xa3a6 <__addsf3x+0x98>
    a38a:	ba 0f       	add	r27, r26
    a38c:	62 1f       	adc	r22, r18
    a38e:	73 1f       	adc	r23, r19
    a390:	84 1f       	adc	r24, r20
    a392:	48 f4       	brcc	.+18     	; 0xa3a6 <__addsf3x+0x98>
    a394:	87 95       	ror	r24
    a396:	77 95       	ror	r23
    a398:	67 95       	ror	r22
    a39a:	b7 95       	ror	r27
    a39c:	f7 95       	ror	r31
    a39e:	9e 3f       	cpi	r25, 0xFE	; 254
    a3a0:	08 f0       	brcs	.+2      	; 0xa3a4 <__addsf3x+0x96>
    a3a2:	b3 cf       	rjmp	.-154    	; 0xa30a <__addsf3+0x1e>
    a3a4:	93 95       	inc	r25
    a3a6:	88 0f       	add	r24, r24
    a3a8:	08 f0       	brcs	.+2      	; 0xa3ac <__addsf3x+0x9e>
    a3aa:	99 27       	eor	r25, r25
    a3ac:	ee 0f       	add	r30, r30
    a3ae:	97 95       	ror	r25
    a3b0:	87 95       	ror	r24
    a3b2:	08 95       	ret

0000a3b4 <cos>:
    a3b4:	f0 d0       	rcall	.+480    	; 0xa596 <__fp_rempio2>
    a3b6:	e3 95       	inc	r30
    a3b8:	26 c1       	rjmp	.+588    	; 0xa606 <__fp_sinus>

0000a3ba <__divsf3>:
    a3ba:	0c d0       	rcall	.+24     	; 0xa3d4 <__divsf3x>
    a3bc:	13 c1       	rjmp	.+550    	; 0xa5e4 <__fp_round>
    a3be:	e3 d0       	rcall	.+454    	; 0xa586 <__fp_pscB>
    a3c0:	40 f0       	brcs	.+16     	; 0xa3d2 <__divsf3+0x18>
    a3c2:	da d0       	rcall	.+436    	; 0xa578 <__fp_pscA>
    a3c4:	30 f0       	brcs	.+12     	; 0xa3d2 <__divsf3+0x18>
    a3c6:	21 f4       	brne	.+8      	; 0xa3d0 <__divsf3+0x16>
    a3c8:	5f 3f       	cpi	r21, 0xFF	; 255
    a3ca:	19 f0       	breq	.+6      	; 0xa3d2 <__divsf3+0x18>
    a3cc:	cc c0       	rjmp	.+408    	; 0xa566 <__fp_inf>
    a3ce:	51 11       	cpse	r21, r1
    a3d0:	4e c1       	rjmp	.+668    	; 0xa66e <__fp_szero>
    a3d2:	cf c0       	rjmp	.+414    	; 0xa572 <__fp_nan>

0000a3d4 <__divsf3x>:
    a3d4:	29 d1       	rcall	.+594    	; 0xa628 <__fp_split3>
    a3d6:	98 f3       	brcs	.-26     	; 0xa3be <__divsf3+0x4>

0000a3d8 <__divsf3_pse>:
    a3d8:	99 23       	and	r25, r25
    a3da:	c9 f3       	breq	.-14     	; 0xa3ce <__divsf3+0x14>
    a3dc:	55 23       	and	r21, r21
    a3de:	b1 f3       	breq	.-20     	; 0xa3cc <__divsf3+0x12>
    a3e0:	95 1b       	sub	r25, r21
    a3e2:	55 0b       	sbc	r21, r21
    a3e4:	bb 27       	eor	r27, r27
    a3e6:	aa 27       	eor	r26, r26
    a3e8:	62 17       	cp	r22, r18
    a3ea:	73 07       	cpc	r23, r19
    a3ec:	84 07       	cpc	r24, r20
    a3ee:	38 f0       	brcs	.+14     	; 0xa3fe <__divsf3_pse+0x26>
    a3f0:	9f 5f       	subi	r25, 0xFF	; 255
    a3f2:	5f 4f       	sbci	r21, 0xFF	; 255
    a3f4:	22 0f       	add	r18, r18
    a3f6:	33 1f       	adc	r19, r19
    a3f8:	44 1f       	adc	r20, r20
    a3fa:	aa 1f       	adc	r26, r26
    a3fc:	a9 f3       	breq	.-22     	; 0xa3e8 <__divsf3_pse+0x10>
    a3fe:	33 d0       	rcall	.+102    	; 0xa466 <__divsf3_pse+0x8e>
    a400:	0e 2e       	mov	r0, r30
    a402:	3a f0       	brmi	.+14     	; 0xa412 <__divsf3_pse+0x3a>
    a404:	e0 e8       	ldi	r30, 0x80	; 128
    a406:	30 d0       	rcall	.+96     	; 0xa468 <__divsf3_pse+0x90>
    a408:	91 50       	subi	r25, 0x01	; 1
    a40a:	50 40       	sbci	r21, 0x00	; 0
    a40c:	e6 95       	lsr	r30
    a40e:	00 1c       	adc	r0, r0
    a410:	ca f7       	brpl	.-14     	; 0xa404 <__divsf3_pse+0x2c>
    a412:	29 d0       	rcall	.+82     	; 0xa466 <__divsf3_pse+0x8e>
    a414:	fe 2f       	mov	r31, r30
    a416:	27 d0       	rcall	.+78     	; 0xa466 <__divsf3_pse+0x8e>
    a418:	66 0f       	add	r22, r22
    a41a:	77 1f       	adc	r23, r23
    a41c:	88 1f       	adc	r24, r24
    a41e:	bb 1f       	adc	r27, r27
    a420:	26 17       	cp	r18, r22
    a422:	37 07       	cpc	r19, r23
    a424:	48 07       	cpc	r20, r24
    a426:	ab 07       	cpc	r26, r27
    a428:	b0 e8       	ldi	r27, 0x80	; 128
    a42a:	09 f0       	breq	.+2      	; 0xa42e <__divsf3_pse+0x56>
    a42c:	bb 0b       	sbc	r27, r27
    a42e:	80 2d       	mov	r24, r0
    a430:	bf 01       	movw	r22, r30
    a432:	ff 27       	eor	r31, r31
    a434:	93 58       	subi	r25, 0x83	; 131
    a436:	5f 4f       	sbci	r21, 0xFF	; 255
    a438:	2a f0       	brmi	.+10     	; 0xa444 <__divsf3_pse+0x6c>
    a43a:	9e 3f       	cpi	r25, 0xFE	; 254
    a43c:	51 05       	cpc	r21, r1
    a43e:	68 f0       	brcs	.+26     	; 0xa45a <__divsf3_pse+0x82>
    a440:	92 c0       	rjmp	.+292    	; 0xa566 <__fp_inf>
    a442:	15 c1       	rjmp	.+554    	; 0xa66e <__fp_szero>
    a444:	5f 3f       	cpi	r21, 0xFF	; 255
    a446:	ec f3       	brlt	.-6      	; 0xa442 <__divsf3_pse+0x6a>
    a448:	98 3e       	cpi	r25, 0xE8	; 232
    a44a:	dc f3       	brlt	.-10     	; 0xa442 <__divsf3_pse+0x6a>
    a44c:	86 95       	lsr	r24
    a44e:	77 95       	ror	r23
    a450:	67 95       	ror	r22
    a452:	b7 95       	ror	r27
    a454:	f7 95       	ror	r31
    a456:	9f 5f       	subi	r25, 0xFF	; 255
    a458:	c9 f7       	brne	.-14     	; 0xa44c <__divsf3_pse+0x74>
    a45a:	88 0f       	add	r24, r24
    a45c:	91 1d       	adc	r25, r1
    a45e:	96 95       	lsr	r25
    a460:	87 95       	ror	r24
    a462:	97 f9       	bld	r25, 7
    a464:	08 95       	ret
    a466:	e1 e0       	ldi	r30, 0x01	; 1
    a468:	66 0f       	add	r22, r22
    a46a:	77 1f       	adc	r23, r23
    a46c:	88 1f       	adc	r24, r24
    a46e:	bb 1f       	adc	r27, r27
    a470:	62 17       	cp	r22, r18
    a472:	73 07       	cpc	r23, r19
    a474:	84 07       	cpc	r24, r20
    a476:	ba 07       	cpc	r27, r26
    a478:	20 f0       	brcs	.+8      	; 0xa482 <__divsf3_pse+0xaa>
    a47a:	62 1b       	sub	r22, r18
    a47c:	73 0b       	sbc	r23, r19
    a47e:	84 0b       	sbc	r24, r20
    a480:	ba 0b       	sbc	r27, r26
    a482:	ee 1f       	adc	r30, r30
    a484:	88 f7       	brcc	.-30     	; 0xa468 <__divsf3_pse+0x90>
    a486:	e0 95       	com	r30
    a488:	08 95       	ret

0000a48a <__fixsfsi>:
    a48a:	04 d0       	rcall	.+8      	; 0xa494 <__fixunssfsi>
    a48c:	68 94       	set
    a48e:	b1 11       	cpse	r27, r1
    a490:	ee c0       	rjmp	.+476    	; 0xa66e <__fp_szero>
    a492:	08 95       	ret

0000a494 <__fixunssfsi>:
    a494:	d1 d0       	rcall	.+418    	; 0xa638 <__fp_splitA>
    a496:	88 f0       	brcs	.+34     	; 0xa4ba <__fixunssfsi+0x26>
    a498:	9f 57       	subi	r25, 0x7F	; 127
    a49a:	90 f0       	brcs	.+36     	; 0xa4c0 <__fixunssfsi+0x2c>
    a49c:	b9 2f       	mov	r27, r25
    a49e:	99 27       	eor	r25, r25
    a4a0:	b7 51       	subi	r27, 0x17	; 23
    a4a2:	a0 f0       	brcs	.+40     	; 0xa4cc <__fixunssfsi+0x38>
    a4a4:	d1 f0       	breq	.+52     	; 0xa4da <__fixunssfsi+0x46>
    a4a6:	66 0f       	add	r22, r22
    a4a8:	77 1f       	adc	r23, r23
    a4aa:	88 1f       	adc	r24, r24
    a4ac:	99 1f       	adc	r25, r25
    a4ae:	1a f0       	brmi	.+6      	; 0xa4b6 <__fixunssfsi+0x22>
    a4b0:	ba 95       	dec	r27
    a4b2:	c9 f7       	brne	.-14     	; 0xa4a6 <__fixunssfsi+0x12>
    a4b4:	12 c0       	rjmp	.+36     	; 0xa4da <__fixunssfsi+0x46>
    a4b6:	b1 30       	cpi	r27, 0x01	; 1
    a4b8:	81 f0       	breq	.+32     	; 0xa4da <__fixunssfsi+0x46>
    a4ba:	d8 d0       	rcall	.+432    	; 0xa66c <__fp_zero>
    a4bc:	b1 e0       	ldi	r27, 0x01	; 1
    a4be:	08 95       	ret
    a4c0:	d5 c0       	rjmp	.+426    	; 0xa66c <__fp_zero>
    a4c2:	67 2f       	mov	r22, r23
    a4c4:	78 2f       	mov	r23, r24
    a4c6:	88 27       	eor	r24, r24
    a4c8:	b8 5f       	subi	r27, 0xF8	; 248
    a4ca:	39 f0       	breq	.+14     	; 0xa4da <__fixunssfsi+0x46>
    a4cc:	b9 3f       	cpi	r27, 0xF9	; 249
    a4ce:	cc f3       	brlt	.-14     	; 0xa4c2 <__fixunssfsi+0x2e>
    a4d0:	86 95       	lsr	r24
    a4d2:	77 95       	ror	r23
    a4d4:	67 95       	ror	r22
    a4d6:	b3 95       	inc	r27
    a4d8:	d9 f7       	brne	.-10     	; 0xa4d0 <__fixunssfsi+0x3c>
    a4da:	3e f4       	brtc	.+14     	; 0xa4ea <__fixunssfsi+0x56>
    a4dc:	90 95       	com	r25
    a4de:	80 95       	com	r24
    a4e0:	70 95       	com	r23
    a4e2:	61 95       	neg	r22
    a4e4:	7f 4f       	sbci	r23, 0xFF	; 255
    a4e6:	8f 4f       	sbci	r24, 0xFF	; 255
    a4e8:	9f 4f       	sbci	r25, 0xFF	; 255
    a4ea:	08 95       	ret

0000a4ec <__floatunsisf>:
    a4ec:	e8 94       	clt
    a4ee:	09 c0       	rjmp	.+18     	; 0xa502 <__floatsisf+0x12>

0000a4f0 <__floatsisf>:
    a4f0:	97 fb       	bst	r25, 7
    a4f2:	3e f4       	brtc	.+14     	; 0xa502 <__floatsisf+0x12>
    a4f4:	90 95       	com	r25
    a4f6:	80 95       	com	r24
    a4f8:	70 95       	com	r23
    a4fa:	61 95       	neg	r22
    a4fc:	7f 4f       	sbci	r23, 0xFF	; 255
    a4fe:	8f 4f       	sbci	r24, 0xFF	; 255
    a500:	9f 4f       	sbci	r25, 0xFF	; 255
    a502:	99 23       	and	r25, r25
    a504:	a9 f0       	breq	.+42     	; 0xa530 <__floatsisf+0x40>
    a506:	f9 2f       	mov	r31, r25
    a508:	96 e9       	ldi	r25, 0x96	; 150
    a50a:	bb 27       	eor	r27, r27
    a50c:	93 95       	inc	r25
    a50e:	f6 95       	lsr	r31
    a510:	87 95       	ror	r24
    a512:	77 95       	ror	r23
    a514:	67 95       	ror	r22
    a516:	b7 95       	ror	r27
    a518:	f1 11       	cpse	r31, r1
    a51a:	f8 cf       	rjmp	.-16     	; 0xa50c <__floatsisf+0x1c>
    a51c:	fa f4       	brpl	.+62     	; 0xa55c <__floatsisf+0x6c>
    a51e:	bb 0f       	add	r27, r27
    a520:	11 f4       	brne	.+4      	; 0xa526 <__floatsisf+0x36>
    a522:	60 ff       	sbrs	r22, 0
    a524:	1b c0       	rjmp	.+54     	; 0xa55c <__floatsisf+0x6c>
    a526:	6f 5f       	subi	r22, 0xFF	; 255
    a528:	7f 4f       	sbci	r23, 0xFF	; 255
    a52a:	8f 4f       	sbci	r24, 0xFF	; 255
    a52c:	9f 4f       	sbci	r25, 0xFF	; 255
    a52e:	16 c0       	rjmp	.+44     	; 0xa55c <__floatsisf+0x6c>
    a530:	88 23       	and	r24, r24
    a532:	11 f0       	breq	.+4      	; 0xa538 <__floatsisf+0x48>
    a534:	96 e9       	ldi	r25, 0x96	; 150
    a536:	11 c0       	rjmp	.+34     	; 0xa55a <__floatsisf+0x6a>
    a538:	77 23       	and	r23, r23
    a53a:	21 f0       	breq	.+8      	; 0xa544 <__floatsisf+0x54>
    a53c:	9e e8       	ldi	r25, 0x8E	; 142
    a53e:	87 2f       	mov	r24, r23
    a540:	76 2f       	mov	r23, r22
    a542:	05 c0       	rjmp	.+10     	; 0xa54e <__floatsisf+0x5e>
    a544:	66 23       	and	r22, r22
    a546:	71 f0       	breq	.+28     	; 0xa564 <__floatsisf+0x74>
    a548:	96 e8       	ldi	r25, 0x86	; 134
    a54a:	86 2f       	mov	r24, r22
    a54c:	70 e0       	ldi	r23, 0x00	; 0
    a54e:	60 e0       	ldi	r22, 0x00	; 0
    a550:	2a f0       	brmi	.+10     	; 0xa55c <__floatsisf+0x6c>
    a552:	9a 95       	dec	r25
    a554:	66 0f       	add	r22, r22
    a556:	77 1f       	adc	r23, r23
    a558:	88 1f       	adc	r24, r24
    a55a:	da f7       	brpl	.-10     	; 0xa552 <__floatsisf+0x62>
    a55c:	88 0f       	add	r24, r24
    a55e:	96 95       	lsr	r25
    a560:	87 95       	ror	r24
    a562:	97 f9       	bld	r25, 7
    a564:	08 95       	ret

0000a566 <__fp_inf>:
    a566:	97 f9       	bld	r25, 7
    a568:	9f 67       	ori	r25, 0x7F	; 127
    a56a:	80 e8       	ldi	r24, 0x80	; 128
    a56c:	70 e0       	ldi	r23, 0x00	; 0
    a56e:	60 e0       	ldi	r22, 0x00	; 0
    a570:	08 95       	ret

0000a572 <__fp_nan>:
    a572:	9f ef       	ldi	r25, 0xFF	; 255
    a574:	80 ec       	ldi	r24, 0xC0	; 192
    a576:	08 95       	ret

0000a578 <__fp_pscA>:
    a578:	00 24       	eor	r0, r0
    a57a:	0a 94       	dec	r0
    a57c:	16 16       	cp	r1, r22
    a57e:	17 06       	cpc	r1, r23
    a580:	18 06       	cpc	r1, r24
    a582:	09 06       	cpc	r0, r25
    a584:	08 95       	ret

0000a586 <__fp_pscB>:
    a586:	00 24       	eor	r0, r0
    a588:	0a 94       	dec	r0
    a58a:	12 16       	cp	r1, r18
    a58c:	13 06       	cpc	r1, r19
    a58e:	14 06       	cpc	r1, r20
    a590:	05 06       	cpc	r0, r21
    a592:	08 95       	ret
    a594:	ee cf       	rjmp	.-36     	; 0xa572 <__fp_nan>

0000a596 <__fp_rempio2>:
    a596:	50 d0       	rcall	.+160    	; 0xa638 <__fp_splitA>
    a598:	e8 f3       	brcs	.-6      	; 0xa594 <__fp_pscB+0xe>
    a59a:	e8 94       	clt
    a59c:	e0 e0       	ldi	r30, 0x00	; 0
    a59e:	bb 27       	eor	r27, r27
    a5a0:	9f 57       	subi	r25, 0x7F	; 127
    a5a2:	f0 f0       	brcs	.+60     	; 0xa5e0 <__fp_rempio2+0x4a>
    a5a4:	2a ed       	ldi	r18, 0xDA	; 218
    a5a6:	3f e0       	ldi	r19, 0x0F	; 15
    a5a8:	49 ec       	ldi	r20, 0xC9	; 201
    a5aa:	06 c0       	rjmp	.+12     	; 0xa5b8 <__fp_rempio2+0x22>
    a5ac:	ee 0f       	add	r30, r30
    a5ae:	bb 0f       	add	r27, r27
    a5b0:	66 1f       	adc	r22, r22
    a5b2:	77 1f       	adc	r23, r23
    a5b4:	88 1f       	adc	r24, r24
    a5b6:	28 f0       	brcs	.+10     	; 0xa5c2 <__fp_rempio2+0x2c>
    a5b8:	b2 3a       	cpi	r27, 0xA2	; 162
    a5ba:	62 07       	cpc	r22, r18
    a5bc:	73 07       	cpc	r23, r19
    a5be:	84 07       	cpc	r24, r20
    a5c0:	28 f0       	brcs	.+10     	; 0xa5cc <__fp_rempio2+0x36>
    a5c2:	b2 5a       	subi	r27, 0xA2	; 162
    a5c4:	62 0b       	sbc	r22, r18
    a5c6:	73 0b       	sbc	r23, r19
    a5c8:	84 0b       	sbc	r24, r20
    a5ca:	e3 95       	inc	r30
    a5cc:	9a 95       	dec	r25
    a5ce:	72 f7       	brpl	.-36     	; 0xa5ac <__fp_rempio2+0x16>
    a5d0:	80 38       	cpi	r24, 0x80	; 128
    a5d2:	30 f4       	brcc	.+12     	; 0xa5e0 <__fp_rempio2+0x4a>
    a5d4:	9a 95       	dec	r25
    a5d6:	bb 0f       	add	r27, r27
    a5d8:	66 1f       	adc	r22, r22
    a5da:	77 1f       	adc	r23, r23
    a5dc:	88 1f       	adc	r24, r24
    a5de:	d2 f7       	brpl	.-12     	; 0xa5d4 <__fp_rempio2+0x3e>
    a5e0:	90 48       	sbci	r25, 0x80	; 128
    a5e2:	b6 c0       	rjmp	.+364    	; 0xa750 <__fp_mpack_finite>

0000a5e4 <__fp_round>:
    a5e4:	09 2e       	mov	r0, r25
    a5e6:	03 94       	inc	r0
    a5e8:	00 0c       	add	r0, r0
    a5ea:	11 f4       	brne	.+4      	; 0xa5f0 <__fp_round+0xc>
    a5ec:	88 23       	and	r24, r24
    a5ee:	52 f0       	brmi	.+20     	; 0xa604 <__fp_round+0x20>
    a5f0:	bb 0f       	add	r27, r27
    a5f2:	40 f4       	brcc	.+16     	; 0xa604 <__fp_round+0x20>
    a5f4:	bf 2b       	or	r27, r31
    a5f6:	11 f4       	brne	.+4      	; 0xa5fc <__fp_round+0x18>
    a5f8:	60 ff       	sbrs	r22, 0
    a5fa:	04 c0       	rjmp	.+8      	; 0xa604 <__fp_round+0x20>
    a5fc:	6f 5f       	subi	r22, 0xFF	; 255
    a5fe:	7f 4f       	sbci	r23, 0xFF	; 255
    a600:	8f 4f       	sbci	r24, 0xFF	; 255
    a602:	9f 4f       	sbci	r25, 0xFF	; 255
    a604:	08 95       	ret

0000a606 <__fp_sinus>:
    a606:	ef 93       	push	r30
    a608:	e0 ff       	sbrs	r30, 0
    a60a:	06 c0       	rjmp	.+12     	; 0xa618 <__fp_sinus+0x12>
    a60c:	a2 ea       	ldi	r26, 0xA2	; 162
    a60e:	2a ed       	ldi	r18, 0xDA	; 218
    a610:	3f e0       	ldi	r19, 0x0F	; 15
    a612:	49 ec       	ldi	r20, 0xC9	; 201
    a614:	5f eb       	ldi	r21, 0xBF	; 191
    a616:	7b de       	rcall	.-778    	; 0xa30e <__addsf3x>
    a618:	e5 df       	rcall	.-54     	; 0xa5e4 <__fp_round>
    a61a:	0f 90       	pop	r0
    a61c:	03 94       	inc	r0
    a61e:	01 fc       	sbrc	r0, 1
    a620:	90 58       	subi	r25, 0x80	; 128
    a622:	e2 e9       	ldi	r30, 0x92	; 146
    a624:	f1 e0       	ldi	r31, 0x01	; 1
    a626:	a0 c0       	rjmp	.+320    	; 0xa768 <__fp_powsodd>

0000a628 <__fp_split3>:
    a628:	57 fd       	sbrc	r21, 7
    a62a:	90 58       	subi	r25, 0x80	; 128
    a62c:	44 0f       	add	r20, r20
    a62e:	55 1f       	adc	r21, r21
    a630:	59 f0       	breq	.+22     	; 0xa648 <__fp_splitA+0x10>
    a632:	5f 3f       	cpi	r21, 0xFF	; 255
    a634:	71 f0       	breq	.+28     	; 0xa652 <__fp_splitA+0x1a>
    a636:	47 95       	ror	r20

0000a638 <__fp_splitA>:
    a638:	88 0f       	add	r24, r24
    a63a:	97 fb       	bst	r25, 7
    a63c:	99 1f       	adc	r25, r25
    a63e:	61 f0       	breq	.+24     	; 0xa658 <__fp_splitA+0x20>
    a640:	9f 3f       	cpi	r25, 0xFF	; 255
    a642:	79 f0       	breq	.+30     	; 0xa662 <__fp_splitA+0x2a>
    a644:	87 95       	ror	r24
    a646:	08 95       	ret
    a648:	12 16       	cp	r1, r18
    a64a:	13 06       	cpc	r1, r19
    a64c:	14 06       	cpc	r1, r20
    a64e:	55 1f       	adc	r21, r21
    a650:	f2 cf       	rjmp	.-28     	; 0xa636 <__fp_split3+0xe>
    a652:	46 95       	lsr	r20
    a654:	f1 df       	rcall	.-30     	; 0xa638 <__fp_splitA>
    a656:	08 c0       	rjmp	.+16     	; 0xa668 <__fp_splitA+0x30>
    a658:	16 16       	cp	r1, r22
    a65a:	17 06       	cpc	r1, r23
    a65c:	18 06       	cpc	r1, r24
    a65e:	99 1f       	adc	r25, r25
    a660:	f1 cf       	rjmp	.-30     	; 0xa644 <__fp_splitA+0xc>
    a662:	86 95       	lsr	r24
    a664:	71 05       	cpc	r23, r1
    a666:	61 05       	cpc	r22, r1
    a668:	08 94       	sec
    a66a:	08 95       	ret

0000a66c <__fp_zero>:
    a66c:	e8 94       	clt

0000a66e <__fp_szero>:
    a66e:	bb 27       	eor	r27, r27
    a670:	66 27       	eor	r22, r22
    a672:	77 27       	eor	r23, r23
    a674:	cb 01       	movw	r24, r22
    a676:	97 f9       	bld	r25, 7
    a678:	08 95       	ret

0000a67a <__mulsf3>:
    a67a:	0b d0       	rcall	.+22     	; 0xa692 <__mulsf3x>
    a67c:	b3 cf       	rjmp	.-154    	; 0xa5e4 <__fp_round>
    a67e:	7c df       	rcall	.-264    	; 0xa578 <__fp_pscA>
    a680:	28 f0       	brcs	.+10     	; 0xa68c <__mulsf3+0x12>
    a682:	81 df       	rcall	.-254    	; 0xa586 <__fp_pscB>
    a684:	18 f0       	brcs	.+6      	; 0xa68c <__mulsf3+0x12>
    a686:	95 23       	and	r25, r21
    a688:	09 f0       	breq	.+2      	; 0xa68c <__mulsf3+0x12>
    a68a:	6d cf       	rjmp	.-294    	; 0xa566 <__fp_inf>
    a68c:	72 cf       	rjmp	.-284    	; 0xa572 <__fp_nan>
    a68e:	11 24       	eor	r1, r1
    a690:	ee cf       	rjmp	.-36     	; 0xa66e <__fp_szero>

0000a692 <__mulsf3x>:
    a692:	ca df       	rcall	.-108    	; 0xa628 <__fp_split3>
    a694:	a0 f3       	brcs	.-24     	; 0xa67e <__mulsf3+0x4>

0000a696 <__mulsf3_pse>:
    a696:	95 9f       	mul	r25, r21
    a698:	d1 f3       	breq	.-12     	; 0xa68e <__mulsf3+0x14>
    a69a:	95 0f       	add	r25, r21
    a69c:	50 e0       	ldi	r21, 0x00	; 0
    a69e:	55 1f       	adc	r21, r21
    a6a0:	62 9f       	mul	r22, r18
    a6a2:	f0 01       	movw	r30, r0
    a6a4:	72 9f       	mul	r23, r18
    a6a6:	bb 27       	eor	r27, r27
    a6a8:	f0 0d       	add	r31, r0
    a6aa:	b1 1d       	adc	r27, r1
    a6ac:	63 9f       	mul	r22, r19
    a6ae:	aa 27       	eor	r26, r26
    a6b0:	f0 0d       	add	r31, r0
    a6b2:	b1 1d       	adc	r27, r1
    a6b4:	aa 1f       	adc	r26, r26
    a6b6:	64 9f       	mul	r22, r20
    a6b8:	66 27       	eor	r22, r22
    a6ba:	b0 0d       	add	r27, r0
    a6bc:	a1 1d       	adc	r26, r1
    a6be:	66 1f       	adc	r22, r22
    a6c0:	82 9f       	mul	r24, r18
    a6c2:	22 27       	eor	r18, r18
    a6c4:	b0 0d       	add	r27, r0
    a6c6:	a1 1d       	adc	r26, r1
    a6c8:	62 1f       	adc	r22, r18
    a6ca:	73 9f       	mul	r23, r19
    a6cc:	b0 0d       	add	r27, r0
    a6ce:	a1 1d       	adc	r26, r1
    a6d0:	62 1f       	adc	r22, r18
    a6d2:	83 9f       	mul	r24, r19
    a6d4:	a0 0d       	add	r26, r0
    a6d6:	61 1d       	adc	r22, r1
    a6d8:	22 1f       	adc	r18, r18
    a6da:	74 9f       	mul	r23, r20
    a6dc:	33 27       	eor	r19, r19
    a6de:	a0 0d       	add	r26, r0
    a6e0:	61 1d       	adc	r22, r1
    a6e2:	23 1f       	adc	r18, r19
    a6e4:	84 9f       	mul	r24, r20
    a6e6:	60 0d       	add	r22, r0
    a6e8:	21 1d       	adc	r18, r1
    a6ea:	82 2f       	mov	r24, r18
    a6ec:	76 2f       	mov	r23, r22
    a6ee:	6a 2f       	mov	r22, r26
    a6f0:	11 24       	eor	r1, r1
    a6f2:	9f 57       	subi	r25, 0x7F	; 127
    a6f4:	50 40       	sbci	r21, 0x00	; 0
    a6f6:	8a f0       	brmi	.+34     	; 0xa71a <__mulsf3_pse+0x84>
    a6f8:	e1 f0       	breq	.+56     	; 0xa732 <__mulsf3_pse+0x9c>
    a6fa:	88 23       	and	r24, r24
    a6fc:	4a f0       	brmi	.+18     	; 0xa710 <__mulsf3_pse+0x7a>
    a6fe:	ee 0f       	add	r30, r30
    a700:	ff 1f       	adc	r31, r31
    a702:	bb 1f       	adc	r27, r27
    a704:	66 1f       	adc	r22, r22
    a706:	77 1f       	adc	r23, r23
    a708:	88 1f       	adc	r24, r24
    a70a:	91 50       	subi	r25, 0x01	; 1
    a70c:	50 40       	sbci	r21, 0x00	; 0
    a70e:	a9 f7       	brne	.-22     	; 0xa6fa <__mulsf3_pse+0x64>
    a710:	9e 3f       	cpi	r25, 0xFE	; 254
    a712:	51 05       	cpc	r21, r1
    a714:	70 f0       	brcs	.+28     	; 0xa732 <__mulsf3_pse+0x9c>
    a716:	27 cf       	rjmp	.-434    	; 0xa566 <__fp_inf>
    a718:	aa cf       	rjmp	.-172    	; 0xa66e <__fp_szero>
    a71a:	5f 3f       	cpi	r21, 0xFF	; 255
    a71c:	ec f3       	brlt	.-6      	; 0xa718 <__mulsf3_pse+0x82>
    a71e:	98 3e       	cpi	r25, 0xE8	; 232
    a720:	dc f3       	brlt	.-10     	; 0xa718 <__mulsf3_pse+0x82>
    a722:	86 95       	lsr	r24
    a724:	77 95       	ror	r23
    a726:	67 95       	ror	r22
    a728:	b7 95       	ror	r27
    a72a:	f7 95       	ror	r31
    a72c:	e7 95       	ror	r30
    a72e:	9f 5f       	subi	r25, 0xFF	; 255
    a730:	c1 f7       	brne	.-16     	; 0xa722 <__mulsf3_pse+0x8c>
    a732:	fe 2b       	or	r31, r30
    a734:	88 0f       	add	r24, r24
    a736:	91 1d       	adc	r25, r1
    a738:	96 95       	lsr	r25
    a73a:	87 95       	ror	r24
    a73c:	97 f9       	bld	r25, 7
    a73e:	08 95       	ret

0000a740 <sin>:
    a740:	9f 93       	push	r25
    a742:	29 df       	rcall	.-430    	; 0xa596 <__fp_rempio2>
    a744:	0f 90       	pop	r0
    a746:	07 fc       	sbrc	r0, 7
    a748:	ee 5f       	subi	r30, 0xFE	; 254
    a74a:	5d cf       	rjmp	.-326    	; 0xa606 <__fp_sinus>

0000a74c <__fp_mpack>:
    a74c:	9f 3f       	cpi	r25, 0xFF	; 255
    a74e:	31 f0       	breq	.+12     	; 0xa75c <__fp_mpack_finite+0xc>

0000a750 <__fp_mpack_finite>:
    a750:	91 50       	subi	r25, 0x01	; 1
    a752:	20 f4       	brcc	.+8      	; 0xa75c <__fp_mpack_finite+0xc>
    a754:	87 95       	ror	r24
    a756:	77 95       	ror	r23
    a758:	67 95       	ror	r22
    a75a:	b7 95       	ror	r27
    a75c:	88 0f       	add	r24, r24
    a75e:	91 1d       	adc	r25, r1
    a760:	96 95       	lsr	r25
    a762:	87 95       	ror	r24
    a764:	97 f9       	bld	r25, 7
    a766:	08 95       	ret

0000a768 <__fp_powsodd>:
    a768:	9f 93       	push	r25
    a76a:	8f 93       	push	r24
    a76c:	7f 93       	push	r23
    a76e:	6f 93       	push	r22
    a770:	ff 93       	push	r31
    a772:	ef 93       	push	r30
    a774:	9b 01       	movw	r18, r22
    a776:	ac 01       	movw	r20, r24
    a778:	80 df       	rcall	.-256    	; 0xa67a <__mulsf3>
    a77a:	ef 91       	pop	r30
    a77c:	ff 91       	pop	r31
    a77e:	05 d0       	rcall	.+10     	; 0xa78a <__fp_powser>
    a780:	2f 91       	pop	r18
    a782:	3f 91       	pop	r19
    a784:	4f 91       	pop	r20
    a786:	5f 91       	pop	r21
    a788:	78 cf       	rjmp	.-272    	; 0xa67a <__mulsf3>

0000a78a <__fp_powser>:
    a78a:	df 93       	push	r29
    a78c:	cf 93       	push	r28
    a78e:	1f 93       	push	r17
    a790:	0f 93       	push	r16
    a792:	ff 92       	push	r15
    a794:	ef 92       	push	r14
    a796:	df 92       	push	r13
    a798:	7b 01       	movw	r14, r22
    a79a:	8c 01       	movw	r16, r24
    a79c:	68 94       	set
    a79e:	05 c0       	rjmp	.+10     	; 0xa7aa <__fp_powser+0x20>
    a7a0:	da 2e       	mov	r13, r26
    a7a2:	ef 01       	movw	r28, r30
    a7a4:	76 df       	rcall	.-276    	; 0xa692 <__mulsf3x>
    a7a6:	fe 01       	movw	r30, r28
    a7a8:	e8 94       	clt
    a7aa:	a5 91       	lpm	r26, Z+
    a7ac:	25 91       	lpm	r18, Z+
    a7ae:	35 91       	lpm	r19, Z+
    a7b0:	45 91       	lpm	r20, Z+
    a7b2:	55 91       	lpm	r21, Z+
    a7b4:	ae f3       	brts	.-22     	; 0xa7a0 <__fp_powser+0x16>
    a7b6:	ef 01       	movw	r28, r30
    a7b8:	aa dd       	rcall	.-1196   	; 0xa30e <__addsf3x>
    a7ba:	fe 01       	movw	r30, r28
    a7bc:	97 01       	movw	r18, r14
    a7be:	a8 01       	movw	r20, r16
    a7c0:	da 94       	dec	r13
    a7c2:	79 f7       	brne	.-34     	; 0xa7a2 <__fp_powser+0x18>
    a7c4:	df 90       	pop	r13
    a7c6:	ef 90       	pop	r14
    a7c8:	ff 90       	pop	r15
    a7ca:	0f 91       	pop	r16
    a7cc:	1f 91       	pop	r17
    a7ce:	cf 91       	pop	r28
    a7d0:	df 91       	pop	r29
    a7d2:	08 95       	ret

0000a7d4 <__udivmodqi4>:
    a7d4:	99 1b       	sub	r25, r25
    a7d6:	79 e0       	ldi	r23, 0x09	; 9
    a7d8:	04 c0       	rjmp	.+8      	; 0xa7e2 <__udivmodqi4_ep>

0000a7da <__udivmodqi4_loop>:
    a7da:	99 1f       	adc	r25, r25
    a7dc:	96 17       	cp	r25, r22
    a7de:	08 f0       	brcs	.+2      	; 0xa7e2 <__udivmodqi4_ep>
    a7e0:	96 1b       	sub	r25, r22

0000a7e2 <__udivmodqi4_ep>:
    a7e2:	88 1f       	adc	r24, r24
    a7e4:	7a 95       	dec	r23
    a7e6:	c9 f7       	brne	.-14     	; 0xa7da <__udivmodqi4_loop>
    a7e8:	80 95       	com	r24
    a7ea:	08 95       	ret

0000a7ec <__divmodhi4>:
    a7ec:	97 fb       	bst	r25, 7
    a7ee:	09 2e       	mov	r0, r25
    a7f0:	07 26       	eor	r0, r23
    a7f2:	0a d0       	rcall	.+20     	; 0xa808 <__divmodhi4_neg1>
    a7f4:	77 fd       	sbrc	r23, 7
    a7f6:	04 d0       	rcall	.+8      	; 0xa800 <__divmodhi4_neg2>
    a7f8:	0c d0       	rcall	.+24     	; 0xa812 <__udivmodhi4>
    a7fa:	06 d0       	rcall	.+12     	; 0xa808 <__divmodhi4_neg1>
    a7fc:	00 20       	and	r0, r0
    a7fe:	1a f4       	brpl	.+6      	; 0xa806 <__divmodhi4_exit>

0000a800 <__divmodhi4_neg2>:
    a800:	70 95       	com	r23
    a802:	61 95       	neg	r22
    a804:	7f 4f       	sbci	r23, 0xFF	; 255

0000a806 <__divmodhi4_exit>:
    a806:	08 95       	ret

0000a808 <__divmodhi4_neg1>:
    a808:	f6 f7       	brtc	.-4      	; 0xa806 <__divmodhi4_exit>
    a80a:	90 95       	com	r25
    a80c:	81 95       	neg	r24
    a80e:	9f 4f       	sbci	r25, 0xFF	; 255
    a810:	08 95       	ret

0000a812 <__udivmodhi4>:
    a812:	aa 1b       	sub	r26, r26
    a814:	bb 1b       	sub	r27, r27
    a816:	51 e1       	ldi	r21, 0x11	; 17
    a818:	07 c0       	rjmp	.+14     	; 0xa828 <__udivmodhi4_ep>

0000a81a <__udivmodhi4_loop>:
    a81a:	aa 1f       	adc	r26, r26
    a81c:	bb 1f       	adc	r27, r27
    a81e:	a6 17       	cp	r26, r22
    a820:	b7 07       	cpc	r27, r23
    a822:	10 f0       	brcs	.+4      	; 0xa828 <__udivmodhi4_ep>
    a824:	a6 1b       	sub	r26, r22
    a826:	b7 0b       	sbc	r27, r23

0000a828 <__udivmodhi4_ep>:
    a828:	88 1f       	adc	r24, r24
    a82a:	99 1f       	adc	r25, r25
    a82c:	5a 95       	dec	r21
    a82e:	a9 f7       	brne	.-22     	; 0xa81a <__udivmodhi4_loop>
    a830:	80 95       	com	r24
    a832:	90 95       	com	r25
    a834:	bc 01       	movw	r22, r24
    a836:	cd 01       	movw	r24, r26
    a838:	08 95       	ret

0000a83a <do_rand>:
    a83a:	8f 92       	push	r8
    a83c:	9f 92       	push	r9
    a83e:	af 92       	push	r10
    a840:	bf 92       	push	r11
    a842:	cf 92       	push	r12
    a844:	df 92       	push	r13
    a846:	ef 92       	push	r14
    a848:	ff 92       	push	r15
    a84a:	cf 93       	push	r28
    a84c:	df 93       	push	r29
    a84e:	ec 01       	movw	r28, r24
    a850:	88 81       	ld	r24, Y
    a852:	99 81       	ldd	r25, Y+1	; 0x01
    a854:	aa 81       	ldd	r26, Y+2	; 0x02
    a856:	bb 81       	ldd	r27, Y+3	; 0x03
    a858:	00 97       	sbiw	r24, 0x00	; 0
    a85a:	a1 05       	cpc	r26, r1
    a85c:	b1 05       	cpc	r27, r1
    a85e:	21 f4       	brne	.+8      	; 0xa868 <do_rand+0x2e>
    a860:	84 e2       	ldi	r24, 0x24	; 36
    a862:	99 ed       	ldi	r25, 0xD9	; 217
    a864:	ab e5       	ldi	r26, 0x5B	; 91
    a866:	b7 e0       	ldi	r27, 0x07	; 7
    a868:	bc 01       	movw	r22, r24
    a86a:	cd 01       	movw	r24, r26
    a86c:	2d e1       	ldi	r18, 0x1D	; 29
    a86e:	33 ef       	ldi	r19, 0xF3	; 243
    a870:	41 e0       	ldi	r20, 0x01	; 1
    a872:	50 e0       	ldi	r21, 0x00	; 0
    a874:	0e 94 a9 54 	call	0xa952	; 0xa952 <__divmodsi4>
    a878:	49 01       	movw	r8, r18
    a87a:	5a 01       	movw	r10, r20
    a87c:	27 ea       	ldi	r18, 0xA7	; 167
    a87e:	31 e4       	ldi	r19, 0x41	; 65
    a880:	40 e0       	ldi	r20, 0x00	; 0
    a882:	50 e0       	ldi	r21, 0x00	; 0
    a884:	0e 94 8a 54 	call	0xa914	; 0xa914 <__mulsi3>
    a888:	6b 01       	movw	r12, r22
    a88a:	7c 01       	movw	r14, r24
    a88c:	c5 01       	movw	r24, r10
    a88e:	b4 01       	movw	r22, r8
    a890:	2c ee       	ldi	r18, 0xEC	; 236
    a892:	34 ef       	ldi	r19, 0xF4	; 244
    a894:	4f ef       	ldi	r20, 0xFF	; 255
    a896:	5f ef       	ldi	r21, 0xFF	; 255
    a898:	0e 94 8a 54 	call	0xa914	; 0xa914 <__mulsi3>
    a89c:	dc 01       	movw	r26, r24
    a89e:	cb 01       	movw	r24, r22
    a8a0:	c8 0e       	add	r12, r24
    a8a2:	d9 1e       	adc	r13, r25
    a8a4:	ea 1e       	adc	r14, r26
    a8a6:	fb 1e       	adc	r15, r27
    a8a8:	f7 fe       	sbrs	r15, 7
    a8aa:	08 c0       	rjmp	.+16     	; 0xa8bc <do_rand+0x82>
    a8ac:	8f ef       	ldi	r24, 0xFF	; 255
    a8ae:	9f ef       	ldi	r25, 0xFF	; 255
    a8b0:	af ef       	ldi	r26, 0xFF	; 255
    a8b2:	bf e7       	ldi	r27, 0x7F	; 127
    a8b4:	c8 0e       	add	r12, r24
    a8b6:	d9 1e       	adc	r13, r25
    a8b8:	ea 1e       	adc	r14, r26
    a8ba:	fb 1e       	adc	r15, r27
    a8bc:	c8 82       	st	Y, r12
    a8be:	d9 82       	std	Y+1, r13	; 0x01
    a8c0:	ea 82       	std	Y+2, r14	; 0x02
    a8c2:	fb 82       	std	Y+3, r15	; 0x03
    a8c4:	c6 01       	movw	r24, r12
    a8c6:	9f 77       	andi	r25, 0x7F	; 127
    a8c8:	df 91       	pop	r29
    a8ca:	cf 91       	pop	r28
    a8cc:	ff 90       	pop	r15
    a8ce:	ef 90       	pop	r14
    a8d0:	df 90       	pop	r13
    a8d2:	cf 90       	pop	r12
    a8d4:	bf 90       	pop	r11
    a8d6:	af 90       	pop	r10
    a8d8:	9f 90       	pop	r9
    a8da:	8f 90       	pop	r8
    a8dc:	08 95       	ret

0000a8de <rand_r>:
    a8de:	0e 94 1d 54 	call	0xa83a	; 0xa83a <do_rand>
    a8e2:	08 95       	ret

0000a8e4 <rand>:
    a8e4:	89 e6       	ldi	r24, 0x69	; 105
    a8e6:	91 e0       	ldi	r25, 0x01	; 1
    a8e8:	0e 94 1d 54 	call	0xa83a	; 0xa83a <do_rand>
    a8ec:	08 95       	ret

0000a8ee <srand>:
    a8ee:	a0 e0       	ldi	r26, 0x00	; 0
    a8f0:	b0 e0       	ldi	r27, 0x00	; 0
    a8f2:	80 93 69 01 	sts	0x0169, r24
    a8f6:	90 93 6a 01 	sts	0x016A, r25
    a8fa:	a0 93 6b 01 	sts	0x016B, r26
    a8fe:	b0 93 6c 01 	sts	0x016C, r27
    a902:	08 95       	ret

0000a904 <__eerd_byte_m1284p>:
    a904:	f9 99       	sbic	0x1f, 1	; 31
    a906:	fe cf       	rjmp	.-4      	; 0xa904 <__eerd_byte_m1284p>
    a908:	92 bd       	out	0x22, r25	; 34
    a90a:	81 bd       	out	0x21, r24	; 33
    a90c:	f8 9a       	sbi	0x1f, 0	; 31
    a90e:	99 27       	eor	r25, r25
    a910:	80 b5       	in	r24, 0x20	; 32
    a912:	08 95       	ret

0000a914 <__mulsi3>:
    a914:	62 9f       	mul	r22, r18
    a916:	d0 01       	movw	r26, r0
    a918:	73 9f       	mul	r23, r19
    a91a:	f0 01       	movw	r30, r0
    a91c:	82 9f       	mul	r24, r18
    a91e:	e0 0d       	add	r30, r0
    a920:	f1 1d       	adc	r31, r1
    a922:	64 9f       	mul	r22, r20
    a924:	e0 0d       	add	r30, r0
    a926:	f1 1d       	adc	r31, r1
    a928:	92 9f       	mul	r25, r18
    a92a:	f0 0d       	add	r31, r0
    a92c:	83 9f       	mul	r24, r19
    a92e:	f0 0d       	add	r31, r0
    a930:	74 9f       	mul	r23, r20
    a932:	f0 0d       	add	r31, r0
    a934:	65 9f       	mul	r22, r21
    a936:	f0 0d       	add	r31, r0
    a938:	99 27       	eor	r25, r25
    a93a:	72 9f       	mul	r23, r18
    a93c:	b0 0d       	add	r27, r0
    a93e:	e1 1d       	adc	r30, r1
    a940:	f9 1f       	adc	r31, r25
    a942:	63 9f       	mul	r22, r19
    a944:	b0 0d       	add	r27, r0
    a946:	e1 1d       	adc	r30, r1
    a948:	f9 1f       	adc	r31, r25
    a94a:	bd 01       	movw	r22, r26
    a94c:	cf 01       	movw	r24, r30
    a94e:	11 24       	eor	r1, r1
    a950:	08 95       	ret

0000a952 <__divmodsi4>:
    a952:	97 fb       	bst	r25, 7
    a954:	09 2e       	mov	r0, r25
    a956:	05 26       	eor	r0, r21
    a958:	0e d0       	rcall	.+28     	; 0xa976 <__divmodsi4_neg1>
    a95a:	57 fd       	sbrc	r21, 7
    a95c:	04 d0       	rcall	.+8      	; 0xa966 <__divmodsi4_neg2>
    a95e:	14 d0       	rcall	.+40     	; 0xa988 <__udivmodsi4>
    a960:	0a d0       	rcall	.+20     	; 0xa976 <__divmodsi4_neg1>
    a962:	00 1c       	adc	r0, r0
    a964:	38 f4       	brcc	.+14     	; 0xa974 <__divmodsi4_exit>

0000a966 <__divmodsi4_neg2>:
    a966:	50 95       	com	r21
    a968:	40 95       	com	r20
    a96a:	30 95       	com	r19
    a96c:	21 95       	neg	r18
    a96e:	3f 4f       	sbci	r19, 0xFF	; 255
    a970:	4f 4f       	sbci	r20, 0xFF	; 255
    a972:	5f 4f       	sbci	r21, 0xFF	; 255

0000a974 <__divmodsi4_exit>:
    a974:	08 95       	ret

0000a976 <__divmodsi4_neg1>:
    a976:	f6 f7       	brtc	.-4      	; 0xa974 <__divmodsi4_exit>
    a978:	90 95       	com	r25
    a97a:	80 95       	com	r24
    a97c:	70 95       	com	r23
    a97e:	61 95       	neg	r22
    a980:	7f 4f       	sbci	r23, 0xFF	; 255
    a982:	8f 4f       	sbci	r24, 0xFF	; 255
    a984:	9f 4f       	sbci	r25, 0xFF	; 255
    a986:	08 95       	ret

0000a988 <__udivmodsi4>:
    a988:	a1 e2       	ldi	r26, 0x21	; 33
    a98a:	1a 2e       	mov	r1, r26
    a98c:	aa 1b       	sub	r26, r26
    a98e:	bb 1b       	sub	r27, r27
    a990:	fd 01       	movw	r30, r26
    a992:	0d c0       	rjmp	.+26     	; 0xa9ae <__udivmodsi4_ep>

0000a994 <__udivmodsi4_loop>:
    a994:	aa 1f       	adc	r26, r26
    a996:	bb 1f       	adc	r27, r27
    a998:	ee 1f       	adc	r30, r30
    a99a:	ff 1f       	adc	r31, r31
    a99c:	a2 17       	cp	r26, r18
    a99e:	b3 07       	cpc	r27, r19
    a9a0:	e4 07       	cpc	r30, r20
    a9a2:	f5 07       	cpc	r31, r21
    a9a4:	20 f0       	brcs	.+8      	; 0xa9ae <__udivmodsi4_ep>
    a9a6:	a2 1b       	sub	r26, r18
    a9a8:	b3 0b       	sbc	r27, r19
    a9aa:	e4 0b       	sbc	r30, r20
    a9ac:	f5 0b       	sbc	r31, r21

0000a9ae <__udivmodsi4_ep>:
    a9ae:	66 1f       	adc	r22, r22
    a9b0:	77 1f       	adc	r23, r23
    a9b2:	88 1f       	adc	r24, r24
    a9b4:	99 1f       	adc	r25, r25
    a9b6:	1a 94       	dec	r1
    a9b8:	69 f7       	brne	.-38     	; 0xa994 <__udivmodsi4_loop>
    a9ba:	60 95       	com	r22
    a9bc:	70 95       	com	r23
    a9be:	80 95       	com	r24
    a9c0:	90 95       	com	r25
    a9c2:	9b 01       	movw	r18, r22
    a9c4:	ac 01       	movw	r20, r24
    a9c6:	bd 01       	movw	r22, r26
    a9c8:	cf 01       	movw	r24, r30
    a9ca:	08 95       	ret

0000a9cc <_exit>:
    a9cc:	f8 94       	cli

0000a9ce <__stop_program>:
    a9ce:	ff cf       	rjmp	.-2      	; 0xa9ce <__stop_program>
